
/Users/eric/Documents/github/How-to-build-with-particle/tomato_clock_v3/target/6.3.4/p2/tomato_clock_v3.elf:     file format elf32-littlearm

Sections:
Idx Name          Size      VMA       LMA       File off  Algn
  0 .module_info  00000018  085fb000  085fb000  0000b000  2**0
                  CONTENTS, ALLOC, LOAD, READONLY, DATA
  1 .text         0000008c  085fb018  085fb018  0000b018  2**2
                  CONTENTS, ALLOC, LOAD, READONLY, CODE
  2 .dynalib      00000008  023fb6a0  085fb0a8  0000b6a0  2**3
                  CONTENTS, ALLOC, LOAD, READONLY, DATA
  3 .psram_text   00004954  023fb6a8  085fb0b0  0000b6a8  2**2
                  CONTENTS, ALLOC, LOAD, CODE
  4 .data_alt     00000000  023ffffc  023ffffc  00020000  2**0
                  CONTENTS
  5 .bss_alt      00000000  023ffffc  023ffffc  00020000  2**0
                  CONTENTS
  6 .data         0000006c  1007adb0  085ffa04  0001adb0  2**2
                  CONTENTS, ALLOC, LOAD, DATA
  7 .bss          000001e0  1007ae1c  1007ae1c  0002ae1c  2**2
                  ALLOC
  8 .secure_ram_text 00000000  1007d000  1007d000  00020000  2**0
                  CONTENTS
  9 .backup       00000004  1007b400  085ffa70  0001b400  2**2
                  CONTENTS, ALLOC, LOAD, DATA
 10 .module_info_suffix_align 00000544  085ffa74  085ffa74  0001fa74  2**0
                  ALLOC
 11 .module_info_product 00000006  085fffb8  085fffb8  0001fa74  2**0
                  ALLOC
 12 .module_info_suffix 0000003e  085fffbe  085fffbe  0001ffbe  2**0
                  CONTENTS, ALLOC, LOAD, READONLY, DATA
 13 .module_info_crc 00000004  085ffffc  085ffffc  0001fffc  2**0
                  CONTENTS, ALLOC, LOAD, READONLY, DATA
 14 .debug_info   0025d5d6  00000000  00000000  00020000  2**0
                  CONTENTS, READONLY, DEBUGGING, OCTETS
 15 .debug_abbrev 000224f2  00000000  00000000  0027d5d6  2**0
                  CONTENTS, READONLY, DEBUGGING, OCTETS
 16 .debug_loc    00075aff  00000000  00000000  0029fac8  2**0
                  CONTENTS, READONLY, DEBUGGING, OCTETS
 17 .debug_aranges 000045c8  00000000  00000000  003155c7  2**0
                  CONTENTS, READONLY, DEBUGGING, OCTETS
 18 .debug_ranges 000124c0  00000000  00000000  00319b8f  2**0
                  CONTENTS, READONLY, DEBUGGING, OCTETS
 19 .debug_macro  0006a0b7  00000000  00000000  0032c04f  2**0
                  CONTENTS, READONLY, DEBUGGING, OCTETS
 20 .debug_line   0007d578  00000000  00000000  00396106  2**0
                  CONTENTS, READONLY, DEBUGGING, OCTETS
 21 .debug_str    00147949  00000000  00000000  0041367e  2**0
                  CONTENTS, READONLY, DEBUGGING, OCTETS
 22 .debug_frame  0000ce14  00000000  00000000  0055afc8  2**2
                  CONTENTS, READONLY, DEBUGGING, OCTETS

Disassembly of section .text:

085fb018 <module_user_pre_init>:
 * Initializes this user module. Returns the start of the heap.
 */
__attribute__((section(".xip.text"))) void* module_user_pre_init() {
    // NOTE: Must invoke APIs in ROM
    // Copy .data
    if ( (&link_global_data_start != &link_global_data_initial_values) && (link_global_data_size != 0))
 85fb018:	4813      	ldr	r0, [pc, #76]	; (85fb068 <module_user_pre_init+0x50>)
 85fb01a:	4914      	ldr	r1, [pc, #80]	; (85fb06c <module_user_pre_init+0x54>)
__attribute__((section(".xip.text"))) void* module_user_pre_init() {
 85fb01c:	b508      	push	{r3, lr}
    if ( (&link_global_data_start != &link_global_data_initial_values) && (link_global_data_size != 0))
 85fb01e:	4288      	cmp	r0, r1
 85fb020:	d005      	beq.n	85fb02e <module_user_pre_init+0x16>
 85fb022:	4a13      	ldr	r2, [pc, #76]	; (85fb070 <module_user_pre_init+0x58>)
 85fb024:	4282      	cmp	r2, r0
 85fb026:	d002      	beq.n	85fb02e <module_user_pre_init+0x16>
    {
        _memcpy(&link_global_data_start, &link_global_data_initial_values, link_global_data_size);
 85fb028:	4b12      	ldr	r3, [pc, #72]	; (85fb074 <module_user_pre_init+0x5c>)
 85fb02a:	1a12      	subs	r2, r2, r0
 85fb02c:	4798      	blx	r3
    }

    // Initialize .bss
    _memset(&link_bss_location, 0, link_bss_size );
 85fb02e:	4812      	ldr	r0, [pc, #72]	; (85fb078 <module_user_pre_init+0x60>)
 85fb030:	4a12      	ldr	r2, [pc, #72]	; (85fb07c <module_user_pre_init+0x64>)
 85fb032:	2100      	movs	r1, #0
 85fb034:	4b12      	ldr	r3, [pc, #72]	; (85fb080 <module_user_pre_init+0x68>)
 85fb036:	1a12      	subs	r2, r2, r0
 85fb038:	4798      	blx	r3

    // Copy .dynalib
    if ( (&link_dynalib_start != &link_dynalib_flash_start) && (link_dynalib_size != 0))
 85fb03a:	4812      	ldr	r0, [pc, #72]	; (85fb084 <module_user_pre_init+0x6c>)
 85fb03c:	4912      	ldr	r1, [pc, #72]	; (85fb088 <module_user_pre_init+0x70>)
 85fb03e:	4288      	cmp	r0, r1
 85fb040:	d005      	beq.n	85fb04e <module_user_pre_init+0x36>
 85fb042:	4a12      	ldr	r2, [pc, #72]	; (85fb08c <module_user_pre_init+0x74>)
 85fb044:	4282      	cmp	r2, r0
 85fb046:	d002      	beq.n	85fb04e <module_user_pre_init+0x36>
    {
        _memcpy(&link_dynalib_start, &link_dynalib_flash_start, link_dynalib_size);
 85fb048:	4b0a      	ldr	r3, [pc, #40]	; (85fb074 <module_user_pre_init+0x5c>)
 85fb04a:	1a12      	subs	r2, r2, r0
 85fb04c:	4798      	blx	r3
    }

    // Copy .psram_text
    if ( (&link_psram_code_start != &link_psram_code_flash_start) && (link_psram_code_size != 0))
 85fb04e:	4810      	ldr	r0, [pc, #64]	; (85fb090 <module_user_pre_init+0x78>)
 85fb050:	4910      	ldr	r1, [pc, #64]	; (85fb094 <module_user_pre_init+0x7c>)
 85fb052:	4288      	cmp	r0, r1
 85fb054:	d005      	beq.n	85fb062 <module_user_pre_init+0x4a>
 85fb056:	4a10      	ldr	r2, [pc, #64]	; (85fb098 <module_user_pre_init+0x80>)
 85fb058:	4282      	cmp	r2, r0
 85fb05a:	d002      	beq.n	85fb062 <module_user_pre_init+0x4a>
    {
        _memcpy(&link_psram_code_start, &link_psram_code_flash_start, link_psram_code_size);
 85fb05c:	4b05      	ldr	r3, [pc, #20]	; (85fb074 <module_user_pre_init+0x5c>)
 85fb05e:	1a12      	subs	r2, r2, r0
 85fb060:	4798      	blx	r3
    }

    return &link_global_data_start;
}
 85fb062:	4801      	ldr	r0, [pc, #4]	; (85fb068 <module_user_pre_init+0x50>)
 85fb064:	bd08      	pop	{r3, pc}
 85fb066:	bf00      	nop
 85fb068:	1007adb0 	.word	0x1007adb0
 85fb06c:	085ffa04 	.word	0x085ffa04
 85fb070:	1007ae1c 	.word	0x1007ae1c
 85fb074:	10110d2d 	.word	0x10110d2d
 85fb078:	1007ae1c 	.word	0x1007ae1c
 85fb07c:	1007affc 	.word	0x1007affc
 85fb080:	10110ea1 	.word	0x10110ea1
 85fb084:	023fb6a0 	.word	0x023fb6a0
 85fb088:	085fb0a8 	.word	0x085fb0a8
 85fb08c:	023fb6a8 	.word	0x023fb6a8
 85fb090:	023fb6a8 	.word	0x023fb6a8
 85fb094:	085fb0b0 	.word	0x085fb0b0
 85fb098:	023ffffc 	.word	0x023ffffc

085fb09c <dynalib_preinit>:
 85fb09c:	085fb019 00000000                       .._.....

Disassembly of section .psram_text:

023fb6a8 <strlen>:
 23fb6a8:	4603      	mov	r3, r0
 23fb6aa:	f813 2b01 	ldrb.w	r2, [r3], #1
 23fb6ae:	2a00      	cmp	r2, #0
 23fb6b0:	d1fb      	bne.n	23fb6aa <strlen+0x2>
 23fb6b2:	1a18      	subs	r0, r3, r0
 23fb6b4:	3801      	subs	r0, #1
 23fb6b6:	4770      	bx	lr

023fb6b8 <module_user_init>:
extern constructor_ptr_t link_constructors_location[];
extern constructor_ptr_t link_constructors_end;
#define link_constructors_size   ((unsigned long)&link_constructors_end  -  (unsigned long)&link_constructors_location )

void module_user_init()
{
 23fb6b8:	b570      	push	{r4, r5, r6, lr}
    module_user_init_hook();
 23fb6ba:	f003 fae5 	bl	23fec88 <module_user_init_hook>

    // invoke constructors
    unsigned ctor_num;
    for (ctor_num=0; ctor_num < link_constructors_size/sizeof(constructor_ptr_t); ctor_num++ )
 23fb6be:	2500      	movs	r5, #0
 23fb6c0:	4e05      	ldr	r6, [pc, #20]	; (23fb6d8 <module_user_init+0x20>)
 23fb6c2:	4c06      	ldr	r4, [pc, #24]	; (23fb6dc <module_user_init+0x24>)
 23fb6c4:	1ba4      	subs	r4, r4, r6
 23fb6c6:	08a4      	lsrs	r4, r4, #2
 23fb6c8:	42ac      	cmp	r4, r5
 23fb6ca:	d100      	bne.n	23fb6ce <module_user_init+0x16>
    {
        link_constructors_location[ctor_num]();
    }
}
 23fb6cc:	bd70      	pop	{r4, r5, r6, pc}
        link_constructors_location[ctor_num]();
 23fb6ce:	f856 3b04 	ldr.w	r3, [r6], #4
 23fb6d2:	4798      	blx	r3
    for (ctor_num=0; ctor_num < link_constructors_size/sizeof(constructor_ptr_t); ctor_num++ )
 23fb6d4:	3501      	adds	r5, #1
 23fb6d6:	e7f7      	b.n	23fb6c8 <module_user_init+0x10>
 23fb6d8:	023fffc4 	.word	0x023fffc4
 23fb6dc:	023ffffc 	.word	0x023ffffc

023fb6e0 <module_user_setup>:

/**
 * Export these functions with a fuller name so they don't clash with the setup/loop wrappers in the system module.
 */
void module_user_setup() {
    setup();
 23fb6e0:	f000 b828 	b.w	23fb734 <setup>

023fb6e4 <module_user_loop>:
}

void module_user_loop() {
 23fb6e4:	b508      	push	{r3, lr}
    loop();
 23fb6e6:	f000 f86b 	bl	23fb7c0 <loop>
    _post_loop();
}
 23fb6ea:	e8bd 4008 	ldmia.w	sp!, {r3, lr}
    _post_loop();
 23fb6ee:	f003 ba83 	b.w	23febf8 <_post_loop>

023fb6f2 <_Znwj>:
 * Implement C++ new/delete operators using the heap
 */

void *operator new(size_t size)
{
	return malloc(size);
 23fb6f2:	f002 b9b9 	b.w	23fda68 <malloc>

023fb6f6 <_Znaj>:
 23fb6f6:	f002 b9b7 	b.w	23fda68 <malloc>

023fb6fa <_ZdlPvj>:
	free(p);
}

void operator delete(void *p, size_t size)
{
	free(p);
 23fb6fa:	f002 b9c3 	b.w	23fda84 <free>
	...

023fb700 <__cxa_pure_virtual>:
    return -1;
}

/* Default implementation for call made to pure virtual function. */
void __cxa_pure_virtual() {
  PANIC(PureVirtualCall,"Call on pure virtual");
 23fb700:	4674      	mov	r4, lr
void __cxa_pure_virtual() {
 23fb702:	b500      	push	{lr}
 23fb704:	b08d      	sub	sp, #52	; 0x34
  PANIC(PureVirtualCall,"Call on pure virtual");
 23fb706:	222c      	movs	r2, #44	; 0x2c
 23fb708:	2100      	movs	r1, #0
 23fb70a:	a801      	add	r0, sp, #4
 23fb70c:	f003 fc80 	bl	23ff010 <memset>
 23fb710:	4b05      	ldr	r3, [pc, #20]	; (23fb728 <__cxa_pure_virtual+0x28>)
 23fb712:	9404      	str	r4, [sp, #16]
 23fb714:	9301      	str	r3, [sp, #4]
 23fb716:	4b05      	ldr	r3, [pc, #20]	; (23fb72c <__cxa_pure_virtual+0x2c>)
 23fb718:	9302      	str	r3, [sp, #8]
}

__attribute__((always_inline)) static inline uint32_t __get_PC(void) { 
    uint32_t result; 

    asm volatile ("mov %0, pc\n" : "=r" (result) ); 
 23fb71a:	467b      	mov	r3, pc
 23fb71c:	2100      	movs	r1, #0
 23fb71e:	a801      	add	r0, sp, #4
 23fb720:	9303      	str	r3, [sp, #12]
 23fb722:	f002 f835 	bl	23fd790 <panic_ext>
  while (1);
 23fb726:	e7fe      	b.n	23fb726 <__cxa_pure_virtual+0x26>
 23fb728:	000c002c 	.word	0x000c002c
 23fb72c:	023ff0c8 	.word	0x023ff0c8

023fb730 <__register_exitproc>:
int __cxa_atexit(void (*f)(void *), void *p, void *d) {
    return 0;
}

void __register_exitproc(int type, void (*fn)(void), void* arg, void* d) {
}
 23fb730:	4770      	bx	lr
	...

023fb734 <setup>:
SystemSleepConfiguration config;
const int bmi160_i2c_addr = 0x68;
const int bmi160_interrupt_pin = IMU_INT;   //D2 is the interrupt pin


void setup(){
 23fb734:	b507      	push	{r0, r1, r2, lr}
  delay(1000);
 23fb736:	f44f 707a 	mov.w	r0, #1000	; 0x3e8
 23fb73a:	f002 fa13 	bl	23fdb64 <delay>
  RGB.control(true);
 23fb73e:	2001      	movs	r0, #1
 23fb740:	f002 ffde 	bl	23fe700 <_ZN8RGBClass7controlEb>
    static void sleep(Spark_Sleep_TypeDef sleepMode, long seconds=0) __attribute__ ((deprecated("Please use System.sleep() instead.")))
    { SystemClass::sleep(sleepMode, seconds); }
    static void sleep(uint16_t wakeUpPin, InterruptMode edgeTriggerMode, long seconds=0) __attribute__ ((deprecated("Please use System.sleep() instead.")))
    { SystemClass::sleep(wakeUpPin, edgeTriggerMode, seconds); }

    static bool connected(void) { return spark_cloud_flag_connected(); }
 23fb744:	f002 f8a2 	bl	23fd88c <spark_cloud_flag_connected>
  if(!Particle.connected()){
 23fb748:	4602      	mov	r2, r0
 23fb74a:	bb70      	cbnz	r0, 23fb7aa <setup+0x76>
    RGB.color(100,0,0);
 23fb74c:	4601      	mov	r1, r0
 23fb74e:	2064      	movs	r0, #100	; 0x64
  }
  else{
    RGB.color(0,0,0);
 23fb750:	f002 ffe6 	bl	23fe720 <_ZN8RGBClass5colorEiii>
  }

  Serial.begin(9600);
 23fb754:	f003 f9c0 	bl	23fead8 <_Z16_fetch_usbserialv>
 23fb758:	f44f 5116 	mov.w	r1, #9600	; 0x2580
 23fb75c:	f003 f9b0 	bl	23feac0 <_ZN9USBSerial5beginEl>
 // Serial1.begin(9600);
  misc.initiaize();
 23fb760:	4814      	ldr	r0, [pc, #80]	; (23fb7b4 <setup+0x80>)
 23fb762:	f000 f96f 	bl	23fba44 <_ZN9MiscClass9initiaizeEv>
  misc.dcdc_mode(DCDC_FIX_PWM);
 23fb766:	2102      	movs	r1, #2
 23fb768:	4812      	ldr	r0, [pc, #72]	; (23fb7b4 <setup+0x80>)
 23fb76a:	f000 f98a 	bl	23fba82 <_ZN9MiscClass9dcdc_modeEh>
  misc.ext_power_on(true);
 23fb76e:	2101      	movs	r1, #1
 23fb770:	4810      	ldr	r0, [pc, #64]	; (23fb7b4 <setup+0x80>)
 23fb772:	f000 f98d 	bl	23fba90 <_ZN9MiscClass12ext_power_onEb>

  if(!ssd1306.begin(SSD1306_SWITCHCAPVCC, 0x3c)){ 
 23fb776:	2301      	movs	r3, #1
 23fb778:	223c      	movs	r2, #60	; 0x3c
 23fb77a:	2102      	movs	r1, #2
 23fb77c:	480e      	ldr	r0, [pc, #56]	; (23fb7b8 <setup+0x84>)
 23fb77e:	9300      	str	r3, [sp, #0]
 23fb780:	f000 ff9c 	bl	23fc6bc <_ZN16Adafruit_SSD13065beginEhhbb>
 23fb784:	b920      	cbnz	r0, 23fb790 <setup+0x5c>
    Serial.print("Couldn't find ssd1306");
 23fb786:	f003 f9a7 	bl	23fead8 <_Z16_fetch_usbserialv>
 23fb78a:	490c      	ldr	r1, [pc, #48]	; (23fb7bc <setup+0x88>)
 23fb78c:	f002 ff4c 	bl	23fe628 <_ZN5Print5printEPKc>
  }
  //seems that dim mode is pretty bright to use.
  ssd1306.dim(true);
 23fb790:	2101      	movs	r1, #1
 23fb792:	4809      	ldr	r0, [pc, #36]	; (23fb7b8 <setup+0x84>)
 23fb794:	f001 faea 	bl	23fcd6c <_ZN16Adafruit_SSD13063dimEb>
  ssd1306.clearDisplay();  
 23fb798:	4807      	ldr	r0, [pc, #28]	; (23fb7b8 <setup+0x84>)
 23fb79a:	f000 ff80 	bl	23fc69e <_ZN16Adafruit_SSD130612clearDisplayEv>
  ssd1306.display(); 
 23fb79e:	4806      	ldr	r0, [pc, #24]	; (23fb7b8 <setup+0x84>)

}
 23fb7a0:	b003      	add	sp, #12
 23fb7a2:	f85d eb04 	ldr.w	lr, [sp], #4
  ssd1306.display(); 
 23fb7a6:	f001 ba45 	b.w	23fcc34 <_ZN16Adafruit_SSD13067displayEv>
    RGB.color(0,0,0);
 23fb7aa:	2200      	movs	r2, #0
 23fb7ac:	4611      	mov	r1, r2
 23fb7ae:	4610      	mov	r0, r2
 23fb7b0:	e7ce      	b.n	23fb750 <setup+0x1c>
 23fb7b2:	bf00      	nop
 23fb7b4:	1007ae4e 	.word	0x1007ae4e
 23fb7b8:	1007ae70 	.word	0x1007ae70
 23fb7bc:	023ff0dd 	.word	0x023ff0dd

023fb7c0 <loop>:
1. press button to enter the tomato clock, it will at first publish a message to particle cloud. It will simply block all the other features as 30 minutes is a dead loop.
2. after clock finished. it will simply turn off the screen. 
3. it will periodically check the battery charge status and if there is a charge action. then the charge led will turns on.
4. it will periodically check if the WiFi connection is stable or not. if not the charge led will turns on.
*/
void loop(){
 23fb7c0:	b510      	push	{r4, lr}
 23fb7c2:	b086      	sub	sp, #24

#ifdef __cplusplus
extern "C" {
#endif

inline system_tick_t millis(void) { return HAL_Timer_Get_Milli_Seconds(); }
 23fb7c4:	f001 fd0c 	bl	23fd1e0 <HAL_Timer_Get_Milli_Seconds>

  static unsigned long button_scan_interval = 0;
  static unsigned long charge_scan_interval = 0;
  static unsigned long network_scan_interval = 0;

  if(millis()-button_scan_interval>=BTN_SCAN_INTERVAL){
 23fb7c8:	4c4b      	ldr	r4, [pc, #300]	; (23fb8f8 <loop+0x138>)
 23fb7ca:	6823      	ldr	r3, [r4, #0]
 23fb7cc:	1ac0      	subs	r0, r0, r3
 23fb7ce:	2827      	cmp	r0, #39	; 0x27
 23fb7d0:	d96d      	bls.n	23fb8ae <loop+0xee>
 23fb7d2:	f001 fd05 	bl	23fd1e0 <HAL_Timer_Get_Milli_Seconds>
    button_scan_interval = millis();
 23fb7d6:	6020      	str	r0, [r4, #0]
    uint8_t mid_btn = mid_button.pressAction();
 23fb7d8:	4848      	ldr	r0, [pc, #288]	; (23fb8fc <loop+0x13c>)
 23fb7da:	f000 f8f1 	bl	23fb9c0 <_ZN6Button11pressActionEv>
    if(mid_btn==1){
 23fb7de:	2801      	cmp	r0, #1
    uint8_t mid_btn = mid_button.pressAction();
 23fb7e0:	4604      	mov	r4, r0
    if(mid_btn==1){
 23fb7e2:	d164      	bne.n	23fb8ae <loop+0xee>
      Serial.println("middle button short pressed");
 23fb7e4:	f003 f978 	bl	23fead8 <_Z16_fetch_usbserialv>
 23fb7e8:	4945      	ldr	r1, [pc, #276]	; (23fb900 <loop+0x140>)
 23fb7ea:	f002 ff30 	bl	23fe64e <_ZN5Print7printlnEPKc>
      //around 30 minutes
      misc.ext_power_on(true);
 23fb7ee:	4621      	mov	r1, r4
 23fb7f0:	4844      	ldr	r0, [pc, #272]	; (23fb904 <loop+0x144>)
 23fb7f2:	f000 f94d 	bl	23fba90 <_ZN9MiscClass12ext_power_onEb>
      delay(200);
 23fb7f6:	20c8      	movs	r0, #200	; 0xc8
 23fb7f8:	f002 f9b4 	bl	23fdb64 <delay>
 23fb7fc:	f002 f846 	bl	23fd88c <spark_cloud_flag_connected>
      if(Particle.connected()){
 23fb800:	4604      	mov	r4, r0
 23fb802:	2800      	cmp	r0, #0
 23fb804:	d06a      	beq.n	23fb8dc <loop+0x11c>
        RGB.color(0,0,0);
 23fb806:	2200      	movs	r2, #0
 23fb808:	4611      	mov	r1, r2
 23fb80a:	4610      	mov	r0, r2
 23fb80c:	f002 ff88 	bl	23fe720 <_ZN8RGBClass5colorEiii>
inline particle::Flags<TagT, ValueT>::Flags(Flag<TagT, ValueT> flag) :
        val_(flag.value()) {
}

template<typename TagT, typename ValueT>
inline particle::Flags<TagT, ValueT>::Flags(ValueT val) :
 23fb810:	4b3d      	ldr	r3, [pc, #244]	; (23fb908 <loop+0x148>)
        return publish_event(eventName, eventData, eventData ? std::strlen(eventData) : 0, static_cast<int>(particle::ContentType::TEXT), ttl, flags1 | flags2);
 23fb812:	223c      	movs	r2, #60	; 0x3c
 23fb814:	781b      	ldrb	r3, [r3, #0]
 23fb816:	493d      	ldr	r1, [pc, #244]	; (23fb90c <loop+0x14c>)
 23fb818:	f88d 3008 	strb.w	r3, [sp, #8]
 23fb81c:	2300      	movs	r3, #0
 23fb81e:	a804      	add	r0, sp, #16
 23fb820:	e9cd 3200 	strd	r3, r2, [sp]
 23fb824:	2305      	movs	r3, #5
 23fb826:	4a3a      	ldr	r2, [pc, #232]	; (23fb910 <loop+0x150>)
 23fb828:	f002 fb40 	bl	23fdeac <_ZN10CloudClass13publish_eventEPKcS1_jiiN8particle5FlagsI15PublishFlagTypehEE>
      // Does not throw if __r._M_get_use_count() == 0, caller must check.
      explicit __shared_count(const __weak_count<_Lp>& __r, std::nothrow_t);

      ~__shared_count() noexcept
      {
	if (_M_pi != nullptr)
 23fb82c:	9c05      	ldr	r4, [sp, #20]
 23fb82e:	b17c      	cbz	r4, 23fb850 <loop+0x90>
      if (--_M_use_count == 0)
 23fb830:	6863      	ldr	r3, [r4, #4]
 23fb832:	3b01      	subs	r3, #1
 23fb834:	6063      	str	r3, [r4, #4]
 23fb836:	b95b      	cbnz	r3, 23fb850 <loop+0x90>
          _M_dispose();
 23fb838:	6823      	ldr	r3, [r4, #0]
 23fb83a:	4620      	mov	r0, r4
 23fb83c:	689b      	ldr	r3, [r3, #8]
 23fb83e:	4798      	blx	r3
          if (--_M_weak_count == 0)
 23fb840:	68a3      	ldr	r3, [r4, #8]
 23fb842:	3b01      	subs	r3, #1
 23fb844:	60a3      	str	r3, [r4, #8]
 23fb846:	b91b      	cbnz	r3, 23fb850 <loop+0x90>
            _M_destroy();
 23fb848:	6823      	ldr	r3, [r4, #0]
 23fb84a:	4620      	mov	r0, r4
 23fb84c:	68db      	ldr	r3, [r3, #12]
 23fb84e:	4798      	blx	r3
        Particle.connect();
        RGB.color(100,0,0);
      }

      //this need to be initialized everytime when the clock started
      if(!ssd1306.begin(SSD1306_SWITCHCAPVCC, 0x3c)){ 
 23fb850:	2301      	movs	r3, #1
 23fb852:	223c      	movs	r2, #60	; 0x3c
 23fb854:	2102      	movs	r1, #2
 23fb856:	482f      	ldr	r0, [pc, #188]	; (23fb914 <loop+0x154>)
 23fb858:	9300      	str	r3, [sp, #0]
 23fb85a:	f000 ff2f 	bl	23fc6bc <_ZN16Adafruit_SSD13065beginEhhbb>
 23fb85e:	b920      	cbnz	r0, 23fb86a <loop+0xaa>
        Serial.print("Couldn't find ssd1306");
 23fb860:	f003 f93a 	bl	23fead8 <_Z16_fetch_usbserialv>
 23fb864:	492c      	ldr	r1, [pc, #176]	; (23fb918 <loop+0x158>)
 23fb866:	f002 fedf 	bl	23fe628 <_ZN5Print5printEPKc>
      }
      //seems that dim mode is pretty bright to use.
      ssd1306.dim(true);
 23fb86a:	2101      	movs	r1, #1
 23fb86c:	4829      	ldr	r0, [pc, #164]	; (23fb914 <loop+0x154>)
 23fb86e:	f001 fa7d 	bl	23fcd6c <_ZN16Adafruit_SSD13063dimEb>
      ssd1306.clearDisplay();  
 23fb872:	4828      	ldr	r0, [pc, #160]	; (23fb914 <loop+0x154>)
 23fb874:	f000 ff13 	bl	23fc69e <_ZN16Adafruit_SSD130612clearDisplayEv>
      ssd1306.display(); 
 23fb878:	4826      	ldr	r0, [pc, #152]	; (23fb914 <loop+0x154>)
 23fb87a:	f001 f9db 	bl	23fcc34 <_ZN16Adafruit_SSD13067displayEv>

      oled.display_tomato_clock(1);
 23fb87e:	2101      	movs	r1, #1
 23fb880:	4826      	ldr	r0, [pc, #152]	; (23fb91c <loop+0x15c>)
 23fb882:	f000 f939 	bl	23fbaf8 <_ZN9OLEDClass20display_tomato_clockEh>
      tone(BUZZER,400,100);
 23fb886:	f44f 71c8 	mov.w	r1, #400	; 0x190
 23fb88a:	2264      	movs	r2, #100	; 0x64
 23fb88c:	200e      	movs	r0, #14
 23fb88e:	f003 f859 	bl	23fe944 <tone>
      ssd1306.clearDisplay();
 23fb892:	4820      	ldr	r0, [pc, #128]	; (23fb914 <loop+0x154>)
 23fb894:	f000 ff03 	bl	23fc69e <_ZN16Adafruit_SSD130612clearDisplayEv>
      ssd1306.display();
 23fb898:	481e      	ldr	r0, [pc, #120]	; (23fb914 <loop+0x154>)
 23fb89a:	f001 f9cb 	bl	23fcc34 <_ZN16Adafruit_SSD13067displayEv>
      delay(1000);
 23fb89e:	f44f 707a 	mov.w	r0, #1000	; 0x3e8
 23fb8a2:	f002 f95f 	bl	23fdb64 <delay>
      misc.ext_power_on(false);
 23fb8a6:	2100      	movs	r1, #0
 23fb8a8:	4816      	ldr	r0, [pc, #88]	; (23fb904 <loop+0x144>)
 23fb8aa:	f000 f8f1 	bl	23fba90 <_ZN9MiscClass12ext_power_onEb>
 23fb8ae:	f001 fc97 	bl	23fd1e0 <HAL_Timer_Get_Milli_Seconds>
    }
  }
  
  if(millis()-network_scan_interval>= 60000){
 23fb8b2:	4c1b      	ldr	r4, [pc, #108]	; (23fb920 <loop+0x160>)
 23fb8b4:	6823      	ldr	r3, [r4, #0]
 23fb8b6:	1ac0      	subs	r0, r0, r3
 23fb8b8:	f64e 235f 	movw	r3, #59999	; 0xea5f
 23fb8bc:	4298      	cmp	r0, r3
 23fb8be:	d919      	bls.n	23fb8f4 <loop+0x134>
 23fb8c0:	f001 fc8e 	bl	23fd1e0 <HAL_Timer_Get_Milli_Seconds>
    network_scan_interval = millis();
 23fb8c4:	6020      	str	r0, [r4, #0]
    static bool connected(void) { return spark_cloud_flag_connected(); }
 23fb8c6:	f001 ffe1 	bl	23fd88c <spark_cloud_flag_connected>
    if(!Particle.connected()){
 23fb8ca:	4602      	mov	r2, r0
 23fb8cc:	b970      	cbnz	r0, 23fb8ec <loop+0x12c>
      RGB.color(100,0,0);
 23fb8ce:	4601      	mov	r1, r0
 23fb8d0:	2064      	movs	r0, #100	; 0x64
    }else{
      RGB.color(0,0,0);
    }
  }
}
 23fb8d2:	b006      	add	sp, #24
 23fb8d4:	e8bd 4010 	ldmia.w	sp!, {r4, lr}
      RGB.color(0,0,0);
 23fb8d8:	f002 bf22 	b.w	23fe720 <_ZN8RGBClass5colorEiii>
    static bool disconnected(void) { return !connected(); }
    static void connect(void) {
        spark_cloud_flag_connect();
 23fb8dc:	f001 ffc8 	bl	23fd870 <spark_cloud_flag_connect>
        RGB.color(100,0,0);
 23fb8e0:	4622      	mov	r2, r4
 23fb8e2:	4621      	mov	r1, r4
 23fb8e4:	2064      	movs	r0, #100	; 0x64
 23fb8e6:	f002 ff1b 	bl	23fe720 <_ZN8RGBClass5colorEiii>
 23fb8ea:	e7b1      	b.n	23fb850 <loop+0x90>
      RGB.color(0,0,0);
 23fb8ec:	2200      	movs	r2, #0
 23fb8ee:	4611      	mov	r1, r2
 23fb8f0:	4610      	mov	r0, r2
 23fb8f2:	e7ee      	b.n	23fb8d2 <loop+0x112>
}
 23fb8f4:	b006      	add	sp, #24
 23fb8f6:	bd10      	pop	{r4, pc}
 23fb8f8:	1007ae2c 	.word	0x1007ae2c
 23fb8fc:	1007ae4d 	.word	0x1007ae4d
 23fb900:	023ff0f3 	.word	0x023ff0f3
 23fb904:	1007ae4e 	.word	0x1007ae4e
 23fb908:	1007ae28 	.word	0x1007ae28
 23fb90c:	023ff115 	.word	0x023ff115
 23fb910:	023ff10f 	.word	0x023ff10f
 23fb914:	1007ae70 	.word	0x1007ae70
 23fb918:	023ff0dd 	.word	0x023ff0dd
 23fb91c:	1007ae4f 	.word	0x1007ae4f
 23fb920:	1007ae30 	.word	0x1007ae30

023fb924 <_GLOBAL__sub_I_SystemMode>:
 23fb924:	b538      	push	{r3, r4, r5, lr}
        val_(val) {
 23fb926:	2501      	movs	r5, #1

class SystemSleepResult {
public:
    SystemSleepResult()
            : wakeupSource_(nullptr),
              error_(SYSTEM_ERROR_NONE) {
 23fb928:	2400      	movs	r4, #0
 23fb92a:	4b16      	ldr	r3, [pc, #88]	; (23fb984 <_GLOBAL__sub_I_SystemMode+0x60>)
    SleepResult() {}
 23fb92c:	4a16      	ldr	r2, [pc, #88]	; (23fb988 <_GLOBAL__sub_I_SystemMode+0x64>)
 23fb92e:	701d      	strb	r5, [r3, #0]
              error_(SYSTEM_ERROR_NONE) {
 23fb930:	4b16      	ldr	r3, [pc, #88]	; (23fb98c <_GLOBAL__sub_I_SystemMode+0x68>)

class SystemClass {
public:

    SystemClass(System_Mode_TypeDef mode = DEFAULT) {
        set_system_mode(mode);
 23fb932:	4628      	mov	r0, r5
    SleepResult() {}
 23fb934:	609a      	str	r2, [r3, #8]
              error_(SYSTEM_ERROR_NONE) {
 23fb936:	e9c3 4400 	strd	r4, r4, [r3]
        set_system_mode(mode);
 23fb93a:	f001 ff37 	bl	23fd7ac <set_system_mode>
SYSTEM_THREAD(DISABLED); //make sure app wil not start to work until the particle connecetion is done
 23fb93e:	4621      	mov	r1, r4
 23fb940:	4620      	mov	r0, r4
 23fb942:	f001 ff4f 	bl	23fd7e4 <system_thread_set_state>
Adafruit_SHT31 sht31;
 23fb946:	f003 fa67 	bl	23fee18 <_Z19__fetch_global_Wirev>
 23fb94a:	4601      	mov	r1, r0
 23fb94c:	4810      	ldr	r0, [pc, #64]	; (23fb990 <_GLOBAL__sub_I_SystemMode+0x6c>)
 23fb94e:	f000 fce9 	bl	23fc324 <_ZN14Adafruit_SHT31C1EP7TwoWire>
Button left_button(BTN_LEFT);
 23fb952:	210f      	movs	r1, #15
 23fb954:	480f      	ldr	r0, [pc, #60]	; (23fb994 <_GLOBAL__sub_I_SystemMode+0x70>)
 23fb956:	f000 f829 	bl	23fb9ac <_ZN6ButtonC1Eh>
Button right_button(BTN_RIGHT);
 23fb95a:	2110      	movs	r1, #16
 23fb95c:	480e      	ldr	r0, [pc, #56]	; (23fb998 <_GLOBAL__sub_I_SystemMode+0x74>)
 23fb95e:	f000 f825 	bl	23fb9ac <_ZN6ButtonC1Eh>
Button mid_button(BTN_MID);
 23fb962:	210a      	movs	r1, #10
 23fb964:	480d      	ldr	r0, [pc, #52]	; (23fb99c <_GLOBAL__sub_I_SystemMode+0x78>)
 23fb966:	f000 f821 	bl	23fb9ac <_ZN6ButtonC1Eh>
PMS7003 pms7003;
 23fb96a:	480d      	ldr	r0, [pc, #52]	; (23fb9a0 <_GLOBAL__sub_I_SystemMode+0x7c>)
 23fb96c:	f000 f8ea 	bl	23fbb44 <_ZN7PMS7003C1Ev>
ENABLE_ENUM_CLASS_BITWISE(SystemSleepNetworkFlag);

class SystemSleepConfigurationHelper {
public:
    SystemSleepConfigurationHelper(const hal_sleep_config_t* config)
        : config_(config) {
 23fb970:	4b0c      	ldr	r3, [pc, #48]	; (23fb9a4 <_GLOBAL__sub_I_SystemMode+0x80>)
 23fb972:	1d1a      	adds	r2, r3, #4
 23fb974:	601a      	str	r2, [r3, #0]
public:
    // Constructor
    SystemSleepConfiguration()
            : SystemSleepConfigurationHelper(&config_),
              config_(),
              valid_(true) {
 23fb976:	e9c3 4402 	strd	r4, r4, [r3, #8]
        config_.size = sizeof(hal_sleep_config_t);
 23fb97a:	4a0b      	ldr	r2, [pc, #44]	; (23fb9a8 <_GLOBAL__sub_I_SystemMode+0x84>)
              valid_(true) {
 23fb97c:	611c      	str	r4, [r3, #16]
        config_.size = sizeof(hal_sleep_config_t);
 23fb97e:	605a      	str	r2, [r3, #4]
              valid_(true) {
 23fb980:	751d      	strb	r5, [r3, #20]
}
 23fb982:	bd38      	pop	{r3, r4, r5, pc}
 23fb984:	1007ae28 	.word	0x1007ae28
 23fb988:	ffff0000 	.word	0xffff0000
 23fb98c:	1007ae1c 	.word	0x1007ae1c
 23fb990:	1007ae54 	.word	0x1007ae54
 23fb994:	1007ae4c 	.word	0x1007ae4c
 23fb998:	1007ae51 	.word	0x1007ae51
 23fb99c:	1007ae4d 	.word	0x1007ae4d
 23fb9a0:	1007ae50 	.word	0x1007ae50
 23fb9a4:	1007ae34 	.word	0x1007ae34
 23fb9a8:	00030010 	.word	0x00030010

023fb9ac <_ZN6ButtonC1Eh>:

#include "button.h"



Button::Button(uint8_t pin){
 23fb9ac:	b538      	push	{r3, r4, r5, lr}
 23fb9ae:	460d      	mov	r5, r1
 23fb9b0:	4604      	mov	r4, r0
    pinMode(pin,INPUT);
 23fb9b2:	2100      	movs	r1, #0
 23fb9b4:	4628      	mov	r0, r5
 23fb9b6:	f003 f9d7 	bl	23fed68 <pinMode>
    _pin = pin;
}
 23fb9ba:	4620      	mov	r0, r4
    _pin = pin;
 23fb9bc:	7025      	strb	r5, [r4, #0]
}
 23fb9be:	bd38      	pop	{r3, r4, r5, pc}

023fb9c0 <_ZN6Button11pressActionEv>:

//short press will return 1
//long press will return 2
unsigned char Button::pressAction(){
 23fb9c0:	b538      	push	{r3, r4, r5, lr}
    static unsigned char stage = 0;
    static unsigned char button_status = 0;
    static unsigned long long_press_timeout = 0;
    switch(stage){
 23fb9c2:	4c1d      	ldr	r4, [pc, #116]	; (23fba38 <_ZN6Button11pressActionEv+0x78>)
 23fb9c4:	4d1d      	ldr	r5, [pc, #116]	; (23fba3c <_ZN6Button11pressActionEv+0x7c>)
 23fb9c6:	7823      	ldrb	r3, [r4, #0]
 23fb9c8:	2b03      	cmp	r3, #3
 23fb9ca:	d80b      	bhi.n	23fb9e4 <_ZN6Button11pressActionEv+0x24>
 23fb9cc:	e8df f003 	tbb	[pc, r3]
 23fb9d0:	2c170c02 	.word	0x2c170c02
        case 0:
            if(digitalRead(_pin)==0){
 23fb9d4:	7800      	ldrb	r0, [r0, #0]
 23fb9d6:	f003 f9f1 	bl	23fedbc <digitalRead>
 23fb9da:	b908      	cbnz	r0, 23fb9e0 <_ZN6Button11pressActionEv+0x20>
                stage = 1;  
 23fb9dc:	2301      	movs	r3, #1
 23fb9de:	7023      	strb	r3, [r4, #0]
            }   
            button_status = 0; 
 23fb9e0:	2300      	movs	r3, #0
            button_status = 0;
            break;
        case 2:
            if(digitalRead(_pin)){   //go to initial stage when released, otherwise just stay in this stage.
                stage = 0;
                button_status = 1;      //short press
 23fb9e2:	702b      	strb	r3, [r5, #0]
            break;
        default:
            break;
    }
    return button_status;
}
 23fb9e4:	7828      	ldrb	r0, [r5, #0]
 23fb9e6:	bd38      	pop	{r3, r4, r5, pc}
            if(digitalRead(_pin)==0){      //a valid press action
 23fb9e8:	7800      	ldrb	r0, [r0, #0]
 23fb9ea:	f003 f9e7 	bl	23fedbc <digitalRead>
 23fb9ee:	bb00      	cbnz	r0, 23fba32 <_ZN6Button11pressActionEv+0x72>
                stage = 2;
 23fb9f0:	2302      	movs	r3, #2
 23fb9f2:	7023      	strb	r3, [r4, #0]
 23fb9f4:	f001 fbf4 	bl	23fd1e0 <HAL_Timer_Get_Milli_Seconds>
                long_press_timeout = millis();  //start to record if there is a long press action for middle button
 23fb9f8:	4b11      	ldr	r3, [pc, #68]	; (23fba40 <_ZN6Button11pressActionEv+0x80>)
 23fb9fa:	6018      	str	r0, [r3, #0]
 23fb9fc:	e7f0      	b.n	23fb9e0 <_ZN6Button11pressActionEv+0x20>
            if(digitalRead(_pin)){   //go to initial stage when released, otherwise just stay in this stage.
 23fb9fe:	7800      	ldrb	r0, [r0, #0]
 23fba00:	f003 f9dc 	bl	23fedbc <digitalRead>
 23fba04:	b118      	cbz	r0, 23fba0e <_ZN6Button11pressActionEv+0x4e>
                stage = 0;
 23fba06:	2300      	movs	r3, #0
 23fba08:	7023      	strb	r3, [r4, #0]
                button_status = 1;      //short press
 23fba0a:	2301      	movs	r3, #1
 23fba0c:	e7e9      	b.n	23fb9e2 <_ZN6Button11pressActionEv+0x22>
 23fba0e:	f001 fbe7 	bl	23fd1e0 <HAL_Timer_Get_Milli_Seconds>
                if(millis()-long_press_timeout>=2000){
 23fba12:	4b0b      	ldr	r3, [pc, #44]	; (23fba40 <_ZN6Button11pressActionEv+0x80>)
 23fba14:	681b      	ldr	r3, [r3, #0]
 23fba16:	1ac0      	subs	r0, r0, r3
 23fba18:	f5b0 6ffa 	cmp.w	r0, #2000	; 0x7d0
 23fba1c:	d3e2      	bcc.n	23fb9e4 <_ZN6Button11pressActionEv+0x24>
                    button_status = 2;   //long press 
 23fba1e:	2302      	movs	r3, #2
 23fba20:	702b      	strb	r3, [r5, #0]
                    stage = 3;
 23fba22:	2303      	movs	r3, #3
 23fba24:	7023      	strb	r3, [r4, #0]
 23fba26:	e7dd      	b.n	23fb9e4 <_ZN6Button11pressActionEv+0x24>
            if(digitalRead(_pin)){        //finally released.
 23fba28:	7800      	ldrb	r0, [r0, #0]
 23fba2a:	f003 f9c7 	bl	23fedbc <digitalRead>
 23fba2e:	2800      	cmp	r0, #0
 23fba30:	d0d6      	beq.n	23fb9e0 <_ZN6Button11pressActionEv+0x20>
                stage = 0;      //not a valid action. go back to original stage.
 23fba32:	2300      	movs	r3, #0
 23fba34:	e7d3      	b.n	23fb9de <_ZN6Button11pressActionEv+0x1e>
 23fba36:	bf00      	nop
 23fba38:	1007ae6c 	.word	0x1007ae6c
 23fba3c:	1007ae64 	.word	0x1007ae64
 23fba40:	1007ae68 	.word	0x1007ae68

023fba44 <_ZN9MiscClass9initiaizeEv>:

#include "misc.h"

void MiscClass::initiaize(void){
 23fba44:	b508      	push	{r3, lr}
    pinMode(CHARGE,INPUT_PULLUP);
 23fba46:	2102      	movs	r1, #2
 23fba48:	2015      	movs	r0, #21
 23fba4a:	f003 f98d 	bl	23fed68 <pinMode>
    pinMode(USB_DET,INPUT);
 23fba4e:	2100      	movs	r1, #0
 23fba50:	200c      	movs	r0, #12
 23fba52:	f003 f989 	bl	23fed68 <pinMode>
    pinMode(IMU_INT,INPUT);
 23fba56:	2100      	movs	r1, #0
 23fba58:	2002      	movs	r0, #2
 23fba5a:	f003 f985 	bl	23fed68 <pinMode>
    pinMode(BUZZER,OUTPUT);
 23fba5e:	2101      	movs	r1, #1
 23fba60:	200e      	movs	r0, #14
 23fba62:	f003 f981 	bl	23fed68 <pinMode>
    digitalWrite(BUZZER,LOW);
 23fba66:	2100      	movs	r1, #0
 23fba68:	200e      	movs	r0, #14
 23fba6a:	f003 f98e 	bl	23fed8a <digitalWrite>
    pinMode(DCDC_MODE,OUTPUT);
 23fba6e:	2101      	movs	r1, #1
 23fba70:	2014      	movs	r0, #20
 23fba72:	f003 f979 	bl	23fed68 <pinMode>
    digitalWrite(DCDC_MODE,LOW);
}
 23fba76:	e8bd 4008 	ldmia.w	sp!, {r3, lr}
    digitalWrite(DCDC_MODE,LOW);
 23fba7a:	2100      	movs	r1, #0
 23fba7c:	2014      	movs	r0, #20
 23fba7e:	f003 b984 	b.w	23fed8a <digitalWrite>

023fba82 <_ZN9MiscClass9dcdc_modeEh>:
void MiscClass::dcdc_mode(uint8_t mode){    
    if(mode==DCDC_PSM){
 23fba82:	2901      	cmp	r1, #1
        digitalWrite(DCDC_MODE,LOW);
 23fba84:	bf0c      	ite	eq
 23fba86:	2100      	moveq	r1, #0
    }else{
        digitalWrite(DCDC_MODE,HIGH);
 23fba88:	2101      	movne	r1, #1
 23fba8a:	2014      	movs	r0, #20
 23fba8c:	f003 b97d 	b.w	23fed8a <digitalWrite>

023fba90 <_ZN9MiscClass12ext_power_onEb>:
    }
}

void MiscClass::ext_power_on(bool stat){
    if(stat){
 23fba90:	b101      	cbz	r1, 23fba94 <_ZN9MiscClass12ext_power_onEb+0x4>
        digitalWrite(PERI_EN,HIGH);
 23fba92:	2101      	movs	r1, #1
    }else{
        digitalWrite(PERI_EN,LOW);
 23fba94:	2012      	movs	r0, #18
 23fba96:	f003 b978 	b.w	23fed8a <digitalWrite>
	...

023fba9c <_GLOBAL__sub_I_ssd1306>:
      ssd1306.drawPixel(column, row, SSD1306_WHITE);
      ssd1306.display();
      delay(401);   //401
    }
  }
}
 23fba9c:	b51f      	push	{r0, r1, r2, r3, r4, lr}
Adafruit_SSD1306 ssd1306 = Adafruit_SSD1306(128, 32, &Wire);
 23fba9e:	f003 f9bb 	bl	23fee18 <_Z19__fetch_global_Wirev>
 23fbaa2:	4a08      	ldr	r2, [pc, #32]	; (23fbac4 <_GLOBAL__sub_I_ssd1306+0x28>)
 23fbaa4:	4908      	ldr	r1, [pc, #32]	; (23fbac8 <_GLOBAL__sub_I_ssd1306+0x2c>)
 23fbaa6:	4603      	mov	r3, r0
 23fbaa8:	e9cd 2101 	strd	r2, r1, [sp, #4]
 23fbaac:	f04f 32ff 	mov.w	r2, #4294967295	; 0xffffffff
 23fbab0:	2180      	movs	r1, #128	; 0x80
 23fbab2:	9200      	str	r2, [sp, #0]
 23fbab4:	4805      	ldr	r0, [pc, #20]	; (23fbacc <_GLOBAL__sub_I_ssd1306+0x30>)
 23fbab6:	2220      	movs	r2, #32
 23fbab8:	f000 fcf6 	bl	23fc4a8 <_ZN16Adafruit_SSD1306C1EhhP7TwoWireamm>
}
 23fbabc:	b005      	add	sp, #20
 23fbabe:	f85d fb04 	ldr.w	pc, [sp], #4
 23fbac2:	bf00      	nop
 23fbac4:	00061a80 	.word	0x00061a80
 23fbac8:	000186a0 	.word	0x000186a0
 23fbacc:	1007ae70 	.word	0x1007ae70

023fbad0 <_ZN9OLEDClass22display_darw_rectangleEv>:
void OLEDClass::display_darw_rectangle(){
 23fbad0:	b507      	push	{r0, r1, r2, lr}
  ssd1306.drawRect(0,0,128,32,SSD1306_WHITE);
 23fbad2:	2320      	movs	r3, #32
 23fbad4:	2201      	movs	r2, #1
 23fbad6:	e9cd 3200 	strd	r3, r2, [sp]
 23fbada:	2200      	movs	r2, #0
 23fbadc:	2380      	movs	r3, #128	; 0x80
 23fbade:	4611      	mov	r1, r2
 23fbae0:	4804      	ldr	r0, [pc, #16]	; (23fbaf4 <_ZN9OLEDClass22display_darw_rectangleEv+0x24>)
 23fbae2:	f000 f976 	bl	23fbdd2 <_ZN12Adafruit_GFX8drawRectEsssst>
  ssd1306.display(); // actually display all of the above
 23fbae6:	4803      	ldr	r0, [pc, #12]	; (23fbaf4 <_ZN9OLEDClass22display_darw_rectangleEv+0x24>)
}
 23fbae8:	b003      	add	sp, #12
 23fbaea:	f85d eb04 	ldr.w	lr, [sp], #4
  ssd1306.display(); // actually display all of the above
 23fbaee:	f001 b8a1 	b.w	23fcc34 <_ZN16Adafruit_SSD13067displayEv>
 23fbaf2:	bf00      	nop
 23fbaf4:	1007ae70 	.word	0x1007ae70

023fbaf8 <_ZN9OLEDClass20display_tomato_clockEh>:
void OLEDClass::display_tomato_clock(uint8_t time_in_minutes){ 
 23fbaf8:	b570      	push	{r4, r5, r6, lr}
 23fbafa:	4604      	mov	r4, r0
  for(char column=1;column<128;column++){   //128
 23fbafc:	2501      	movs	r5, #1
  ssd1306.clearDisplay();
 23fbafe:	4810      	ldr	r0, [pc, #64]	; (23fbb40 <_ZN9OLEDClass20display_tomato_clockEh+0x48>)
 23fbb00:	f000 fdcd 	bl	23fc69e <_ZN16Adafruit_SSD130612clearDisplayEv>
  display_darw_rectangle();
 23fbb04:	4620      	mov	r0, r4
 23fbb06:	f7ff ffe3 	bl	23fbad0 <_ZN9OLEDClass22display_darw_rectangleEv>
    for(char row =1;row<32;row++){
 23fbb0a:	462c      	mov	r4, r5
      ssd1306.drawPixel(column, row, SSD1306_WHITE);
 23fbb0c:	4e0c      	ldr	r6, [pc, #48]	; (23fbb40 <_ZN9OLEDClass20display_tomato_clockEh+0x48>)
 23fbb0e:	4622      	mov	r2, r4
 23fbb10:	2301      	movs	r3, #1
 23fbb12:	4629      	mov	r1, r5
 23fbb14:	4630      	mov	r0, r6
 23fbb16:	f000 fc65 	bl	23fc3e4 <_ZN16Adafruit_SSD13069drawPixelEsst>
    for(char row =1;row<32;row++){
 23fbb1a:	3401      	adds	r4, #1
      ssd1306.display();
 23fbb1c:	4630      	mov	r0, r6
 23fbb1e:	f001 f889 	bl	23fcc34 <_ZN16Adafruit_SSD13067displayEv>
    for(char row =1;row<32;row++){
 23fbb22:	b2e4      	uxtb	r4, r4
      delay(401);   //401
 23fbb24:	f240 1091 	movw	r0, #401	; 0x191
 23fbb28:	f002 f81c 	bl	23fdb64 <delay>
    for(char row =1;row<32;row++){
 23fbb2c:	2c20      	cmp	r4, #32
 23fbb2e:	d1ee      	bne.n	23fbb0e <_ZN9OLEDClass20display_tomato_clockEh+0x16>
  for(char column=1;column<128;column++){   //128
 23fbb30:	1c6b      	adds	r3, r5, #1
 23fbb32:	b2dd      	uxtb	r5, r3
 23fbb34:	061b      	lsls	r3, r3, #24
 23fbb36:	d500      	bpl.n	23fbb3a <_ZN9OLEDClass20display_tomato_clockEh+0x42>
}
 23fbb38:	bd70      	pop	{r4, r5, r6, pc}
    for(char row =1;row<32;row++){
 23fbb3a:	2401      	movs	r4, #1
 23fbb3c:	e7e7      	b.n	23fbb0e <_ZN9OLEDClass20display_tomato_clockEh+0x16>
 23fbb3e:	bf00      	nop
 23fbb40:	1007ae70 	.word	0x1007ae70

023fbb44 <_ZN7PMS7003C1Ev>:

struct pm_struct pm_air_struct;



PMS7003::PMS7003(void){
 23fbb44:	b510      	push	{r4, lr}
 23fbb46:	4604      	mov	r4, r0
    pinMode(PMS7003_RST,OUTPUT);
 23fbb48:	2101      	movs	r1, #1
 23fbb4a:	2006      	movs	r0, #6
 23fbb4c:	f003 f90c 	bl	23fed68 <pinMode>
    digitalWrite(PMS7003_RST,LOW);
 23fbb50:	2100      	movs	r1, #0
 23fbb52:	2006      	movs	r0, #6
 23fbb54:	f003 f919 	bl	23fed8a <digitalWrite>
    pinMode(PERI_EN,OUTPUT);
 23fbb58:	2101      	movs	r1, #1
 23fbb5a:	2012      	movs	r0, #18
 23fbb5c:	f003 f904 	bl	23fed68 <pinMode>
    digitalWrite(PERI_EN,LOW);
 23fbb60:	2100      	movs	r1, #0
 23fbb62:	2012      	movs	r0, #18
 23fbb64:	f003 f911 	bl	23fed8a <digitalWrite>
}
 23fbb68:	4620      	mov	r0, r4
 23fbb6a:	bd10      	pop	{r4, pc}

023fbb6c <_ZN12Adafruit_GFX9writeLineEsssst>:
    @param    y1  End point y coordinate
    @param    color 16-bit 5-6-5 Color to draw with
*/
/**************************************************************************/
void Adafruit_GFX::writeLine(int16_t x0, int16_t y0, int16_t x1, int16_t y1,
                             uint16_t color) {
 23fbb6c:	e92d 4ff0 	stmdb	sp!, {r4, r5, r6, r7, r8, r9, sl, fp, lr}
 23fbb70:	461f      	mov	r7, r3
 23fbb72:	b085      	sub	sp, #20
 23fbb74:	f9bd 8038 	ldrsh.w	r8, [sp, #56]	; 0x38
#if defined(ESP8266)
  yield();
#endif
  int16_t steep = abs(y1 - y0) > abs(x1 - x0);
 23fbb78:	eba7 0a01 	sub.w	sl, r7, r1
 23fbb7c:	eba8 0902 	sub.w	r9, r8, r2
 23fbb80:	f1b9 0f00 	cmp.w	r9, #0
 23fbb84:	bfb8      	it	lt
 23fbb86:	f1c9 0900 	rsblt	r9, r9, #0
 23fbb8a:	f1ba 0f00 	cmp.w	sl, #0
 23fbb8e:	bfb8      	it	lt
 23fbb90:	f1ca 0a00 	rsblt	sl, sl, #0
  if (steep) {
 23fbb94:	45d1      	cmp	r9, sl
                             uint16_t color) {
 23fbb96:	4683      	mov	fp, r0
 23fbb98:	460c      	mov	r4, r1
 23fbb9a:	4615      	mov	r5, r2
 23fbb9c:	f8bd 303c 	ldrh.w	r3, [sp, #60]	; 0x3c
  if (steep) {
 23fbba0:	dd04      	ble.n	23fbbac <_ZN12Adafruit_GFX9writeLineEsssst+0x40>
 23fbba2:	463a      	mov	r2, r7
    _swap_int16_t(x0, y0);
 23fbba4:	462c      	mov	r4, r5
    _swap_int16_t(x1, y1);
 23fbba6:	4647      	mov	r7, r8
    _swap_int16_t(x0, y0);
 23fbba8:	460d      	mov	r5, r1
    _swap_int16_t(x1, y1);
 23fbbaa:	4690      	mov	r8, r2
  }

  if (x0 > x1) {
 23fbbac:	42bc      	cmp	r4, r7
 23fbbae:	dd05      	ble.n	23fbbbc <_ZN12Adafruit_GFX9writeLineEsssst+0x50>
 23fbbb0:	462a      	mov	r2, r5
    _swap_int16_t(x0, x1);
    _swap_int16_t(y0, y1);
 23fbbb2:	4645      	mov	r5, r8
 23fbbb4:	4690      	mov	r8, r2
  if (x0 > x1) {
 23fbbb6:	4622      	mov	r2, r4
 23fbbb8:	463c      	mov	r4, r7
 23fbbba:	4617      	mov	r7, r2
  }

  int16_t dx, dy;
  dx = x1 - x0;
 23fbbbc:	1b3e      	subs	r6, r7, r4
 23fbbbe:	b2b2      	uxth	r2, r6
 23fbbc0:	9200      	str	r2, [sp, #0]
  dy = abs(y1 - y0);
 23fbbc2:	eba8 0205 	sub.w	r2, r8, r5
 23fbbc6:	ea82 71e2 	eor.w	r1, r2, r2, asr #31
 23fbbca:	eba1 71e2 	sub.w	r1, r1, r2, asr #31

  int16_t err = dx / 2;
 23fbbce:	f3c6 32c0 	ubfx	r2, r6, #15, #1
 23fbbd2:	fa02 f686 	sxtah	r6, r2, r6
  int16_t ystep;

  if (y0 < y1) {
    ystep = 1;
  } else {
    ystep = -1;
 23fbbd6:	4545      	cmp	r5, r8
 23fbbd8:	bfb4      	ite	lt
 23fbbda:	2201      	movlt	r2, #1
 23fbbdc:	f04f 32ff 	movge.w	r2, #4294967295	; 0xffffffff
  dy = abs(y1 - y0);
 23fbbe0:	9101      	str	r1, [sp, #4]
  int16_t err = dx / 2;
 23fbbe2:	1076      	asrs	r6, r6, #1
    ystep = -1;
 23fbbe4:	9202      	str	r2, [sp, #8]
  }

  for (; x0 <= x1; x0++) {
 23fbbe6:	42bc      	cmp	r4, r7
 23fbbe8:	dc1c      	bgt.n	23fbc24 <_ZN12Adafruit_GFX9writeLineEsssst+0xb8>
    if (steep) {
      writePixel(y0, x0, color);
 23fbbea:	f8db 2000 	ldr.w	r2, [fp]
    if (steep) {
 23fbbee:	45d1      	cmp	r9, sl
      writePixel(y0, x0, color);
 23fbbf0:	f8d2 8018 	ldr.w	r8, [r2, #24]
 23fbbf4:	bfc7      	ittee	gt
 23fbbf6:	4629      	movgt	r1, r5
 23fbbf8:	4622      	movgt	r2, r4
    } else {
      writePixel(x0, y0, color);
 23fbbfa:	462a      	movle	r2, r5
 23fbbfc:	4621      	movle	r1, r4
      writePixel(y0, x0, color);
 23fbbfe:	9303      	str	r3, [sp, #12]
      writePixel(x0, y0, color);
 23fbc00:	4658      	mov	r0, fp
 23fbc02:	47c0      	blx	r8
    }
    err -= dy;
 23fbc04:	9a01      	ldr	r2, [sp, #4]
      writePixel(x0, y0, color);
 23fbc06:	9b03      	ldr	r3, [sp, #12]
    err -= dy;
 23fbc08:	1ab6      	subs	r6, r6, r2
 23fbc0a:	b2b1      	uxth	r1, r6
 23fbc0c:	b236      	sxth	r6, r6
    if (err < 0) {
 23fbc0e:	2e00      	cmp	r6, #0
 23fbc10:	da05      	bge.n	23fbc1e <_ZN12Adafruit_GFX9writeLineEsssst+0xb2>
      y0 += ystep;
 23fbc12:	9a02      	ldr	r2, [sp, #8]
 23fbc14:	4415      	add	r5, r2
      err += dx;
 23fbc16:	9a00      	ldr	r2, [sp, #0]
      y0 += ystep;
 23fbc18:	b22d      	sxth	r5, r5
      err += dx;
 23fbc1a:	1856      	adds	r6, r2, r1
 23fbc1c:	b236      	sxth	r6, r6
  for (; x0 <= x1; x0++) {
 23fbc1e:	3401      	adds	r4, #1
 23fbc20:	b224      	sxth	r4, r4
 23fbc22:	e7e0      	b.n	23fbbe6 <_ZN12Adafruit_GFX9writeLineEsssst+0x7a>
    }
  }
}
 23fbc24:	b005      	add	sp, #20
 23fbc26:	e8bd 8ff0 	ldmia.w	sp!, {r4, r5, r6, r7, r8, r9, sl, fp, pc}

023fbc2a <_ZN12Adafruit_GFX10startWriteEv>:
/**************************************************************************/
/*!
   @brief    Start a display-writing routine, overwrite in subclasses.
*/
/**************************************************************************/
void Adafruit_GFX::startWrite() {}
 23fbc2a:	4770      	bx	lr

023fbc2c <_ZN12Adafruit_GFX10writePixelEsst>:
    @param   x   x coordinate
    @param   y   y coordinate
   @param    color 16-bit 5-6-5 Color to fill with
*/
/**************************************************************************/
void Adafruit_GFX::writePixel(int16_t x, int16_t y, uint16_t color) {
 23fbc2c:	b410      	push	{r4}
  drawPixel(x, y, color);
 23fbc2e:	6804      	ldr	r4, [r0, #0]
 23fbc30:	6924      	ldr	r4, [r4, #16]
 23fbc32:	46a4      	mov	ip, r4
}
 23fbc34:	f85d 4b04 	ldr.w	r4, [sp], #4
  drawPixel(x, y, color);
 23fbc38:	4760      	bx	ip

023fbc3a <_ZN12Adafruit_GFX14writeFastVLineEssst>:
    @param    h   Height in pixels
   @param    color 16-bit 5-6-5 Color to fill with
*/
/**************************************************************************/
void Adafruit_GFX::writeFastVLine(int16_t x, int16_t y, int16_t h,
                                  uint16_t color) {
 23fbc3a:	b430      	push	{r4, r5}
 23fbc3c:	f8bd 5008 	ldrh.w	r5, [sp, #8]
  // Overwrite in subclasses if startWrite is defined!
  // Can be just writeLine(x, y, x, y+h-1, color);
  // or writeFillRect(x, y, 1, h, color);
  drawFastVLine(x, y, h, color);
 23fbc40:	6804      	ldr	r4, [r0, #0]
 23fbc42:	9502      	str	r5, [sp, #8]
 23fbc44:	6ba4      	ldr	r4, [r4, #56]	; 0x38
 23fbc46:	46a4      	mov	ip, r4
}
 23fbc48:	bc30      	pop	{r4, r5}
  drawFastVLine(x, y, h, color);
 23fbc4a:	4760      	bx	ip

023fbc4c <_ZN12Adafruit_GFX14writeFastHLineEssst>:
    @param    w   Width in pixels
   @param    color 16-bit 5-6-5 Color to fill with
*/
/**************************************************************************/
void Adafruit_GFX::writeFastHLine(int16_t x, int16_t y, int16_t w,
                                  uint16_t color) {
 23fbc4c:	b430      	push	{r4, r5}
 23fbc4e:	f8bd 5008 	ldrh.w	r5, [sp, #8]
  // Overwrite in subclasses if startWrite is defined!
  // Example: writeLine(x, y, x+w-1, y, color);
  // or writeFillRect(x, y, w, 1, color);
  drawFastHLine(x, y, w, color);
 23fbc52:	6804      	ldr	r4, [r0, #0]
 23fbc54:	9502      	str	r5, [sp, #8]
 23fbc56:	6be4      	ldr	r4, [r4, #60]	; 0x3c
 23fbc58:	46a4      	mov	ip, r4
}
 23fbc5a:	bc30      	pop	{r4, r5}
  drawFastHLine(x, y, w, color);
 23fbc5c:	4760      	bx	ip

023fbc5e <_ZN12Adafruit_GFX13writeFillRectEsssst>:
    @param    h   Height in pixels
   @param    color 16-bit 5-6-5 Color to fill with
*/
/**************************************************************************/
void Adafruit_GFX::writeFillRect(int16_t x, int16_t y, int16_t w, int16_t h,
                                 uint16_t color) {
 23fbc5e:	b470      	push	{r4, r5, r6}
 23fbc60:	f9bd 500c 	ldrsh.w	r5, [sp, #12]
 23fbc64:	f8bd 6010 	ldrh.w	r6, [sp, #16]
  // Overwrite in subclasses if desired!
  fillRect(x, y, w, h, color);
 23fbc68:	6804      	ldr	r4, [r0, #0]
 23fbc6a:	e9cd 5603 	strd	r5, r6, [sp, #12]
 23fbc6e:	6c24      	ldr	r4, [r4, #64]	; 0x40
 23fbc70:	46a4      	mov	ip, r4
}
 23fbc72:	bc70      	pop	{r4, r5, r6}
  fillRect(x, y, w, h, color);
 23fbc74:	4760      	bx	ip

023fbc76 <_ZN12Adafruit_GFX13drawFastVLineEssst>:
    @param    h   Height in pixels
   @param    color 16-bit 5-6-5 Color to fill with
*/
/**************************************************************************/
void Adafruit_GFX::drawFastVLine(int16_t x, int16_t y, int16_t h,
                                 uint16_t color) {
 23fbc76:	e92d 41f3 	stmdb	sp!, {r0, r1, r4, r5, r6, r7, r8, lr}
 23fbc7a:	461c      	mov	r4, r3
 23fbc7c:	4616      	mov	r6, r2
 23fbc7e:	4605      	mov	r5, r0
 23fbc80:	460f      	mov	r7, r1
  startWrite();
 23fbc82:	6803      	ldr	r3, [r0, #0]
  writeLine(x, y, x, y + h - 1, color);
 23fbc84:	3c01      	subs	r4, #1
                                 uint16_t color) {
 23fbc86:	f8bd 8020 	ldrh.w	r8, [sp, #32]
  startWrite();
 23fbc8a:	695b      	ldr	r3, [r3, #20]
  writeLine(x, y, x, y + h - 1, color);
 23fbc8c:	4434      	add	r4, r6
  startWrite();
 23fbc8e:	4798      	blx	r3
  writeLine(x, y, x, y + h - 1, color);
 23fbc90:	b224      	sxth	r4, r4
 23fbc92:	682b      	ldr	r3, [r5, #0]
 23fbc94:	f8cd 8004 	str.w	r8, [sp, #4]
 23fbc98:	9400      	str	r4, [sp, #0]
 23fbc9a:	4628      	mov	r0, r5
 23fbc9c:	6a9c      	ldr	r4, [r3, #40]	; 0x28
 23fbc9e:	4632      	mov	r2, r6
 23fbca0:	463b      	mov	r3, r7
 23fbca2:	4639      	mov	r1, r7
 23fbca4:	47a0      	blx	r4
  endWrite();
 23fbca6:	4628      	mov	r0, r5
 23fbca8:	682b      	ldr	r3, [r5, #0]
 23fbcaa:	6adb      	ldr	r3, [r3, #44]	; 0x2c
}
 23fbcac:	b002      	add	sp, #8
 23fbcae:	e8bd 41f0 	ldmia.w	sp!, {r4, r5, r6, r7, r8, lr}
  endWrite();
 23fbcb2:	4718      	bx	r3

023fbcb4 <_ZN12Adafruit_GFX13drawFastHLineEssst>:
    @param    w   Width in pixels
   @param    color 16-bit 5-6-5 Color to fill with
*/
/**************************************************************************/
void Adafruit_GFX::drawFastHLine(int16_t x, int16_t y, int16_t w,
                                 uint16_t color) {
 23fbcb4:	e92d 41f3 	stmdb	sp!, {r0, r1, r4, r5, r6, r7, r8, lr}
 23fbcb8:	4617      	mov	r7, r2
 23fbcba:	4604      	mov	r4, r0
 23fbcbc:	461d      	mov	r5, r3
 23fbcbe:	460e      	mov	r6, r1
  startWrite();
 23fbcc0:	6803      	ldr	r3, [r0, #0]
                                 uint16_t color) {
 23fbcc2:	f8bd 8020 	ldrh.w	r8, [sp, #32]
  startWrite();
 23fbcc6:	695b      	ldr	r3, [r3, #20]
 23fbcc8:	4798      	blx	r3
  writeLine(x, y, x + w - 1, y, color);
 23fbcca:	e9cd 7800 	strd	r7, r8, [sp]
 23fbcce:	6822      	ldr	r2, [r4, #0]
 23fbcd0:	1e6b      	subs	r3, r5, #1
 23fbcd2:	4433      	add	r3, r6
 23fbcd4:	4620      	mov	r0, r4
 23fbcd6:	6a95      	ldr	r5, [r2, #40]	; 0x28
 23fbcd8:	4631      	mov	r1, r6
 23fbcda:	463a      	mov	r2, r7
 23fbcdc:	b21b      	sxth	r3, r3
 23fbcde:	47a8      	blx	r5
  endWrite();
 23fbce0:	4620      	mov	r0, r4
 23fbce2:	6823      	ldr	r3, [r4, #0]
 23fbce4:	6adb      	ldr	r3, [r3, #44]	; 0x2c
}
 23fbce6:	b002      	add	sp, #8
 23fbce8:	e8bd 41f0 	ldmia.w	sp!, {r4, r5, r6, r7, r8, lr}
  endWrite();
 23fbcec:	4718      	bx	r3

023fbcee <_ZN12Adafruit_GFX8fillRectEsssst>:
    @param    h   Height in pixels
   @param    color 16-bit 5-6-5 Color to fill with
*/
/**************************************************************************/
void Adafruit_GFX::fillRect(int16_t x, int16_t y, int16_t w, int16_t h,
                            uint16_t color) {
 23fbcee:	e92d 47f3 	stmdb	sp!, {r0, r1, r4, r5, r6, r7, r8, r9, sl, lr}
 23fbcf2:	461e      	mov	r6, r3
  startWrite();
 23fbcf4:	6803      	ldr	r3, [r0, #0]
                            uint16_t color) {
 23fbcf6:	460c      	mov	r4, r1
  startWrite();
 23fbcf8:	695b      	ldr	r3, [r3, #20]
                            uint16_t color) {
 23fbcfa:	4605      	mov	r5, r0
 23fbcfc:	4617      	mov	r7, r2
 23fbcfe:	f9bd 9028 	ldrsh.w	r9, [sp, #40]	; 0x28
 23fbd02:	f8bd 802c 	ldrh.w	r8, [sp, #44]	; 0x2c
  startWrite();
 23fbd06:	4798      	blx	r3
  for (int16_t i = x; i < x + w; i++) {
 23fbd08:	4426      	add	r6, r4
 23fbd0a:	42b4      	cmp	r4, r6
    writeFastVLine(i, y, h, color);
 23fbd0c:	682b      	ldr	r3, [r5, #0]
  for (int16_t i = x; i < x + w; i++) {
 23fbd0e:	da0b      	bge.n	23fbd28 <_ZN12Adafruit_GFX8fillRectEsssst+0x3a>
    writeFastVLine(i, y, h, color);
 23fbd10:	f8cd 8000 	str.w	r8, [sp]
 23fbd14:	4621      	mov	r1, r4
 23fbd16:	f8d3 a020 	ldr.w	sl, [r3, #32]
 23fbd1a:	463a      	mov	r2, r7
 23fbd1c:	464b      	mov	r3, r9
 23fbd1e:	4628      	mov	r0, r5
 23fbd20:	3401      	adds	r4, #1
 23fbd22:	47d0      	blx	sl
  for (int16_t i = x; i < x + w; i++) {
 23fbd24:	b224      	sxth	r4, r4
 23fbd26:	e7f0      	b.n	23fbd0a <_ZN12Adafruit_GFX8fillRectEsssst+0x1c>
  }
  endWrite();
 23fbd28:	4628      	mov	r0, r5
 23fbd2a:	6adb      	ldr	r3, [r3, #44]	; 0x2c
}
 23fbd2c:	b002      	add	sp, #8
 23fbd2e:	e8bd 47f0 	ldmia.w	sp!, {r4, r5, r6, r7, r8, r9, sl, lr}
  endWrite();
 23fbd32:	4718      	bx	r3

023fbd34 <_ZN12Adafruit_GFX10fillScreenEt>:
   @brief    Fill the screen completely with one color. Update in subclasses if
   desired!
    @param    color 16-bit 5-6-5 Color to fill with
*/
/**************************************************************************/
void Adafruit_GFX::fillScreen(uint16_t color) {
 23fbd34:	b513      	push	{r0, r1, r4, lr}
  fillRect(0, 0, _width, _height, color);
 23fbd36:	9101      	str	r1, [sp, #4]
 23fbd38:	f9b0 100e 	ldrsh.w	r1, [r0, #14]
 23fbd3c:	6802      	ldr	r2, [r0, #0]
 23fbd3e:	9100      	str	r1, [sp, #0]
 23fbd40:	6c14      	ldr	r4, [r2, #64]	; 0x40
 23fbd42:	2200      	movs	r2, #0
 23fbd44:	f9b0 300c 	ldrsh.w	r3, [r0, #12]
 23fbd48:	4611      	mov	r1, r2
 23fbd4a:	47a0      	blx	r4
}
 23fbd4c:	b002      	add	sp, #8
 23fbd4e:	bd10      	pop	{r4, pc}

023fbd50 <_ZN12Adafruit_GFX8drawLineEsssst>:
    @param    y1  End point y coordinate
    @param    color 16-bit 5-6-5 Color to draw with
*/
/**************************************************************************/
void Adafruit_GFX::drawLine(int16_t x0, int16_t y0, int16_t x1, int16_t y1,
                            uint16_t color) {
 23fbd50:	e92d 43f7 	stmdb	sp!, {r0, r1, r2, r4, r5, r6, r7, r8, r9, lr}
  // Update in subclasses if desired!
  if (x0 == x1) {
 23fbd54:	4299      	cmp	r1, r3
                            uint16_t color) {
 23fbd56:	4616      	mov	r6, r2
 23fbd58:	4680      	mov	r8, r0
 23fbd5a:	460d      	mov	r5, r1
 23fbd5c:	461c      	mov	r4, r3
 23fbd5e:	f9bd 7028 	ldrsh.w	r7, [sp, #40]	; 0x28
 23fbd62:	f8bd 902c 	ldrh.w	r9, [sp, #44]	; 0x2c
    if (y0 > y1)
      _swap_int16_t(y0, y1);
    drawFastVLine(x0, y0, y1 - y0 + 1, color);
 23fbd66:	6802      	ldr	r2, [r0, #0]
  if (x0 == x1) {
 23fbd68:	d112      	bne.n	23fbd90 <_ZN12Adafruit_GFX8drawLineEsssst+0x40>
    if (y0 > y1)
 23fbd6a:	42be      	cmp	r6, r7
 23fbd6c:	bfc2      	ittt	gt
 23fbd6e:	4633      	movgt	r3, r6
 23fbd70:	463e      	movgt	r6, r7
 23fbd72:	461f      	movgt	r7, r3
    drawFastVLine(x0, y0, y1 - y0 + 1, color);
 23fbd74:	f8cd 9028 	str.w	r9, [sp, #40]	; 0x28
 23fbd78:	1c7b      	adds	r3, r7, #1
 23fbd7a:	6b94      	ldr	r4, [r2, #56]	; 0x38
 23fbd7c:	1b9b      	subs	r3, r3, r6
  } else if (y0 == y1) {
    if (x0 > x1)
      _swap_int16_t(x0, x1);
    drawFastHLine(x0, y0, x1 - x0 + 1, color);
 23fbd7e:	4632      	mov	r2, r6
 23fbd80:	4629      	mov	r1, r5
 23fbd82:	4640      	mov	r0, r8
 23fbd84:	46a4      	mov	ip, r4
 23fbd86:	b21b      	sxth	r3, r3
  } else {
    startWrite();
    writeLine(x0, y0, x1, y1, color);
    endWrite();
  }
}
 23fbd88:	b003      	add	sp, #12
 23fbd8a:	e8bd 43f0 	ldmia.w	sp!, {r4, r5, r6, r7, r8, r9, lr}
    drawFastHLine(x0, y0, x1 - x0 + 1, color);
 23fbd8e:	4760      	bx	ip
  } else if (y0 == y1) {
 23fbd90:	42be      	cmp	r6, r7
 23fbd92:	d10a      	bne.n	23fbdaa <_ZN12Adafruit_GFX8drawLineEsssst+0x5a>
    if (x0 > x1)
 23fbd94:	4299      	cmp	r1, r3
 23fbd96:	bfc2      	ittt	gt
 23fbd98:	460b      	movgt	r3, r1
 23fbd9a:	4625      	movgt	r5, r4
 23fbd9c:	461c      	movgt	r4, r3
    drawFastHLine(x0, y0, x1 - x0 + 1, color);
 23fbd9e:	f8cd 9028 	str.w	r9, [sp, #40]	; 0x28
 23fbda2:	1c63      	adds	r3, r4, #1
 23fbda4:	1b5b      	subs	r3, r3, r5
 23fbda6:	6bd4      	ldr	r4, [r2, #60]	; 0x3c
 23fbda8:	e7e9      	b.n	23fbd7e <_ZN12Adafruit_GFX8drawLineEsssst+0x2e>
    startWrite();
 23fbdaa:	6953      	ldr	r3, [r2, #20]
 23fbdac:	4798      	blx	r3
    writeLine(x0, y0, x1, y1, color);
 23fbdae:	e9cd 7900 	strd	r7, r9, [sp]
 23fbdb2:	f8d8 3000 	ldr.w	r3, [r8]
 23fbdb6:	4640      	mov	r0, r8
 23fbdb8:	6a9f      	ldr	r7, [r3, #40]	; 0x28
 23fbdba:	4632      	mov	r2, r6
 23fbdbc:	4623      	mov	r3, r4
 23fbdbe:	4629      	mov	r1, r5
 23fbdc0:	47b8      	blx	r7
    endWrite();
 23fbdc2:	4640      	mov	r0, r8
 23fbdc4:	f8d8 3000 	ldr.w	r3, [r8]
 23fbdc8:	6adb      	ldr	r3, [r3, #44]	; 0x2c
}
 23fbdca:	b003      	add	sp, #12
 23fbdcc:	e8bd 43f0 	ldmia.w	sp!, {r4, r5, r6, r7, r8, r9, lr}
    endWrite();
 23fbdd0:	4718      	bx	r3

023fbdd2 <_ZN12Adafruit_GFX8drawRectEsssst>:
    @param    h   Height in pixels
    @param    color 16-bit 5-6-5 Color to draw with
*/
/**************************************************************************/
void Adafruit_GFX::drawRect(int16_t x, int16_t y, int16_t w, int16_t h,
                            uint16_t color) {
 23fbdd2:	e92d 47f3 	stmdb	sp!, {r0, r1, r4, r5, r6, r7, r8, r9, sl, lr}
 23fbdd6:	4604      	mov	r4, r0
 23fbdd8:	460f      	mov	r7, r1
 23fbdda:	4616      	mov	r6, r2
 23fbddc:	461d      	mov	r5, r3
  startWrite();
 23fbdde:	6803      	ldr	r3, [r0, #0]
                            uint16_t color) {
 23fbde0:	f8bd 802c 	ldrh.w	r8, [sp, #44]	; 0x2c
  startWrite();
 23fbde4:	695b      	ldr	r3, [r3, #20]
                            uint16_t color) {
 23fbde6:	f9bd 9028 	ldrsh.w	r9, [sp, #40]	; 0x28
  startWrite();
 23fbdea:	4798      	blx	r3
  writeFastHLine(x, y, w, color);
 23fbdec:	6823      	ldr	r3, [r4, #0]
 23fbdee:	f8cd 8000 	str.w	r8, [sp]
 23fbdf2:	4632      	mov	r2, r6
 23fbdf4:	4639      	mov	r1, r7
 23fbdf6:	4620      	mov	r0, r4
 23fbdf8:	f8d3 a024 	ldr.w	sl, [r3, #36]	; 0x24
 23fbdfc:	462b      	mov	r3, r5
 23fbdfe:	47d0      	blx	sl
  writeFastHLine(x, y + h - 1, w, color);
 23fbe00:	6823      	ldr	r3, [r4, #0]
 23fbe02:	f109 32ff 	add.w	r2, r9, #4294967295	; 0xffffffff
 23fbe06:	f8cd 8000 	str.w	r8, [sp]
 23fbe0a:	4432      	add	r2, r6
 23fbe0c:	4639      	mov	r1, r7
 23fbe0e:	4620      	mov	r0, r4
 23fbe10:	f8d3 a024 	ldr.w	sl, [r3, #36]	; 0x24
 23fbe14:	b212      	sxth	r2, r2
 23fbe16:	462b      	mov	r3, r5
 23fbe18:	47d0      	blx	sl
  writeFastVLine(x, y, h, color);
 23fbe1a:	6823      	ldr	r3, [r4, #0]
 23fbe1c:	f8cd 8000 	str.w	r8, [sp]
 23fbe20:	4632      	mov	r2, r6
 23fbe22:	4639      	mov	r1, r7
 23fbe24:	4620      	mov	r0, r4
 23fbe26:	f8d3 a020 	ldr.w	sl, [r3, #32]
 23fbe2a:	464b      	mov	r3, r9
 23fbe2c:	47d0      	blx	sl
  writeFastVLine(x + w - 1, y, h, color);
 23fbe2e:	1e6b      	subs	r3, r5, #1
 23fbe30:	19d9      	adds	r1, r3, r7
 23fbe32:	6823      	ldr	r3, [r4, #0]
 23fbe34:	f8cd 8000 	str.w	r8, [sp]
 23fbe38:	4620      	mov	r0, r4
 23fbe3a:	6a1d      	ldr	r5, [r3, #32]
 23fbe3c:	4632      	mov	r2, r6
 23fbe3e:	464b      	mov	r3, r9
 23fbe40:	b209      	sxth	r1, r1
 23fbe42:	47a8      	blx	r5
  endWrite();
 23fbe44:	4620      	mov	r0, r4
 23fbe46:	6823      	ldr	r3, [r4, #0]
 23fbe48:	6adb      	ldr	r3, [r3, #44]	; 0x2c
}
 23fbe4a:	b002      	add	sp, #8
 23fbe4c:	e8bd 47f0 	ldmia.w	sp!, {r4, r5, r6, r7, r8, r9, sl, lr}
  endWrite();
 23fbe50:	4718      	bx	r3

023fbe52 <_ZN12Adafruit_GFX13invertDisplayEb>:
*/
/**************************************************************************/
void Adafruit_GFX::invertDisplay(bool i) {
  // Do nothing, must be subclassed if supported by hardware
  (void)i; // disable -Wunused-parameter warning
}
 23fbe52:	4770      	bx	lr

023fbe54 <_ZN12Adafruit_GFX11setRotationEh>:
  rotation = (x & 3);
 23fbe54:	f001 0303 	and.w	r3, r1, #3
    _height = HEIGHT;
 23fbe58:	f9b0 200a 	ldrsh.w	r2, [r0, #10]
  rotation = (x & 3);
 23fbe5c:	7683      	strb	r3, [r0, #26]
    _width = WIDTH;
 23fbe5e:	f9b0 3008 	ldrsh.w	r3, [r0, #8]
  switch (rotation) {
 23fbe62:	07c9      	lsls	r1, r1, #31
    _width = WIDTH;
 23fbe64:	bf59      	ittee	pl
 23fbe66:	8183      	strhpl	r3, [r0, #12]
    _height = HEIGHT;
 23fbe68:	81c2      	strhpl	r2, [r0, #14]
    _width = HEIGHT;
 23fbe6a:	8182      	strhmi	r2, [r0, #12]
    _height = WIDTH;
 23fbe6c:	81c3      	strhmi	r3, [r0, #14]
}
 23fbe6e:	4770      	bx	lr

023fbe70 <_ZN12Adafruit_GFXC1Ess>:
Adafruit_GFX::Adafruit_GFX(int16_t w, int16_t h) : WIDTH(w), HEIGHT(h) {
 23fbe70:	b530      	push	{r4, r5, lr}
 23fbe72:	8101      	strh	r1, [r0, #8]

  protected:
    void setWriteError(int err = 1) { write_error = err; }

  public:
    Print() : write_error(0) {}
 23fbe74:	2400      	movs	r4, #0
  _width = WIDTH;
 23fbe76:	8181      	strh	r1, [r0, #12]
  textsize_x = textsize_y = 1;
 23fbe78:	f04f 31ff 	mov.w	r1, #4294967295	; 0xffffffff
Adafruit_GFX::Adafruit_GFX(int16_t w, int16_t h) : WIDTH(w), HEIGHT(h) {
 23fbe7c:	4d05      	ldr	r5, [pc, #20]	; (23fbe94 <_ZN12Adafruit_GFXC1Ess+0x24>)
 23fbe7e:	8142      	strh	r2, [r0, #10]
  _height = HEIGHT;
 23fbe80:	81c2      	strh	r2, [r0, #14]
  textsize_x = textsize_y = 1;
 23fbe82:	4a05      	ldr	r2, [pc, #20]	; (23fbe98 <_ZN12Adafruit_GFXC1Ess+0x28>)
 23fbe84:	6044      	str	r4, [r0, #4]
 23fbe86:	e9c0 1205 	strd	r1, r2, [r0, #20]
Adafruit_GFX::Adafruit_GFX(int16_t w, int16_t h) : WIDTH(w), HEIGHT(h) {
 23fbe8a:	6005      	str	r5, [r0, #0]
  cursor_y = cursor_x = 0;
 23fbe8c:	6104      	str	r4, [r0, #16]
  _cp437 = false;
 23fbe8e:	7704      	strb	r4, [r0, #28]
  gfxFont = NULL;
 23fbe90:	6204      	str	r4, [r0, #32]
}
 23fbe92:	bd30      	pop	{r4, r5, pc}
 23fbe94:	023ff62c 	.word	0x023ff62c
 23fbe98:	01000101 	.word	0x01000101

023fbe9c <_ZN12Adafruit_GFX10drawBitmapEssPKhsst>:
                              int16_t w, int16_t h, uint16_t color) {
 23fbe9c:	e92d 4ff0 	stmdb	sp!, {r4, r5, r6, r7, r8, r9, sl, fp, lr}
  startWrite();
 23fbea0:	2600      	movs	r6, #0
  uint8_t b = 0;
 23fbea2:	4635      	mov	r5, r6
                              int16_t w, int16_t h, uint16_t color) {
 23fbea4:	b089      	sub	sp, #36	; 0x24
 23fbea6:	e9cd 1202 	strd	r1, r2, [sp, #8]
 23fbeaa:	9304      	str	r3, [sp, #16]
  startWrite();
 23fbeac:	6802      	ldr	r2, [r0, #0]
                              int16_t w, int16_t h, uint16_t color) {
 23fbeae:	f9bd 304c 	ldrsh.w	r3, [sp, #76]	; 0x4c
 23fbeb2:	f9bd 8048 	ldrsh.w	r8, [sp, #72]	; 0x48
  startWrite();
 23fbeb6:	6952      	ldr	r2, [r2, #20]
                              int16_t w, int16_t h, uint16_t color) {
 23fbeb8:	9305      	str	r3, [sp, #20]
 23fbeba:	4604      	mov	r4, r0
 23fbebc:	f8bd a050 	ldrh.w	sl, [sp, #80]	; 0x50
  startWrite();
 23fbec0:	4790      	blx	r2
  int16_t byteWidth = (w + 7) / 8; // Bitmap scanline pad = whole byte
 23fbec2:	f118 0207 	adds.w	r2, r8, #7
 23fbec6:	bf48      	it	mi
 23fbec8:	f108 020e 	addmi.w	r2, r8, #14
 23fbecc:	ea4f 0be2 	mov.w	fp, r2, asr #3
  startWrite();
 23fbed0:	9601      	str	r6, [sp, #4]
 23fbed2:	9b03      	ldr	r3, [sp, #12]
 23fbed4:	9a01      	ldr	r2, [sp, #4]
  for (int16_t j = 0; j < h; j++, y++) {
 23fbed6:	f9bd 1004 	ldrsh.w	r1, [sp, #4]
 23fbeda:	189a      	adds	r2, r3, r2
 23fbedc:	9b05      	ldr	r3, [sp, #20]
 23fbede:	b212      	sxth	r2, r2
 23fbee0:	428b      	cmp	r3, r1
 23fbee2:	dd27      	ble.n	23fbf34 <_ZN12Adafruit_GFX10drawBitmapEssPKhsst+0x98>
 23fbee4:	f04f 0900 	mov.w	r9, #0
        b = pgm_read_byte(&bitmap[j * byteWidth + i / 8]);
 23fbee8:	9b04      	ldr	r3, [sp, #16]
 23fbeea:	4433      	add	r3, r6
 23fbeec:	9306      	str	r3, [sp, #24]
 23fbeee:	fa0f f089 	sxth.w	r0, r9
    for (int16_t i = 0; i < w; i++) {
 23fbef2:	4580      	cmp	r8, r0
 23fbef4:	fa1f f189 	uxth.w	r1, r9
 23fbef8:	dd17      	ble.n	23fbf2a <_ZN12Adafruit_GFX10drawBitmapEssPKhsst+0x8e>
      if (i & 7)
 23fbefa:	074f      	lsls	r7, r1, #29
        b = pgm_read_byte(&bitmap[j * byteWidth + i / 8]);
 23fbefc:	bf05      	ittet	eq
 23fbefe:	9b06      	ldreq	r3, [sp, #24]
 23fbf00:	10c0      	asreq	r0, r0, #3
        b <<= 1;
 23fbf02:	006d      	lslne	r5, r5, #1
        b = pgm_read_byte(&bitmap[j * byteWidth + i / 8]);
 23fbf04:	5c1d      	ldrbeq	r5, [r3, r0]
        b <<= 1;
 23fbf06:	bf18      	it	ne
 23fbf08:	b2ed      	uxtbne	r5, r5
      if (b & 0x80)
 23fbf0a:	062b      	lsls	r3, r5, #24
 23fbf0c:	d50a      	bpl.n	23fbf24 <_ZN12Adafruit_GFX10drawBitmapEssPKhsst+0x88>
        writePixel(x + i, y, color);
 23fbf0e:	9b02      	ldr	r3, [sp, #8]
 23fbf10:	6820      	ldr	r0, [r4, #0]
 23fbf12:	4419      	add	r1, r3
 23fbf14:	6983      	ldr	r3, [r0, #24]
 23fbf16:	9207      	str	r2, [sp, #28]
 23fbf18:	461f      	mov	r7, r3
 23fbf1a:	4620      	mov	r0, r4
 23fbf1c:	4653      	mov	r3, sl
 23fbf1e:	b209      	sxth	r1, r1
 23fbf20:	47b8      	blx	r7
 23fbf22:	9a07      	ldr	r2, [sp, #28]
    for (int16_t i = 0; i < w; i++) {
 23fbf24:	f109 0901 	add.w	r9, r9, #1
 23fbf28:	e7e1      	b.n	23fbeee <_ZN12Adafruit_GFX10drawBitmapEssPKhsst+0x52>
  for (int16_t j = 0; j < h; j++, y++) {
 23fbf2a:	9b01      	ldr	r3, [sp, #4]
 23fbf2c:	445e      	add	r6, fp
 23fbf2e:	3301      	adds	r3, #1
 23fbf30:	9301      	str	r3, [sp, #4]
 23fbf32:	e7ce      	b.n	23fbed2 <_ZN12Adafruit_GFX10drawBitmapEssPKhsst+0x36>
  endWrite();
 23fbf34:	4620      	mov	r0, r4
 23fbf36:	6823      	ldr	r3, [r4, #0]
 23fbf38:	6adb      	ldr	r3, [r3, #44]	; 0x2c
}
 23fbf3a:	b009      	add	sp, #36	; 0x24
 23fbf3c:	e8bd 4ff0 	ldmia.w	sp!, {r4, r5, r6, r7, r8, r9, sl, fp, lr}
  endWrite();
 23fbf40:	4718      	bx	r3
	...

023fbf44 <_ZN12Adafruit_GFX8drawCharEsshtthh>:
                            uint8_t size_y) {
 23fbf44:	e92d 4ff0 	stmdb	sp!, {r4, r5, r6, r7, r8, r9, sl, fp, lr}
 23fbf48:	ed2d 8b02 	vpush	{d8}
 23fbf4c:	b091      	sub	sp, #68	; 0x44
 23fbf4e:	4616      	mov	r6, r2
 23fbf50:	461f      	mov	r7, r3
  if (!gfxFont) { // 'Classic' built-in font
 23fbf52:	6a02      	ldr	r2, [r0, #32]
                            uint8_t size_y) {
 23fbf54:	f8bd 3070 	ldrh.w	r3, [sp, #112]	; 0x70
 23fbf58:	4683      	mov	fp, r0
 23fbf5a:	f8bd 8074 	ldrh.w	r8, [sp, #116]	; 0x74
 23fbf5e:	f89d 5078 	ldrb.w	r5, [sp, #120]	; 0x78
 23fbf62:	f89d 407c 	ldrb.w	r4, [sp, #124]	; 0x7c
 23fbf66:	9103      	str	r1, [sp, #12]
 23fbf68:	9304      	str	r3, [sp, #16]
  if (!gfxFont) { // 'Classic' built-in font
 23fbf6a:	2a00      	cmp	r2, #0
 23fbf6c:	f040 80c5 	bne.w	23fc0fa <_ZN12Adafruit_GFX8drawCharEsshtthh+0x1b6>
    if ((x >= _width) ||              // Clip right
 23fbf70:	f9b0 300c 	ldrsh.w	r3, [r0, #12]
 23fbf74:	428b      	cmp	r3, r1
 23fbf76:	f340 814c 	ble.w	23fc212 <_ZN12Adafruit_GFX8drawCharEsshtthh+0x2ce>
 23fbf7a:	f9b0 300e 	ldrsh.w	r3, [r0, #14]
 23fbf7e:	42b3      	cmp	r3, r6
 23fbf80:	f340 8147 	ble.w	23fc212 <_ZN12Adafruit_GFX8drawCharEsshtthh+0x2ce>
        ((x + 6 * size_x - 1) < 0) || // Clip left
 23fbf84:	2306      	movs	r3, #6
 23fbf86:	fb13 1305 	smlabb	r3, r3, r5, r1
        (y >= _height) ||             // Clip bottom
 23fbf8a:	2b00      	cmp	r3, #0
 23fbf8c:	f340 8141 	ble.w	23fc212 <_ZN12Adafruit_GFX8drawCharEsshtthh+0x2ce>
        ((y + 8 * size_y - 1) < 0))   // Clip top
 23fbf90:	eb06 03c4 	add.w	r3, r6, r4, lsl #3
        ((x + 6 * size_x - 1) < 0) || // Clip left
 23fbf94:	2b00      	cmp	r3, #0
 23fbf96:	f340 813c 	ble.w	23fc212 <_ZN12Adafruit_GFX8drawCharEsshtthh+0x2ce>
    if (!_cp437 && (c >= 176))
 23fbf9a:	7f03      	ldrb	r3, [r0, #28]
 23fbf9c:	b91b      	cbnz	r3, 23fbfa6 <_ZN12Adafruit_GFX8drawCharEsshtthh+0x62>
 23fbf9e:	2faf      	cmp	r7, #175	; 0xaf
      c++; // Handle 'classic' charset behavior
 23fbfa0:	bf84      	itt	hi
 23fbfa2:	3701      	addhi	r7, #1
 23fbfa4:	b2ff      	uxtbhi	r7, r7
    startWrite();
 23fbfa6:	f8db 3000 	ldr.w	r3, [fp]
 23fbfaa:	4658      	mov	r0, fp
 23fbfac:	695b      	ldr	r3, [r3, #20]
 23fbfae:	4798      	blx	r3
      uint8_t line = pgm_read_byte(&font[c * 5 + i]);
 23fbfb0:	2205      	movs	r2, #5
 23fbfb2:	9209      	str	r2, [sp, #36]	; 0x24
    for (int8_t i = 0; i < 5; i++) { // Char bitmap = 5 columns
 23fbfb4:	2200      	movs	r2, #0
 23fbfb6:	9205      	str	r2, [sp, #20]
      uint8_t line = pgm_read_byte(&font[c * 5 + i]);
 23fbfb8:	4a98      	ldr	r2, [pc, #608]	; (23fc21c <_ZN12Adafruit_GFX8drawCharEsshtthh+0x2d8>)
 23fbfba:	eb07 0387 	add.w	r3, r7, r7, lsl #2
 23fbfbe:	18d3      	adds	r3, r2, r3
 23fbfc0:	930c      	str	r3, [sp, #48]	; 0x30
            writePixel(x + i, y + j, color);
 23fbfc2:	b2b3      	uxth	r3, r6
 23fbfc4:	9306      	str	r3, [sp, #24]
      uint8_t line = pgm_read_byte(&font[c * 5 + i]);
 23fbfc6:	9a05      	ldr	r2, [sp, #20]
 23fbfc8:	9b0c      	ldr	r3, [sp, #48]	; 0x30
            writeFillRect(x + i * size_x, y + j * size_y, size_x, size_y, bg);
 23fbfca:	fb02 f905 	mul.w	r9, r2, r5
      uint8_t line = pgm_read_byte(&font[c * 5 + i]);
 23fbfce:	5c9b      	ldrb	r3, [r3, r2]
 23fbfd0:	9307      	str	r3, [sp, #28]
            writeFillRect(x + i * size_x, y + j * size_y, size_x, size_y, bg);
 23fbfd2:	b2ab      	uxth	r3, r5
 23fbfd4:	930b      	str	r3, [sp, #44]	; 0x2c
 23fbfd6:	f8bd 300c 	ldrh.w	r3, [sp, #12]
 23fbfda:	9308      	str	r3, [sp, #32]
 23fbfdc:	9b03      	ldr	r3, [sp, #12]
 23fbfde:	fa19 f983 	uxtah	r9, r9, r3
 23fbfe2:	fa0f f389 	sxth.w	r3, r9
 23fbfe6:	ee08 3a10 	vmov	s16, r3
 23fbfea:	2308      	movs	r3, #8
      for (int8_t j = 0; j < 8; j++, line >>= 1) {
 23fbfec:	f04f 0900 	mov.w	r9, #0
            writeFillRect(x + i * size_x, y + j * size_y, size_x, size_y, bg);
 23fbff0:	930a      	str	r3, [sp, #40]	; 0x28
            writePixel(x + i, y + j, bg);
 23fbff2:	9b03      	ldr	r3, [sp, #12]
 23fbff4:	eb02 0a03 	add.w	sl, r2, r3
 23fbff8:	fa0f fa8a 	sxth.w	sl, sl
        if (line & 1) {
 23fbffc:	9a07      	ldr	r2, [sp, #28]
            writePixel(x + i, y + j, color);
 23fbffe:	f8db 3000 	ldr.w	r3, [fp]
        if (line & 1) {
 23fc002:	07d2      	lsls	r2, r2, #31
 23fc004:	d552      	bpl.n	23fc0ac <_ZN12Adafruit_GFX8drawCharEsshtthh+0x168>
          if (size_x == 1 && size_y == 1)
 23fc006:	2d01      	cmp	r5, #1
            writePixel(x + i, y + j, color);
 23fc008:	fa1f f289 	uxth.w	r2, r9
          if (size_x == 1 && size_y == 1)
 23fc00c:	d13e      	bne.n	23fc08c <_ZN12Adafruit_GFX8drawCharEsshtthh+0x148>
 23fc00e:	2c01      	cmp	r4, #1
 23fc010:	d13c      	bne.n	23fc08c <_ZN12Adafruit_GFX8drawCharEsshtthh+0x148>
            writePixel(x + i, y + j, color);
 23fc012:	699b      	ldr	r3, [r3, #24]
 23fc014:	9906      	ldr	r1, [sp, #24]
 23fc016:	461f      	mov	r7, r3
 23fc018:	9b04      	ldr	r3, [sp, #16]
 23fc01a:	440a      	add	r2, r1
            writePixel(x + i, y + j, bg);
 23fc01c:	4651      	mov	r1, sl
 23fc01e:	4658      	mov	r0, fp
 23fc020:	b212      	sxth	r2, r2
 23fc022:	47b8      	blx	r7
      for (int8_t j = 0; j < 8; j++, line >>= 1) {
 23fc024:	f109 0301 	add.w	r3, r9, #1
 23fc028:	fa4f f983 	sxtb.w	r9, r3
 23fc02c:	9b07      	ldr	r3, [sp, #28]
 23fc02e:	085b      	lsrs	r3, r3, #1
 23fc030:	9307      	str	r3, [sp, #28]
 23fc032:	9b0a      	ldr	r3, [sp, #40]	; 0x28
 23fc034:	3b01      	subs	r3, #1
 23fc036:	f013 03ff 	ands.w	r3, r3, #255	; 0xff
 23fc03a:	930a      	str	r3, [sp, #40]	; 0x28
 23fc03c:	d1de      	bne.n	23fbffc <_ZN12Adafruit_GFX8drawCharEsshtthh+0xb8>
    for (int8_t i = 0; i < 5; i++) { // Char bitmap = 5 columns
 23fc03e:	9f05      	ldr	r7, [sp, #20]
 23fc040:	3701      	adds	r7, #1
 23fc042:	b27b      	sxtb	r3, r7
 23fc044:	9305      	str	r3, [sp, #20]
 23fc046:	9b09      	ldr	r3, [sp, #36]	; 0x24
 23fc048:	3b01      	subs	r3, #1
 23fc04a:	f013 03ff 	ands.w	r3, r3, #255	; 0xff
 23fc04e:	9309      	str	r3, [sp, #36]	; 0x24
 23fc050:	d1b9      	bne.n	23fbfc6 <_ZN12Adafruit_GFX8drawCharEsshtthh+0x82>
    if (bg != color) { // If opaque, draw vertical line for last column
 23fc052:	9b04      	ldr	r3, [sp, #16]
 23fc054:	4543      	cmp	r3, r8
 23fc056:	d00f      	beq.n	23fc078 <_ZN12Adafruit_GFX8drawCharEsshtthh+0x134>
      if (size_x == 1 && size_y == 1)
 23fc058:	2d01      	cmp	r5, #1
        writeFastVLine(x + 5, y, 8, bg);
 23fc05a:	f8db 3000 	ldr.w	r3, [fp]
      if (size_x == 1 && size_y == 1)
 23fc05e:	d13b      	bne.n	23fc0d8 <_ZN12Adafruit_GFX8drawCharEsshtthh+0x194>
 23fc060:	2c01      	cmp	r4, #1
 23fc062:	d139      	bne.n	23fc0d8 <_ZN12Adafruit_GFX8drawCharEsshtthh+0x194>
        writeFastVLine(x + 5, y, 8, bg);
 23fc064:	9908      	ldr	r1, [sp, #32]
 23fc066:	f8cd 8000 	str.w	r8, [sp]
 23fc06a:	3105      	adds	r1, #5
 23fc06c:	6a1c      	ldr	r4, [r3, #32]
 23fc06e:	4632      	mov	r2, r6
 23fc070:	2308      	movs	r3, #8
 23fc072:	4658      	mov	r0, fp
 23fc074:	b209      	sxth	r1, r1
 23fc076:	47a0      	blx	r4
    endWrite();
 23fc078:	4658      	mov	r0, fp
 23fc07a:	f8db 3000 	ldr.w	r3, [fp]
 23fc07e:	6adb      	ldr	r3, [r3, #44]	; 0x2c
}
 23fc080:	b011      	add	sp, #68	; 0x44
 23fc082:	ecbd 8b02 	vpop	{d8}
 23fc086:	e8bd 4ff0 	ldmia.w	sp!, {r4, r5, r6, r7, r8, r9, sl, fp, lr}
    endWrite();
 23fc08a:	4718      	bx	r3
            writeFillRect(x + i * size_x, y + j * size_y, size_x, size_y,
 23fc08c:	fb14 f202 	smulbb	r2, r4, r2
 23fc090:	9906      	ldr	r1, [sp, #24]
 23fc092:	440a      	add	r2, r1
 23fc094:	9904      	ldr	r1, [sp, #16]
 23fc096:	9101      	str	r1, [sp, #4]
            writeFillRect(x + i * size_x, y + j * size_y, size_x, size_y, bg);
 23fc098:	9400      	str	r4, [sp, #0]
 23fc09a:	69db      	ldr	r3, [r3, #28]
 23fc09c:	ee18 1a10 	vmov	r1, s16
 23fc0a0:	461f      	mov	r7, r3
 23fc0a2:	4658      	mov	r0, fp
 23fc0a4:	462b      	mov	r3, r5
 23fc0a6:	b212      	sxth	r2, r2
 23fc0a8:	47b8      	blx	r7
 23fc0aa:	e7bb      	b.n	23fc024 <_ZN12Adafruit_GFX8drawCharEsshtthh+0xe0>
        } else if (bg != color) {
 23fc0ac:	9a04      	ldr	r2, [sp, #16]
 23fc0ae:	4542      	cmp	r2, r8
 23fc0b0:	d0b8      	beq.n	23fc024 <_ZN12Adafruit_GFX8drawCharEsshtthh+0xe0>
          if (size_x == 1 && size_y == 1)
 23fc0b2:	2d01      	cmp	r5, #1
            writePixel(x + i, y + j, color);
 23fc0b4:	fa1f f289 	uxth.w	r2, r9
          if (size_x == 1 && size_y == 1)
 23fc0b8:	d107      	bne.n	23fc0ca <_ZN12Adafruit_GFX8drawCharEsshtthh+0x186>
 23fc0ba:	2c01      	cmp	r4, #1
 23fc0bc:	d105      	bne.n	23fc0ca <_ZN12Adafruit_GFX8drawCharEsshtthh+0x186>
            writePixel(x + i, y + j, bg);
 23fc0be:	699b      	ldr	r3, [r3, #24]
 23fc0c0:	9906      	ldr	r1, [sp, #24]
 23fc0c2:	461f      	mov	r7, r3
 23fc0c4:	440a      	add	r2, r1
 23fc0c6:	4643      	mov	r3, r8
 23fc0c8:	e7a8      	b.n	23fc01c <_ZN12Adafruit_GFX8drawCharEsshtthh+0xd8>
            writeFillRect(x + i * size_x, y + j * size_y, size_x, size_y, bg);
 23fc0ca:	fb14 f202 	smulbb	r2, r4, r2
 23fc0ce:	9906      	ldr	r1, [sp, #24]
 23fc0d0:	f8cd 8004 	str.w	r8, [sp, #4]
 23fc0d4:	440a      	add	r2, r1
 23fc0d6:	e7df      	b.n	23fc098 <_ZN12Adafruit_GFX8drawCharEsshtthh+0x154>
        writeFillRect(x + 5 * size_x, y, size_x, 8 * size_y, bg);
 23fc0d8:	9a0b      	ldr	r2, [sp, #44]	; 0x2c
 23fc0da:	00e4      	lsls	r4, r4, #3
 23fc0dc:	eb02 0182 	add.w	r1, r2, r2, lsl #2
 23fc0e0:	9a08      	ldr	r2, [sp, #32]
 23fc0e2:	f8cd 8004 	str.w	r8, [sp, #4]
 23fc0e6:	440a      	add	r2, r1
 23fc0e8:	4611      	mov	r1, r2
 23fc0ea:	9400      	str	r4, [sp, #0]
 23fc0ec:	69dc      	ldr	r4, [r3, #28]
 23fc0ee:	4632      	mov	r2, r6
 23fc0f0:	462b      	mov	r3, r5
 23fc0f2:	4658      	mov	r0, fp
 23fc0f4:	b209      	sxth	r1, r1
 23fc0f6:	47a0      	blx	r4
    endWrite();
 23fc0f8:	e7be      	b.n	23fc078 <_ZN12Adafruit_GFX8drawCharEsshtthh+0x134>
    c -= (uint8_t)pgm_read_byte(&gfxFont->first);
 23fc0fa:	7a13      	ldrb	r3, [r2, #8]
  return gfxFont->glyph + c;
 23fc0fc:	6851      	ldr	r1, [r2, #4]
    c -= (uint8_t)pgm_read_byte(&gfxFont->first);
 23fc0fe:	1aff      	subs	r7, r7, r3
  return gfxFont->bitmap;
 23fc100:	6812      	ldr	r2, [r2, #0]
  return gfxFont->glyph + c;
 23fc102:	b2ff      	uxtb	r7, r7
  return gfxFont->bitmap;
 23fc104:	920b      	str	r2, [sp, #44]	; 0x2c
    uint16_t bo = pgm_read_word(&glyph->bitmapOffset);
 23fc106:	f831 2037 	ldrh.w	r2, [r1, r7, lsl #3]
  return gfxFont->glyph + c;
 23fc10a:	eb01 03c7 	add.w	r3, r1, r7, lsl #3
    uint16_t bo = pgm_read_word(&glyph->bitmapOffset);
 23fc10e:	9206      	str	r2, [sp, #24]
    uint8_t w = pgm_read_byte(&glyph->width), h = pgm_read_byte(&glyph->height);
 23fc110:	789a      	ldrb	r2, [r3, #2]
    if (size_x > 1 || size_y > 1) {
 23fc112:	2d01      	cmp	r5, #1
    uint8_t w = pgm_read_byte(&glyph->width), h = pgm_read_byte(&glyph->height);
 23fc114:	9209      	str	r2, [sp, #36]	; 0x24
 23fc116:	78da      	ldrb	r2, [r3, #3]
           yo = pgm_read_byte(&glyph->yOffset);
 23fc118:	f993 a006 	ldrsb.w	sl, [r3, #6]
    uint8_t w = pgm_read_byte(&glyph->width), h = pgm_read_byte(&glyph->height);
 23fc11c:	920c      	str	r2, [sp, #48]	; 0x30
    int8_t xo = pgm_read_byte(&glyph->xOffset),
 23fc11e:	f993 2005 	ldrsb.w	r2, [r3, #5]
 23fc122:	920a      	str	r2, [sp, #40]	; 0x28
    if (size_x > 1 || size_y > 1) {
 23fc124:	d801      	bhi.n	23fc12a <_ZN12Adafruit_GFX8drawCharEsshtthh+0x1e6>
 23fc126:	2c01      	cmp	r4, #1
 23fc128:	d957      	bls.n	23fc1da <_ZN12Adafruit_GFX8drawCharEsshtthh+0x296>
      xo16 = xo;
 23fc12a:	f9bd 3028 	ldrsh.w	r3, [sp, #40]	; 0x28
 23fc12e:	9308      	str	r3, [sp, #32]
      yo16 = yo;
 23fc130:	fa0f f38a 	sxth.w	r3, sl
 23fc134:	9307      	str	r3, [sp, #28]
    uint8_t xx, yy, bits = 0, bit = 0;
 23fc136:	f04f 0800 	mov.w	r8, #0
 23fc13a:	46c1      	mov	r9, r8
    for (yy = 0; yy < h; yy++) {
 23fc13c:	4647      	mov	r7, r8
    startWrite();
 23fc13e:	f8db 3000 	ldr.w	r3, [fp]
 23fc142:	4658      	mov	r0, fp
 23fc144:	695b      	ldr	r3, [r3, #20]
 23fc146:	4798      	blx	r3
            writeFillRect(x + (xo16 + xx) * size_x, y + (yo16 + yy) * size_y,
 23fc148:	b2b3      	uxth	r3, r6
 23fc14a:	930e      	str	r3, [sp, #56]	; 0x38
            writePixel(x + xo + xx, y + yo + yy, color);
 23fc14c:	fa1a f386 	uxtah	r3, sl, r6
 23fc150:	930f      	str	r3, [sp, #60]	; 0x3c
    for (yy = 0; yy < h; yy++) {
 23fc152:	9b0c      	ldr	r3, [sp, #48]	; 0x30
 23fc154:	429f      	cmp	r7, r3
 23fc156:	d28f      	bcs.n	23fc078 <_ZN12Adafruit_GFX8drawCharEsshtthh+0x134>
            writeFillRect(x + (xo16 + xx) * size_x, y + (yo16 + yy) * size_y,
 23fc158:	9b07      	ldr	r3, [sp, #28]
 23fc15a:	9a0e      	ldr	r2, [sp, #56]	; 0x38
 23fc15c:	443b      	add	r3, r7
 23fc15e:	fb03 2304 	mla	r3, r3, r4, r2
      for (xx = 0; xx < w; xx++) {
 23fc162:	2200      	movs	r2, #0
            writeFillRect(x + (xo16 + xx) * size_x, y + (yo16 + yy) * size_y,
 23fc164:	b21b      	sxth	r3, r3
 23fc166:	ee08 3a10 	vmov	s16, r3
 23fc16a:	4643      	mov	r3, r8
      for (xx = 0; xx < w; xx++) {
 23fc16c:	9205      	str	r2, [sp, #20]
            writePixel(x + xo + xx, y + yo + yy, color);
 23fc16e:	9a0f      	ldr	r2, [sp, #60]	; 0x3c
 23fc170:	eb02 0a07 	add.w	sl, r2, r7
 23fc174:	fa0f fa8a 	sxth.w	sl, sl
      for (xx = 0; xx < w; xx++) {
 23fc178:	9a09      	ldr	r2, [sp, #36]	; 0x24
 23fc17a:	9905      	ldr	r1, [sp, #20]
 23fc17c:	4291      	cmp	r1, r2
 23fc17e:	d241      	bcs.n	23fc204 <_ZN12Adafruit_GFX8drawCharEsshtthh+0x2c0>
        if (!(bit++ & 7)) {
 23fc180:	1c5a      	adds	r2, r3, #1
 23fc182:	b2d2      	uxtb	r2, r2
 23fc184:	075b      	lsls	r3, r3, #29
 23fc186:	920d      	str	r2, [sp, #52]	; 0x34
 23fc188:	d107      	bne.n	23fc19a <_ZN12Adafruit_GFX8drawCharEsshtthh+0x256>
          bits = pgm_read_byte(&bitmap[bo++]);
 23fc18a:	9b06      	ldr	r3, [sp, #24]
 23fc18c:	9906      	ldr	r1, [sp, #24]
 23fc18e:	9a0b      	ldr	r2, [sp, #44]	; 0x2c
 23fc190:	3301      	adds	r3, #1
 23fc192:	b29b      	uxth	r3, r3
 23fc194:	f812 9001 	ldrb.w	r9, [r2, r1]
 23fc198:	9306      	str	r3, [sp, #24]
        if (bits & 0x80) {
 23fc19a:	f019 0f80 	tst.w	r9, #128	; 0x80
 23fc19e:	d012      	beq.n	23fc1c6 <_ZN12Adafruit_GFX8drawCharEsshtthh+0x282>
          if (size_x == 1 && size_y == 1) {
 23fc1a0:	2d01      	cmp	r5, #1
            writePixel(x + xo + xx, y + yo + yy, color);
 23fc1a2:	f8db 3000 	ldr.w	r3, [fp]
            writeFillRect(x + i * size_x, y + j * size_y, size_x, size_y, bg);
 23fc1a6:	f8bd 100c 	ldrh.w	r1, [sp, #12]
          if (size_x == 1 && size_y == 1) {
 23fc1aa:	d11a      	bne.n	23fc1e2 <_ZN12Adafruit_GFX8drawCharEsshtthh+0x29e>
 23fc1ac:	2c01      	cmp	r4, #1
 23fc1ae:	d118      	bne.n	23fc1e2 <_ZN12Adafruit_GFX8drawCharEsshtthh+0x29e>
            writePixel(x + xo + xx, y + yo + yy, color);
 23fc1b0:	9a0a      	ldr	r2, [sp, #40]	; 0x28
 23fc1b2:	699b      	ldr	r3, [r3, #24]
 23fc1b4:	4411      	add	r1, r2
 23fc1b6:	9a05      	ldr	r2, [sp, #20]
 23fc1b8:	461e      	mov	r6, r3
 23fc1ba:	4411      	add	r1, r2
 23fc1bc:	4658      	mov	r0, fp
 23fc1be:	4652      	mov	r2, sl
 23fc1c0:	9b04      	ldr	r3, [sp, #16]
 23fc1c2:	b209      	sxth	r1, r1
 23fc1c4:	47b0      	blx	r6
      for (xx = 0; xx < w; xx++) {
 23fc1c6:	9e05      	ldr	r6, [sp, #20]
        bits <<= 1;
 23fc1c8:	ea4f 0949 	mov.w	r9, r9, lsl #1
      for (xx = 0; xx < w; xx++) {
 23fc1cc:	3601      	adds	r6, #1
 23fc1ce:	b2f3      	uxtb	r3, r6
 23fc1d0:	9305      	str	r3, [sp, #20]
        bits <<= 1;
 23fc1d2:	fa5f f989 	uxtb.w	r9, r9
        if (!(bit++ & 7)) {
 23fc1d6:	9b0d      	ldr	r3, [sp, #52]	; 0x34
      for (xx = 0; xx < w; xx++) {
 23fc1d8:	e7ce      	b.n	23fc178 <_ZN12Adafruit_GFX8drawCharEsshtthh+0x234>
    int16_t xo16 = 0, yo16 = 0;
 23fc1da:	2300      	movs	r3, #0
 23fc1dc:	e9cd 3307 	strd	r3, r3, [sp, #28]
 23fc1e0:	e7a9      	b.n	23fc136 <_ZN12Adafruit_GFX8drawCharEsshtthh+0x1f2>
            writeFillRect(x + (xo16 + xx) * size_x, y + (yo16 + yy) * size_y,
 23fc1e2:	9805      	ldr	r0, [sp, #20]
 23fc1e4:	9a08      	ldr	r2, [sp, #32]
 23fc1e6:	4402      	add	r2, r0
 23fc1e8:	fb02 1105 	mla	r1, r2, r5, r1
 23fc1ec:	9a04      	ldr	r2, [sp, #16]
 23fc1ee:	4658      	mov	r0, fp
 23fc1f0:	e9cd 4200 	strd	r4, r2, [sp]
 23fc1f4:	69db      	ldr	r3, [r3, #28]
 23fc1f6:	ee18 2a10 	vmov	r2, s16
 23fc1fa:	461e      	mov	r6, r3
 23fc1fc:	b209      	sxth	r1, r1
 23fc1fe:	462b      	mov	r3, r5
 23fc200:	47b0      	blx	r6
 23fc202:	e7e0      	b.n	23fc1c6 <_ZN12Adafruit_GFX8drawCharEsshtthh+0x282>
 23fc204:	9b09      	ldr	r3, [sp, #36]	; 0x24
    for (yy = 0; yy < h; yy++) {
 23fc206:	3701      	adds	r7, #1
 23fc208:	4498      	add	r8, r3
 23fc20a:	fa5f f888 	uxtb.w	r8, r8
 23fc20e:	b2ff      	uxtb	r7, r7
 23fc210:	e79f      	b.n	23fc152 <_ZN12Adafruit_GFX8drawCharEsshtthh+0x20e>
}
 23fc212:	b011      	add	sp, #68	; 0x44
 23fc214:	ecbd 8b02 	vpop	{d8}
 23fc218:	e8bd 8ff0 	ldmia.w	sp!, {r4, r5, r6, r7, r8, r9, sl, fp, pc}
 23fc21c:	023ff124 	.word	0x023ff124

023fc220 <_ZN12Adafruit_GFX5writeEh>:
size_t Adafruit_GFX::write(uint8_t c) {
 23fc220:	b5f0      	push	{r4, r5, r6, r7, lr}
  if (!gfxFont) { // 'Classic' built-in font
 23fc222:	6a02      	ldr	r2, [r0, #32]
size_t Adafruit_GFX::write(uint8_t c) {
 23fc224:	4604      	mov	r4, r0
 23fc226:	460b      	mov	r3, r1
 23fc228:	b085      	sub	sp, #20
  if (!gfxFont) { // 'Classic' built-in font
 23fc22a:	2a00      	cmp	r2, #0
 23fc22c:	d134      	bne.n	23fc298 <_ZN12Adafruit_GFX5writeEh+0x78>
    if (c == '\n') {              // Newline?
 23fc22e:	290a      	cmp	r1, #10
 23fc230:	d108      	bne.n	23fc244 <_ZN12Adafruit_GFX5writeEh+0x24>
      cursor_y += textsize_y * 8; // advance y one line
 23fc232:	8a43      	ldrh	r3, [r0, #18]
      cursor_x = 0;               // Reset x to zero,
 23fc234:	8202      	strh	r2, [r0, #16]
      cursor_y += textsize_y * 8; // advance y one line
 23fc236:	7e42      	ldrb	r2, [r0, #25]
 23fc238:	eb03 03c2 	add.w	r3, r3, r2, lsl #3
      cursor_y +=
 23fc23c:	8263      	strh	r3, [r4, #18]
}
 23fc23e:	2001      	movs	r0, #1
 23fc240:	b005      	add	sp, #20
 23fc242:	bdf0      	pop	{r4, r5, r6, r7, pc}
    } else if (c != '\r') {       // Ignore carriage returns
 23fc244:	290d      	cmp	r1, #13
 23fc246:	d0fa      	beq.n	23fc23e <_ZN12Adafruit_GFX5writeEh+0x1e>
      if (wrap && ((cursor_x + textsize_x * 6) > _width)) { // Off right?
 23fc248:	7ee1      	ldrb	r1, [r4, #27]
 23fc24a:	7e00      	ldrb	r0, [r0, #24]
      cursor_y += textsize_y * 8; // advance y one line
 23fc24c:	7e65      	ldrb	r5, [r4, #25]
      if (wrap && ((cursor_x + textsize_x * 6) > _width)) { // Off right?
 23fc24e:	b171      	cbz	r1, 23fc26e <_ZN12Adafruit_GFX5writeEh+0x4e>
 23fc250:	2106      	movs	r1, #6
 23fc252:	f9b4 6010 	ldrsh.w	r6, [r4, #16]
 23fc256:	fb11 6100 	smlabb	r1, r1, r0, r6
 23fc25a:	f9b4 600c 	ldrsh.w	r6, [r4, #12]
 23fc25e:	42b1      	cmp	r1, r6
      cursor_y += textsize_y * 8; // advance y one line
 23fc260:	bfc1      	itttt	gt
 23fc262:	f9b4 1012 	ldrshgt.w	r1, [r4, #18]
        cursor_x = 0;                                       // Reset x to zero,
 23fc266:	8222      	strhgt	r2, [r4, #16]
        cursor_y += textsize_y * 8; // advance y one line
 23fc268:	eb01 02c5 	addgt.w	r2, r1, r5, lsl #3
 23fc26c:	8262      	strhgt	r2, [r4, #18]
      drawChar(cursor_x, cursor_y, c, textcolor, textbgcolor, textsize_x,
 23fc26e:	8ae2      	ldrh	r2, [r4, #22]
 23fc270:	e9cd 0502 	strd	r0, r5, [sp, #8]
 23fc274:	9201      	str	r2, [sp, #4]
 23fc276:	8aa2      	ldrh	r2, [r4, #20]
 23fc278:	4620      	mov	r0, r4
 23fc27a:	9200      	str	r2, [sp, #0]
 23fc27c:	f9b4 1010 	ldrsh.w	r1, [r4, #16]
 23fc280:	f9b4 2012 	ldrsh.w	r2, [r4, #18]
 23fc284:	f7ff fe5e 	bl	23fbf44 <_ZN12Adafruit_GFX8drawCharEsshtthh>
      cursor_x += textsize_x * 6; // Advance x one char
 23fc288:	7e23      	ldrb	r3, [r4, #24]
 23fc28a:	8a22      	ldrh	r2, [r4, #16]
 23fc28c:	eb03 0343 	add.w	r3, r3, r3, lsl #1
 23fc290:	eb02 0343 	add.w	r3, r2, r3, lsl #1
        cursor_x +=
 23fc294:	8223      	strh	r3, [r4, #16]
 23fc296:	e7d2      	b.n	23fc23e <_ZN12Adafruit_GFX5writeEh+0x1e>
    if (c == '\n') {
 23fc298:	290a      	cmp	r1, #10
 23fc29a:	d107      	bne.n	23fc2ac <_ZN12Adafruit_GFX5writeEh+0x8c>
      cursor_x = 0;
 23fc29c:	2300      	movs	r3, #0
 23fc29e:	8203      	strh	r3, [r0, #16]
          (int16_t)textsize_y * (uint8_t)pgm_read_byte(&gfxFont->yAdvance);
 23fc2a0:	7e41      	ldrb	r1, [r0, #25]
 23fc2a2:	7b12      	ldrb	r2, [r2, #12]
      cursor_y +=
 23fc2a4:	8a43      	ldrh	r3, [r0, #18]
 23fc2a6:	fb01 3302 	mla	r3, r1, r2, r3
 23fc2aa:	e7c7      	b.n	23fc23c <_ZN12Adafruit_GFX5writeEh+0x1c>
    } else if (c != '\r') {
 23fc2ac:	290d      	cmp	r1, #13
 23fc2ae:	d0c6      	beq.n	23fc23e <_ZN12Adafruit_GFX5writeEh+0x1e>
      uint8_t first = pgm_read_byte(&gfxFont->first);
 23fc2b0:	7a15      	ldrb	r5, [r2, #8]
      if ((c >= first) && (c <= (uint8_t)pgm_read_byte(&gfxFont->last))) {
 23fc2b2:	42a9      	cmp	r1, r5
 23fc2b4:	d3c3      	bcc.n	23fc23e <_ZN12Adafruit_GFX5writeEh+0x1e>
 23fc2b6:	7a91      	ldrb	r1, [r2, #10]
 23fc2b8:	4299      	cmp	r1, r3
 23fc2ba:	d3c0      	bcc.n	23fc23e <_ZN12Adafruit_GFX5writeEh+0x1e>
  return gfxFont->glyph + c;
 23fc2bc:	6851      	ldr	r1, [r2, #4]
        GFXglyph *glyph = pgm_read_glyph_ptr(gfxFont, c - first);
 23fc2be:	1b5d      	subs	r5, r3, r5
  return gfxFont->glyph + c;
 23fc2c0:	b2ed      	uxtb	r5, r5
 23fc2c2:	eb01 05c5 	add.w	r5, r1, r5, lsl #3
        uint8_t w = pgm_read_byte(&glyph->width),
 23fc2c6:	78a8      	ldrb	r0, [r5, #2]
        if ((w > 0) && (h > 0)) { // Is there an associated bitmap?
 23fc2c8:	b328      	cbz	r0, 23fc316 <_ZN12Adafruit_GFX5writeEh+0xf6>
 23fc2ca:	78e9      	ldrb	r1, [r5, #3]
 23fc2cc:	b319      	cbz	r1, 23fc316 <_ZN12Adafruit_GFX5writeEh+0xf6>
          if (wrap && ((cursor_x + textsize_x * (xo + w)) > _width)) {
 23fc2ce:	7ee1      	ldrb	r1, [r4, #27]
      if (wrap && ((cursor_x + textsize_x * 6) > _width)) { // Off right?
 23fc2d0:	7e26      	ldrb	r6, [r4, #24]
      cursor_y += textsize_y * 8; // advance y one line
 23fc2d2:	7e67      	ldrb	r7, [r4, #25]
          if (wrap && ((cursor_x + textsize_x * (xo + w)) > _width)) {
 23fc2d4:	b191      	cbz	r1, 23fc2fc <_ZN12Adafruit_GFX5writeEh+0xdc>
 23fc2d6:	f995 1005 	ldrsb.w	r1, [r5, #5]
 23fc2da:	4408      	add	r0, r1
 23fc2dc:	f9b4 1010 	ldrsh.w	r1, [r4, #16]
 23fc2e0:	fb06 1100 	mla	r1, r6, r0, r1
 23fc2e4:	f9b4 000c 	ldrsh.w	r0, [r4, #12]
 23fc2e8:	4281      	cmp	r1, r0
 23fc2ea:	dd07      	ble.n	23fc2fc <_ZN12Adafruit_GFX5writeEh+0xdc>
            cursor_x = 0;
 23fc2ec:	2000      	movs	r0, #0
 23fc2ee:	8220      	strh	r0, [r4, #16]
      cursor_y += textsize_y * 8; // advance y one line
 23fc2f0:	f9b4 1012 	ldrsh.w	r1, [r4, #18]
                        (uint8_t)pgm_read_byte(&gfxFont->yAdvance);
 23fc2f4:	7b12      	ldrb	r2, [r2, #12]
            cursor_y += (int16_t)textsize_y *
 23fc2f6:	fb02 1207 	mla	r2, r2, r7, r1
 23fc2fa:	8262      	strh	r2, [r4, #18]
          drawChar(cursor_x, cursor_y, c, textcolor, textbgcolor, textsize_x,
 23fc2fc:	8ae2      	ldrh	r2, [r4, #22]
 23fc2fe:	4620      	mov	r0, r4
 23fc300:	9201      	str	r2, [sp, #4]
 23fc302:	8aa2      	ldrh	r2, [r4, #20]
 23fc304:	e9cd 6702 	strd	r6, r7, [sp, #8]
 23fc308:	9200      	str	r2, [sp, #0]
 23fc30a:	f9b4 1010 	ldrsh.w	r1, [r4, #16]
 23fc30e:	f9b4 2012 	ldrsh.w	r2, [r4, #18]
 23fc312:	f7ff fe17 	bl	23fbf44 <_ZN12Adafruit_GFX8drawCharEsshtthh>
            (uint8_t)pgm_read_byte(&glyph->xAdvance) * (int16_t)textsize_x;
 23fc316:	7929      	ldrb	r1, [r5, #4]
 23fc318:	7e22      	ldrb	r2, [r4, #24]
        cursor_x +=
 23fc31a:	8a23      	ldrh	r3, [r4, #16]
 23fc31c:	fb01 3302 	mla	r3, r1, r2, r3
 23fc320:	e7b8      	b.n	23fc294 <_ZN12Adafruit_GFX5writeEh+0x74>
	...

023fc324 <_ZN14Adafruit_SHT31C1EP7TwoWire>:
/*!
 * @brief  SHT31 constructor using i2c
 * @param  *theWire
 *         optional wire
 */
Adafruit_SHT31::Adafruit_SHT31(TwoWire *theWire) {
 23fc324:	2200      	movs	r2, #0
  _wire = theWire;
 23fc326:	e9c0 1202 	strd	r1, r2, [r0, #8]

  humidity = NAN;
 23fc32a:	4a02      	ldr	r2, [pc, #8]	; (23fc334 <_ZN14Adafruit_SHT31C1EP7TwoWire+0x10>)
 23fc32c:	6002      	str	r2, [r0, #0]
  temp = NAN;
 23fc32e:	6042      	str	r2, [r0, #4]
}
 23fc330:	4770      	bx	lr
 23fc332:	bf00      	nop
 23fc334:	7fc00000 	.word	0x7fc00000

023fc338 <_ZN8particle11SPISettingsD1Ev>:
  SPISettings()
  {
  }

  virtual ~SPISettings() {
  }
 23fc338:	4770      	bx	lr

023fc33a <_ZN8particle11SPISettingsD0Ev>:
  virtual ~SPISettings() {
 23fc33a:	b510      	push	{r4, lr}
 23fc33c:	4604      	mov	r4, r0
  }
 23fc33e:	2110      	movs	r1, #16
 23fc340:	f7ff f9db 	bl	23fb6fa <_ZdlPvj>
 23fc344:	4620      	mov	r0, r4
 23fc346:	bd10      	pop	{r4, pc}

023fc348 <_ZN5Print6printfEPKcz>:

    size_t println(const Printable&);
    size_t println(void);
    size_t println(const __FlashStringHelper*);

    size_t printf(const char* format, ...) __attribute__ ((format(printf, 2, 3)))
 23fc348:	b40e      	push	{r1, r2, r3}
 23fc34a:	b503      	push	{r0, r1, lr}
 23fc34c:	ab03      	add	r3, sp, #12
 23fc34e:	f853 2b04 	ldr.w	r2, [r3], #4
    {
        va_list args;
        va_start(args, format);
        auto r = this->vprintf(false, format, args);
 23fc352:	2100      	movs	r1, #0
        va_start(args, format);
 23fc354:	9301      	str	r3, [sp, #4]
        auto r = this->vprintf(false, format, args);
 23fc356:	f002 f9a2 	bl	23fe69e <_ZN5Print7vprintfEbPKcSt9__va_list>
        va_end(args);
        return r;
    }
 23fc35a:	b002      	add	sp, #8
 23fc35c:	f85d eb04 	ldr.w	lr, [sp], #4
 23fc360:	b003      	add	sp, #12
 23fc362:	4770      	bx	lr

023fc364 <_ZNK8particle11SPISettings7printToER5Print>:
  bool operator!=(const SPISettings& other) const
  {
    return !(other == *this);
  }

  virtual size_t printTo(Print& p) const
 23fc364:	b573      	push	{r0, r1, r4, r5, r6, lr}
 23fc366:	4604      	mov	r4, r0
  {
    if (default_ && clock_ == 0)
 23fc368:	7922      	ldrb	r2, [r4, #4]
  virtual size_t printTo(Print& p) const
 23fc36a:	4608      	mov	r0, r1
    if (default_ && clock_ == 0)
 23fc36c:	68a3      	ldr	r3, [r4, #8]
 23fc36e:	b132      	cbz	r2, 23fc37e <_ZNK8particle11SPISettings7printToER5Print+0x1a>
 23fc370:	b9a3      	cbnz	r3, 23fc39c <_ZNK8particle11SPISettings7printToER5Print+0x38>
      return p.print("<SPISettings default>");
 23fc372:	490b      	ldr	r1, [pc, #44]	; (23fc3a0 <_ZNK8particle11SPISettings7printToER5Print+0x3c>)
    else
      return p.printf("<SPISettings %s%u %s MODE%u>", default_ ? "default " : "", (unsigned int)clock_,
          bitOrder_ == MSBFIRST ? "MSB" : "LSB", (unsigned int)dataMode_);
  }
 23fc374:	b002      	add	sp, #8
 23fc376:	e8bd 4070 	ldmia.w	sp!, {r4, r5, r6, lr}
      return p.print("<SPISettings default>");
 23fc37a:	f002 b955 	b.w	23fe628 <_ZN5Print5printEPKc>
      return p.printf("<SPISettings %s%u %s MODE%u>", default_ ? "default " : "", (unsigned int)clock_,
 23fc37e:	4a09      	ldr	r2, [pc, #36]	; (23fc3a4 <_ZNK8particle11SPISettings7printToER5Print+0x40>)
 23fc380:	7b26      	ldrb	r6, [r4, #12]
 23fc382:	4d09      	ldr	r5, [pc, #36]	; (23fc3a8 <_ZNK8particle11SPISettings7printToER5Print+0x44>)
 23fc384:	4909      	ldr	r1, [pc, #36]	; (23fc3ac <_ZNK8particle11SPISettings7printToER5Print+0x48>)
 23fc386:	7b64      	ldrb	r4, [r4, #13]
 23fc388:	2e01      	cmp	r6, #1
 23fc38a:	bf18      	it	ne
 23fc38c:	4629      	movne	r1, r5
 23fc38e:	e9cd 1400 	strd	r1, r4, [sp]
 23fc392:	4907      	ldr	r1, [pc, #28]	; (23fc3b0 <_ZNK8particle11SPISettings7printToER5Print+0x4c>)
 23fc394:	f7ff ffd8 	bl	23fc348 <_ZN5Print6printfEPKcz>
  }
 23fc398:	b002      	add	sp, #8
 23fc39a:	bd70      	pop	{r4, r5, r6, pc}
      return p.printf("<SPISettings %s%u %s MODE%u>", default_ ? "default " : "", (unsigned int)clock_,
 23fc39c:	4a05      	ldr	r2, [pc, #20]	; (23fc3b4 <_ZNK8particle11SPISettings7printToER5Print+0x50>)
 23fc39e:	e7ef      	b.n	23fc380 <_ZNK8particle11SPISettings7printToER5Print+0x1c>
 23fc3a0:	023ff68d 	.word	0x023ff68d
 23fc3a4:	023ff684 	.word	0x023ff684
 23fc3a8:	023ff689 	.word	0x023ff689
 23fc3ac:	023ff685 	.word	0x023ff685
 23fc3b0:	023ff6a3 	.word	0x023ff6a3
 23fc3b4:	023ff67c 	.word	0x023ff67c

023fc3b8 <_ZN16Adafruit_SSD1306D1Ev>:
      rstPin(rst_pin) {}

/*!
    @brief  Destructor for Adafruit_SSD1306 object.
*/
Adafruit_SSD1306::~Adafruit_SSD1306(void) {
 23fc3b8:	b510      	push	{r4, lr}
 23fc3ba:	4b04      	ldr	r3, [pc, #16]	; (23fc3cc <_ZN16Adafruit_SSD1306D1Ev+0x14>)
 23fc3bc:	4604      	mov	r4, r0
 23fc3be:	6003      	str	r3, [r0, #0]
  if (buffer) {
 23fc3c0:	6ac0      	ldr	r0, [r0, #44]	; 0x2c
 23fc3c2:	b108      	cbz	r0, 23fc3c8 <_ZN16Adafruit_SSD1306D1Ev+0x10>
    free(buffer);
 23fc3c4:	f001 fb5e 	bl	23fda84 <free>
    buffer = NULL;
  }
}
 23fc3c8:	4620      	mov	r0, r4
 23fc3ca:	bd10      	pop	{r4, pc}
 23fc3cc:	023ffb7c 	.word	0x023ffb7c

023fc3d0 <_ZN16Adafruit_SSD1306D0Ev>:
Adafruit_SSD1306::~Adafruit_SSD1306(void) {
 23fc3d0:	b510      	push	{r4, lr}
 23fc3d2:	4604      	mov	r4, r0
}
 23fc3d4:	f7ff fff0 	bl	23fc3b8 <_ZN16Adafruit_SSD1306D1Ev>
 23fc3d8:	4620      	mov	r0, r4
 23fc3da:	2174      	movs	r1, #116	; 0x74
 23fc3dc:	f7ff f98d 	bl	23fb6fa <_ZdlPvj>
 23fc3e0:	4620      	mov	r0, r4
 23fc3e2:	bd10      	pop	{r4, pc}

023fc3e4 <_ZN16Adafruit_SSD13069drawPixelEsst>:
    @note   Changes buffer contents only, no immediate effect on display.
            Follow up with a call to display(), or with other graphics
            commands as needed by one's own application.
*/
void Adafruit_SSD1306::drawPixel(int16_t x, int16_t y, uint16_t color) {
  if ((x >= 0) && (x < width()) && (y >= 0) && (y < height())) {
 23fc3e4:	2900      	cmp	r1, #0
void Adafruit_SSD1306::drawPixel(int16_t x, int16_t y, uint16_t color) {
 23fc3e6:	b510      	push	{r4, lr}
  if ((x >= 0) && (x < width()) && (y >= 0) && (y < height())) {
 23fc3e8:	db4b      	blt.n	23fc482 <_ZN16Adafruit_SSD13069drawPixelEsst+0x9e>
 23fc3ea:	f9b0 400c 	ldrsh.w	r4, [r0, #12]
 23fc3ee:	428c      	cmp	r4, r1
 23fc3f0:	dd47      	ble.n	23fc482 <_ZN16Adafruit_SSD13069drawPixelEsst+0x9e>
 23fc3f2:	2a00      	cmp	r2, #0
 23fc3f4:	db45      	blt.n	23fc482 <_ZN16Adafruit_SSD13069drawPixelEsst+0x9e>
 23fc3f6:	f9b0 400e 	ldrsh.w	r4, [r0, #14]
 23fc3fa:	4294      	cmp	r4, r2
 23fc3fc:	dd41      	ble.n	23fc482 <_ZN16Adafruit_SSD13069drawPixelEsst+0x9e>
  /*!
    @brief      Get rotation setting for display
    @returns    0 thru 3 corresponding to 4 cardinal rotations
  */
  /************************************************************************/
  uint8_t getRotation(void) const { return rotation; }
 23fc3fe:	7e84      	ldrb	r4, [r0, #26]
    // Pixel is in-bounds. Rotate coordinates if needed.
    switch (getRotation()) {
 23fc400:	2c02      	cmp	r4, #2
 23fc402:	d01f      	beq.n	23fc444 <_ZN16Adafruit_SSD13069drawPixelEsst+0x60>
 23fc404:	2c03      	cmp	r4, #3
 23fc406:	d026      	beq.n	23fc456 <_ZN16Adafruit_SSD13069drawPixelEsst+0x72>
 23fc408:	2c01      	cmp	r4, #1
 23fc40a:	d104      	bne.n	23fc416 <_ZN16Adafruit_SSD13069drawPixelEsst+0x32>
    case 1:
      ssd1306_swap(x, y);
      x = WIDTH - x - 1;
 23fc40c:	43d2      	mvns	r2, r2
 23fc40e:	8904      	ldrh	r4, [r0, #8]
 23fc410:	4414      	add	r4, r2
      break;
 23fc412:	460a      	mov	r2, r1
      x = WIDTH - x - 1;
 23fc414:	b221      	sxth	r1, r4
    case 3:
      ssd1306_swap(x, y);
      y = HEIGHT - y - 1;
      break;
    }
    switch (color) {
 23fc416:	2b01      	cmp	r3, #1
 23fc418:	d023      	beq.n	23fc462 <_ZN16Adafruit_SSD13069drawPixelEsst+0x7e>
 23fc41a:	2b02      	cmp	r3, #2
 23fc41c:	d032      	beq.n	23fc484 <_ZN16Adafruit_SSD13069drawPixelEsst+0xa0>
 23fc41e:	bb83      	cbnz	r3, 23fc482 <_ZN16Adafruit_SSD13069drawPixelEsst+0x9e>
    case SSD1306_WHITE:
      buffer[x + (y / 8) * WIDTH] |= (1 << (y & 7));
      break;
    case SSD1306_BLACK:
      buffer[x + (y / 8) * WIDTH] &= ~(1 << (y & 7));
 23fc420:	4613      	mov	r3, r2
 23fc422:	2a00      	cmp	r2, #0
 23fc424:	8904      	ldrh	r4, [r0, #8]
 23fc426:	bfb8      	it	lt
 23fc428:	1dd3      	addlt	r3, r2, #7
 23fc42a:	10db      	asrs	r3, r3, #3
 23fc42c:	fb13 1104 	smlabb	r1, r3, r4, r1
 23fc430:	2301      	movs	r3, #1
 23fc432:	6ac0      	ldr	r0, [r0, #44]	; 0x2c
 23fc434:	f002 0207 	and.w	r2, r2, #7
 23fc438:	4093      	lsls	r3, r2
 23fc43a:	5c42      	ldrb	r2, [r0, r1]
 23fc43c:	ea22 0203 	bic.w	r2, r2, r3
      break;
    case SSD1306_INVERSE:
      buffer[x + (y / 8) * WIDTH] ^= (1 << (y & 7));
 23fc440:	5442      	strb	r2, [r0, r1]
      break;
    }
  }
}
 23fc442:	e01e      	b.n	23fc482 <_ZN16Adafruit_SSD13069drawPixelEsst+0x9e>
      y = HEIGHT - y - 1;
 23fc444:	43d2      	mvns	r2, r2
      x = WIDTH - x - 1;
 23fc446:	8904      	ldrh	r4, [r0, #8]
 23fc448:	3c01      	subs	r4, #1
 23fc44a:	1a61      	subs	r1, r4, r1
      y = HEIGHT - y - 1;
 23fc44c:	8944      	ldrh	r4, [r0, #10]
      x = WIDTH - x - 1;
 23fc44e:	b209      	sxth	r1, r1
      y = HEIGHT - y - 1;
 23fc450:	4422      	add	r2, r4
 23fc452:	b212      	sxth	r2, r2
      break;
 23fc454:	e7df      	b.n	23fc416 <_ZN16Adafruit_SSD13069drawPixelEsst+0x32>
      y = HEIGHT - y - 1;
 23fc456:	8944      	ldrh	r4, [r0, #10]
 23fc458:	3c01      	subs	r4, #1
 23fc45a:	1a64      	subs	r4, r4, r1
      break;
 23fc45c:	4611      	mov	r1, r2
      y = HEIGHT - y - 1;
 23fc45e:	b222      	sxth	r2, r4
      break;
 23fc460:	e7d9      	b.n	23fc416 <_ZN16Adafruit_SSD13069drawPixelEsst+0x32>
      buffer[x + (y / 8) * WIDTH] |= (1 << (y & 7));
 23fc462:	4613      	mov	r3, r2
 23fc464:	2a00      	cmp	r2, #0
 23fc466:	8904      	ldrh	r4, [r0, #8]
 23fc468:	bfb8      	it	lt
 23fc46a:	1dd3      	addlt	r3, r2, #7
 23fc46c:	10db      	asrs	r3, r3, #3
 23fc46e:	fb13 1104 	smlabb	r1, r3, r4, r1
 23fc472:	6ac3      	ldr	r3, [r0, #44]	; 0x2c
 23fc474:	f002 0007 	and.w	r0, r2, #7
 23fc478:	2201      	movs	r2, #1
 23fc47a:	4082      	lsls	r2, r0
 23fc47c:	5c58      	ldrb	r0, [r3, r1]
 23fc47e:	4302      	orrs	r2, r0
 23fc480:	545a      	strb	r2, [r3, r1]
}
 23fc482:	bd10      	pop	{r4, pc}
      buffer[x + (y / 8) * WIDTH] ^= (1 << (y & 7));
 23fc484:	4613      	mov	r3, r2
 23fc486:	2a00      	cmp	r2, #0
 23fc488:	8904      	ldrh	r4, [r0, #8]
 23fc48a:	bfb8      	it	lt
 23fc48c:	1dd3      	addlt	r3, r2, #7
 23fc48e:	10db      	asrs	r3, r3, #3
 23fc490:	fb13 1104 	smlabb	r1, r3, r4, r1
 23fc494:	2301      	movs	r3, #1
 23fc496:	6ac0      	ldr	r0, [r0, #44]	; 0x2c
 23fc498:	f002 0207 	and.w	r2, r2, #7
 23fc49c:	fa03 f202 	lsl.w	r2, r3, r2
 23fc4a0:	5c43      	ldrb	r3, [r0, r1]
 23fc4a2:	405a      	eors	r2, r3
 23fc4a4:	e7cc      	b.n	23fc440 <_ZN16Adafruit_SSD13069drawPixelEsst+0x5c>
	...

023fc4a8 <_ZN16Adafruit_SSD1306C1EhhP7TwoWireamm>:
Adafruit_SSD1306::Adafruit_SSD1306(uint8_t w, uint8_t h, TwoWire *twi,
 23fc4a8:	b570      	push	{r4, r5, r6, lr}
 23fc4aa:	4604      	mov	r4, r0
 23fc4ac:	461d      	mov	r5, r3
      wireClk(clkDuring), restoreClk(clkAfter)
 23fc4ae:	2600      	movs	r6, #0
 23fc4b0:	f7ff fcde 	bl	23fbe70 <_ZN12Adafruit_GFXC1Ess>
 23fc4b4:	4b11      	ldr	r3, [pc, #68]	; (23fc4fc <_ZN16Adafruit_SSD1306C1EhhP7TwoWireamm+0x54>)
 23fc4b6:	6266      	str	r6, [r4, #36]	; 0x24
 23fc4b8:	6023      	str	r3, [r4, #0]
    : Adafruit_GFX(w, h), spi(NULL), wire(twi ? twi : &Wire), buffer(NULL),
 23fc4ba:	b915      	cbnz	r5, 23fc4c2 <_ZN16Adafruit_SSD1306C1EhhP7TwoWireamm+0x1a>
 23fc4bc:	f002 fcac 	bl	23fee18 <_Z19__fetch_global_Wirev>
 23fc4c0:	4605      	mov	r5, r0
      wireClk(clkDuring), restoreClk(clkAfter)
 23fc4c2:	23ff      	movs	r3, #255	; 0xff
 23fc4c4:	f884 3033 	strb.w	r3, [r4, #51]	; 0x33
 23fc4c8:	f884 3036 	strb.w	r3, [r4, #54]	; 0x36
 23fc4cc:	f99d 3010 	ldrsb.w	r3, [sp, #16]
 23fc4d0:	f64f 72ff 	movw	r2, #65535	; 0xffff
 23fc4d4:	f884 3037 	strb.w	r3, [r4, #55]	; 0x37
 23fc4d8:	9b05      	ldr	r3, [sp, #20]
}
 23fc4da:	4620      	mov	r0, r4
      wireClk(clkDuring), restoreClk(clkAfter)
 23fc4dc:	65a3      	str	r3, [r4, #88]	; 0x58
 23fc4de:	9b06      	ldr	r3, [sp, #24]
 23fc4e0:	e9c4 560a 	strd	r5, r6, [r4, #40]	; 0x28
 23fc4e4:	65e3      	str	r3, [r4, #92]	; 0x5c
  {
 23fc4e6:	4b06      	ldr	r3, [pc, #24]	; (23fc500 <_ZN16Adafruit_SSD1306C1EhhP7TwoWireamm+0x58>)
 23fc4e8:	86a2      	strh	r2, [r4, #52]	; 0x34
 23fc4ea:	6663      	str	r3, [r4, #100]	; 0x64
 23fc4ec:	2301      	movs	r3, #1
 23fc4ee:	66e6      	str	r6, [r4, #108]	; 0x6c
 23fc4f0:	f884 3068 	strb.w	r3, [r4, #104]	; 0x68
 23fc4f4:	f8a4 6070 	strh.w	r6, [r4, #112]	; 0x70
}
 23fc4f8:	bd70      	pop	{r4, r5, r6, pc}
 23fc4fa:	bf00      	nop
 23fc4fc:	023ffb7c 	.word	0x023ffb7c
 23fc500:	023ff6c8 	.word	0x023ff6c8

023fc504 <_ZN16Adafruit_SSD130616ssd1306_command1Eh>:
void Adafruit_SSD1306::ssd1306_command1(uint8_t c) {
 23fc504:	b570      	push	{r4, r5, r6, lr}
 23fc506:	4604      	mov	r4, r0
  if (wire) { // I2C
 23fc508:	6a80      	ldr	r0, [r0, #40]	; 0x28
void Adafruit_SSD1306::ssd1306_command1(uint8_t c) {
 23fc50a:	460d      	mov	r5, r1
  if (wire) { // I2C
 23fc50c:	b190      	cbz	r0, 23fc534 <_ZN16Adafruit_SSD130616ssd1306_command1Eh+0x30>
    wire->beginTransmission(i2caddr);
 23fc50e:	f994 1030 	ldrsb.w	r1, [r4, #48]	; 0x30
 23fc512:	f001 feeb 	bl	23fe2ec <_ZN7TwoWire17beginTransmissionEi>
    WIRE_WRITE((uint8_t)0x00); // Co = 0, D/C = 0
 23fc516:	6aa0      	ldr	r0, [r4, #40]	; 0x28
 23fc518:	2100      	movs	r1, #0
 23fc51a:	6803      	ldr	r3, [r0, #0]
 23fc51c:	689b      	ldr	r3, [r3, #8]
 23fc51e:	4798      	blx	r3
    WIRE_WRITE(c);
 23fc520:	6aa0      	ldr	r0, [r4, #40]	; 0x28
 23fc522:	4629      	mov	r1, r5
 23fc524:	6803      	ldr	r3, [r0, #0]
 23fc526:	689b      	ldr	r3, [r3, #8]
 23fc528:	4798      	blx	r3
    wire->endTransmission();
 23fc52a:	6aa0      	ldr	r0, [r4, #40]	; 0x28
}
 23fc52c:	e8bd 4070 	ldmia.w	sp!, {r4, r5, r6, lr}
    wire->endTransmission();
 23fc530:	f001 bee3 	b.w	23fe2fa <_ZN7TwoWire15endTransmissionEv>
    SSD1306_MODE_COMMAND
 23fc534:	6c22      	ldr	r2, [r4, #64]	; 0x40
 23fc536:	6d20      	ldr	r0, [r4, #80]	; 0x50
 23fc538:	6813      	ldr	r3, [r2, #0]
 23fc53a:	ea23 0300 	bic.w	r3, r3, r0
 23fc53e:	6013      	str	r3, [r2, #0]
  if (spi) {
 23fc540:	6a60      	ldr	r0, [r4, #36]	; 0x24
 23fc542:	b118      	cbz	r0, 23fc54c <_ZN16Adafruit_SSD130616ssd1306_command1Eh+0x48>
}
 23fc544:	e8bd 4070 	ldmia.w	sp!, {r4, r5, r6, lr}
    (void)spi->transfer(d);
 23fc548:	f002 b9b0 	b.w	23fe8ac <_ZN8SPIClass8transferEh>
 23fc54c:	2208      	movs	r2, #8
    for (uint8_t bit = 0x80; bit; bit >>= 1) {
 23fc54e:	2180      	movs	r1, #128	; 0x80
        *mosiPort |= mosiPinMask;
 23fc550:	6ba3      	ldr	r3, [r4, #56]	; 0x38
 23fc552:	6ca6      	ldr	r6, [r4, #72]	; 0x48
 23fc554:	6818      	ldr	r0, [r3, #0]
      if (d & bit)
 23fc556:	420d      	tst	r5, r1
        *mosiPort |= mosiPinMask;
 23fc558:	bf14      	ite	ne
 23fc55a:	4330      	orrne	r0, r6
        *mosiPort &= ~mosiPinMask;
 23fc55c:	43b0      	biceq	r0, r6
 23fc55e:	6018      	str	r0, [r3, #0]
      *clkPort |= clkPinMask;  // Clock high
 23fc560:	6be0      	ldr	r0, [r4, #60]	; 0x3c
 23fc562:	6ce6      	ldr	r6, [r4, #76]	; 0x4c
 23fc564:	6803      	ldr	r3, [r0, #0]
    for (uint8_t bit = 0x80; bit; bit >>= 1) {
 23fc566:	3a01      	subs	r2, #1
      *clkPort |= clkPinMask;  // Clock high
 23fc568:	ea43 0306 	orr.w	r3, r3, r6
 23fc56c:	6003      	str	r3, [r0, #0]
      *clkPort &= ~clkPinMask; // Clock low
 23fc56e:	6be0      	ldr	r0, [r4, #60]	; 0x3c
 23fc570:	6ce6      	ldr	r6, [r4, #76]	; 0x4c
 23fc572:	6803      	ldr	r3, [r0, #0]
    for (uint8_t bit = 0x80; bit; bit >>= 1) {
 23fc574:	ea4f 0151 	mov.w	r1, r1, lsr #1
      *clkPort &= ~clkPinMask; // Clock low
 23fc578:	ea23 0306 	bic.w	r3, r3, r6
 23fc57c:	6003      	str	r3, [r0, #0]
    for (uint8_t bit = 0x80; bit; bit >>= 1) {
 23fc57e:	d1e7      	bne.n	23fc550 <_ZN16Adafruit_SSD130616ssd1306_command1Eh+0x4c>
}
 23fc580:	bd70      	pop	{r4, r5, r6, pc}

023fc582 <_ZN16Adafruit_SSD130613invertDisplayEb>:
            display() function -- buffer contents are not changed, rather a
            different pixel mode of the display hardware is used. When
            enabled, drawing SSD1306_BLACK (value 0) pixels will actually draw
   white, SSD1306_WHITE (value 1) will draw black.
*/
void Adafruit_SSD1306::invertDisplay(bool i) {
 23fc582:	b538      	push	{r3, r4, r5, lr}
 23fc584:	4604      	mov	r4, r0
  TRANSACTION_START
 23fc586:	6a80      	ldr	r0, [r0, #40]	; 0x28
void Adafruit_SSD1306::invertDisplay(bool i) {
 23fc588:	460d      	mov	r5, r1
  TRANSACTION_START
 23fc58a:	b180      	cbz	r0, 23fc5ae <_ZN16Adafruit_SSD130613invertDisplayEb+0x2c>

public:
  TwoWire(hal_i2c_interface_t i2c, const hal_i2c_config_t& config);
  virtual ~TwoWire() {};
  inline void setClock(uint32_t speed) {
	  setSpeed(speed);
 23fc58c:	6da1      	ldr	r1, [r4, #88]	; 0x58
 23fc58e:	f001 fe7b 	bl	23fe288 <_ZN7TwoWire8setSpeedEm>
  ssd1306_command1(i ? SSD1306_INVERTDISPLAY : SSD1306_NORMALDISPLAY);
 23fc592:	2d00      	cmp	r5, #0
 23fc594:	4620      	mov	r0, r4
 23fc596:	bf14      	ite	ne
 23fc598:	21a7      	movne	r1, #167	; 0xa7
 23fc59a:	21a6      	moveq	r1, #166	; 0xa6
 23fc59c:	f7ff ffb2 	bl	23fc504 <_ZN16Adafruit_SSD130616ssd1306_command1Eh>
  TRANSACTION_END
 23fc5a0:	6aa0      	ldr	r0, [r4, #40]	; 0x28
 23fc5a2:	b188      	cbz	r0, 23fc5c8 <_ZN16Adafruit_SSD130613invertDisplayEb+0x46>
 23fc5a4:	6de1      	ldr	r1, [r4, #92]	; 0x5c
}
 23fc5a6:	e8bd 4038 	ldmia.w	sp!, {r3, r4, r5, lr}
 23fc5aa:	f001 be6d 	b.w	23fe288 <_ZN7TwoWire8setSpeedEm>
  TRANSACTION_START
 23fc5ae:	6a60      	ldr	r0, [r4, #36]	; 0x24
 23fc5b0:	b118      	cbz	r0, 23fc5ba <_ZN16Adafruit_SSD130613invertDisplayEb+0x38>
 23fc5b2:	f104 0164 	add.w	r1, r4, #100	; 0x64
 23fc5b6:	f002 f90b 	bl	23fe7d0 <_ZN8SPIClass16beginTransactionERKN8particle11SPISettingsE>
 23fc5ba:	6c62      	ldr	r2, [r4, #68]	; 0x44
 23fc5bc:	6d61      	ldr	r1, [r4, #84]	; 0x54
 23fc5be:	6813      	ldr	r3, [r2, #0]
 23fc5c0:	ea23 0301 	bic.w	r3, r3, r1
 23fc5c4:	6013      	str	r3, [r2, #0]
 23fc5c6:	e7e4      	b.n	23fc592 <_ZN16Adafruit_SSD130613invertDisplayEb+0x10>
  TRANSACTION_END
 23fc5c8:	6c62      	ldr	r2, [r4, #68]	; 0x44
 23fc5ca:	6d61      	ldr	r1, [r4, #84]	; 0x54
 23fc5cc:	6813      	ldr	r3, [r2, #0]
 23fc5ce:	430b      	orrs	r3, r1
 23fc5d0:	6013      	str	r3, [r2, #0]
 23fc5d2:	6a60      	ldr	r0, [r4, #36]	; 0x24
 23fc5d4:	b118      	cbz	r0, 23fc5de <_ZN16Adafruit_SSD130613invertDisplayEb+0x5c>
}
 23fc5d6:	e8bd 4038 	ldmia.w	sp!, {r3, r4, r5, lr}
  TRANSACTION_END
 23fc5da:	f002 b8df 	b.w	23fe79c <_ZN8SPIClass14endTransactionEv>
}
 23fc5de:	bd38      	pop	{r3, r4, r5, pc}

023fc5e0 <_ZN16Adafruit_SSD130619ssd1306_commandListEPKhh>:
void Adafruit_SSD1306::ssd1306_commandList(const uint8_t *c, uint8_t n) {
 23fc5e0:	b5f8      	push	{r3, r4, r5, r6, r7, lr}
 23fc5e2:	4604      	mov	r4, r0
  if (wire) { // I2C
 23fc5e4:	6a80      	ldr	r0, [r0, #40]	; 0x28
void Adafruit_SSD1306::ssd1306_commandList(const uint8_t *c, uint8_t n) {
 23fc5e6:	460d      	mov	r5, r1
  if (wire) { // I2C
 23fc5e8:	188f      	adds	r7, r1, r2
 23fc5ea:	b340      	cbz	r0, 23fc63e <_ZN16Adafruit_SSD130619ssd1306_commandListEPKhh+0x5e>
    wire->beginTransmission(i2caddr);
 23fc5ec:	f994 1030 	ldrsb.w	r1, [r4, #48]	; 0x30
 23fc5f0:	f001 fe7c 	bl	23fe2ec <_ZN7TwoWire17beginTransmissionEi>
    WIRE_WRITE((uint8_t)0x00); // Co = 0, D/C = 0
 23fc5f4:	6aa0      	ldr	r0, [r4, #40]	; 0x28
 23fc5f6:	2100      	movs	r1, #0
 23fc5f8:	6803      	ldr	r3, [r0, #0]
    uint16_t bytesOut = 1;
 23fc5fa:	2601      	movs	r6, #1
    WIRE_WRITE((uint8_t)0x00); // Co = 0, D/C = 0
 23fc5fc:	689b      	ldr	r3, [r3, #8]
 23fc5fe:	4798      	blx	r3
    while (n--) {
 23fc600:	42bd      	cmp	r5, r7
        wire->endTransmission();
 23fc602:	6aa0      	ldr	r0, [r4, #40]	; 0x28
    while (n--) {
 23fc604:	d017      	beq.n	23fc636 <_ZN16Adafruit_SSD130619ssd1306_commandListEPKhh+0x56>
      if (bytesOut >= WIRE_MAX) {
 23fc606:	2e1f      	cmp	r6, #31
 23fc608:	d90c      	bls.n	23fc624 <_ZN16Adafruit_SSD130619ssd1306_commandListEPKhh+0x44>
        wire->endTransmission();
 23fc60a:	f001 fe76 	bl	23fe2fa <_ZN7TwoWire15endTransmissionEv>
        wire->beginTransmission(i2caddr);
 23fc60e:	f994 1030 	ldrsb.w	r1, [r4, #48]	; 0x30
 23fc612:	6aa0      	ldr	r0, [r4, #40]	; 0x28
 23fc614:	f001 fe6a 	bl	23fe2ec <_ZN7TwoWire17beginTransmissionEi>
        WIRE_WRITE((uint8_t)0x00); // Co = 0, D/C = 0
 23fc618:	6aa0      	ldr	r0, [r4, #40]	; 0x28
 23fc61a:	2100      	movs	r1, #0
 23fc61c:	6803      	ldr	r3, [r0, #0]
        bytesOut = 1;
 23fc61e:	2601      	movs	r6, #1
        WIRE_WRITE((uint8_t)0x00); // Co = 0, D/C = 0
 23fc620:	689b      	ldr	r3, [r3, #8]
 23fc622:	4798      	blx	r3
      WIRE_WRITE(pgm_read_byte(c++));
 23fc624:	6aa0      	ldr	r0, [r4, #40]	; 0x28
 23fc626:	f815 1b01 	ldrb.w	r1, [r5], #1
 23fc62a:	6803      	ldr	r3, [r0, #0]
      bytesOut++;
 23fc62c:	3601      	adds	r6, #1
      WIRE_WRITE(pgm_read_byte(c++));
 23fc62e:	689b      	ldr	r3, [r3, #8]
 23fc630:	4798      	blx	r3
      bytesOut++;
 23fc632:	b2b6      	uxth	r6, r6
    while (n--) {
 23fc634:	e7e4      	b.n	23fc600 <_ZN16Adafruit_SSD130619ssd1306_commandListEPKhh+0x20>
}
 23fc636:	e8bd 40f8 	ldmia.w	sp!, {r3, r4, r5, r6, r7, lr}
    wire->endTransmission();
 23fc63a:	f001 be5e 	b.w	23fe2fa <_ZN7TwoWire15endTransmissionEv>
    SSD1306_MODE_COMMAND
 23fc63e:	6c22      	ldr	r2, [r4, #64]	; 0x40
 23fc640:	6d21      	ldr	r1, [r4, #80]	; 0x50
 23fc642:	6813      	ldr	r3, [r2, #0]
 23fc644:	ea23 0301 	bic.w	r3, r3, r1
 23fc648:	6013      	str	r3, [r2, #0]
    while (n--)
 23fc64a:	42bd      	cmp	r5, r7
 23fc64c:	d026      	beq.n	23fc69c <_ZN16Adafruit_SSD130619ssd1306_commandListEPKhh+0xbc>
  if (spi) {
 23fc64e:	6a60      	ldr	r0, [r4, #36]	; 0x24
      SPIwrite(pgm_read_byte(c++));
 23fc650:	f815 1b01 	ldrb.w	r1, [r5], #1
  if (spi) {
 23fc654:	b110      	cbz	r0, 23fc65c <_ZN16Adafruit_SSD130619ssd1306_commandListEPKhh+0x7c>
    (void)spi->transfer(d);
 23fc656:	f002 f929 	bl	23fe8ac <_ZN8SPIClass8transferEh>
 23fc65a:	e7f6      	b.n	23fc64a <_ZN16Adafruit_SSD130619ssd1306_commandListEPKhh+0x6a>
 23fc65c:	f04f 0e08 	mov.w	lr, #8
    for (uint8_t bit = 0x80; bit; bit >>= 1) {
 23fc660:	2080      	movs	r0, #128	; 0x80
        *mosiPort |= mosiPinMask;
 23fc662:	6ba3      	ldr	r3, [r4, #56]	; 0x38
 23fc664:	f8d4 c048 	ldr.w	ip, [r4, #72]	; 0x48
 23fc668:	681e      	ldr	r6, [r3, #0]
      if (d & bit)
 23fc66a:	4201      	tst	r1, r0
        *mosiPort |= mosiPinMask;
 23fc66c:	bf14      	ite	ne
 23fc66e:	ea46 060c 	orrne.w	r6, r6, ip
        *mosiPort &= ~mosiPinMask;
 23fc672:	ea26 060c 	biceq.w	r6, r6, ip
 23fc676:	601e      	str	r6, [r3, #0]
      *clkPort |= clkPinMask;  // Clock high
 23fc678:	6be6      	ldr	r6, [r4, #60]	; 0x3c
 23fc67a:	6ce2      	ldr	r2, [r4, #76]	; 0x4c
 23fc67c:	6833      	ldr	r3, [r6, #0]
    for (uint8_t bit = 0x80; bit; bit >>= 1) {
 23fc67e:	f1be 0e01 	subs.w	lr, lr, #1
      *clkPort |= clkPinMask;  // Clock high
 23fc682:	ea43 0302 	orr.w	r3, r3, r2
 23fc686:	6033      	str	r3, [r6, #0]
      *clkPort &= ~clkPinMask; // Clock low
 23fc688:	6be6      	ldr	r6, [r4, #60]	; 0x3c
 23fc68a:	6ce2      	ldr	r2, [r4, #76]	; 0x4c
 23fc68c:	6833      	ldr	r3, [r6, #0]
    for (uint8_t bit = 0x80; bit; bit >>= 1) {
 23fc68e:	ea4f 0050 	mov.w	r0, r0, lsr #1
      *clkPort &= ~clkPinMask; // Clock low
 23fc692:	ea23 0302 	bic.w	r3, r3, r2
 23fc696:	6033      	str	r3, [r6, #0]
    for (uint8_t bit = 0x80; bit; bit >>= 1) {
 23fc698:	d1e3      	bne.n	23fc662 <_ZN16Adafruit_SSD130619ssd1306_commandListEPKhh+0x82>
 23fc69a:	e7d6      	b.n	23fc64a <_ZN16Adafruit_SSD130619ssd1306_commandListEPKhh+0x6a>
}
 23fc69c:	bdf8      	pop	{r3, r4, r5, r6, r7, pc}

023fc69e <_ZN16Adafruit_SSD130612clearDisplayEv>:
  memset(buffer, 0, WIDTH * ((HEIGHT + 7) / 8));
 23fc69e:	f9b0 300a 	ldrsh.w	r3, [r0, #10]
 23fc6a2:	2100      	movs	r1, #0
 23fc6a4:	1dda      	adds	r2, r3, #7
 23fc6a6:	bf48      	it	mi
 23fc6a8:	f103 020e 	addmi.w	r2, r3, #14
 23fc6ac:	f9b0 3008 	ldrsh.w	r3, [r0, #8]
 23fc6b0:	10d2      	asrs	r2, r2, #3
 23fc6b2:	435a      	muls	r2, r3
 23fc6b4:	6ac0      	ldr	r0, [r0, #44]	; 0x2c
 23fc6b6:	f002 bcab 	b.w	23ff010 <memset>
	...

023fc6bc <_ZN16Adafruit_SSD13065beginEhhbb>:
                             bool periphBegin) {
 23fc6bc:	e92d 41ff 	stmdb	sp!, {r0, r1, r2, r3, r4, r5, r6, r7, r8, lr}
 23fc6c0:	461e      	mov	r6, r3
  if ((!buffer) && !(buffer = (uint8_t *)malloc(WIDTH * ((HEIGHT + 7) / 8))))
 23fc6c2:	6ac3      	ldr	r3, [r0, #44]	; 0x2c
                             bool periphBegin) {
 23fc6c4:	4604      	mov	r4, r0
 23fc6c6:	460f      	mov	r7, r1
 23fc6c8:	4615      	mov	r5, r2
 23fc6ca:	f89d 8028 	ldrb.w	r8, [sp, #40]	; 0x28
  if ((!buffer) && !(buffer = (uint8_t *)malloc(WIDTH * ((HEIGHT + 7) / 8))))
 23fc6ce:	b1c3      	cbz	r3, 23fc702 <_ZN16Adafruit_SSD13065beginEhhbb+0x46>
  clearDisplay();
 23fc6d0:	4620      	mov	r0, r4
 23fc6d2:	f7ff ffe4 	bl	23fc69e <_ZN16Adafruit_SSD130612clearDisplayEv>
  if (HEIGHT > 32) {
 23fc6d6:	f9b4 000a 	ldrsh.w	r0, [r4, #10]
 23fc6da:	f9b4 1008 	ldrsh.w	r1, [r4, #8]
 23fc6de:	2820      	cmp	r0, #32
 23fc6e0:	dc21      	bgt.n	23fc726 <_ZN16Adafruit_SSD13065beginEhhbb+0x6a>
    drawBitmap((WIDTH - splash2_width) / 2, (HEIGHT - splash2_height) / 2,
 23fc6e2:	2320      	movs	r3, #32
 23fc6e4:	2201      	movs	r2, #1
 23fc6e6:	e9cd 3201 	strd	r3, r2, [sp, #4]
 23fc6ea:	2373      	movs	r3, #115	; 0x73
 23fc6ec:	3820      	subs	r0, #32
 23fc6ee:	eb00 70d0 	add.w	r0, r0, r0, lsr #31
 23fc6f2:	3973      	subs	r1, #115	; 0x73
 23fc6f4:	9300      	str	r3, [sp, #0]
 23fc6f6:	eb01 71d1 	add.w	r1, r1, r1, lsr #31
 23fc6fa:	4bb8      	ldr	r3, [pc, #736]	; (23fc9dc <_ZN16Adafruit_SSD13065beginEhhbb+0x320>)
 23fc6fc:	f340 024f 	sbfx	r2, r0, #1, #16
 23fc700:	e021      	b.n	23fc746 <_ZN16Adafruit_SSD13065beginEhhbb+0x8a>
  if ((!buffer) && !(buffer = (uint8_t *)malloc(WIDTH * ((HEIGHT + 7) / 8))))
 23fc702:	f9b0 300a 	ldrsh.w	r3, [r0, #10]
 23fc706:	1dd8      	adds	r0, r3, #7
 23fc708:	bf48      	it	mi
 23fc70a:	f103 000e 	addmi.w	r0, r3, #14
 23fc70e:	f9b4 3008 	ldrsh.w	r3, [r4, #8]
 23fc712:	10c0      	asrs	r0, r0, #3
 23fc714:	4358      	muls	r0, r3
 23fc716:	f001 f9a7 	bl	23fda68 <malloc>
 23fc71a:	62e0      	str	r0, [r4, #44]	; 0x2c
 23fc71c:	2800      	cmp	r0, #0
 23fc71e:	d1d7      	bne.n	23fc6d0 <_ZN16Adafruit_SSD13065beginEhhbb+0x14>
}
 23fc720:	b004      	add	sp, #16
 23fc722:	e8bd 81f0 	ldmia.w	sp!, {r4, r5, r6, r7, r8, pc}
    drawBitmap((WIDTH - splash1_width) / 2, (HEIGHT - splash1_height) / 2,
 23fc726:	3840      	subs	r0, #64	; 0x40
 23fc728:	f3c0 32c0 	ubfx	r2, r0, #15, #1
 23fc72c:	2340      	movs	r3, #64	; 0x40
 23fc72e:	fa02 f280 	sxtah	r2, r2, r0
 23fc732:	2001      	movs	r0, #1
 23fc734:	e9cd 3001 	strd	r3, r0, [sp, #4]
 23fc738:	2352      	movs	r3, #82	; 0x52
 23fc73a:	3952      	subs	r1, #82	; 0x52
 23fc73c:	9300      	str	r3, [sp, #0]
 23fc73e:	4ba8      	ldr	r3, [pc, #672]	; (23fc9e0 <_ZN16Adafruit_SSD13065beginEhhbb+0x324>)
 23fc740:	eb01 71d1 	add.w	r1, r1, r1, lsr #31
 23fc744:	1052      	asrs	r2, r2, #1
    drawBitmap((WIDTH - splash2_width) / 2, (HEIGHT - splash2_height) / 2,
 23fc746:	4620      	mov	r0, r4
 23fc748:	f341 014f 	sbfx	r1, r1, #1, #16
 23fc74c:	f7ff fba6 	bl	23fbe9c <_ZN12Adafruit_GFX10drawBitmapEssPKhsst>
  if (wire) { // Using I2C
 23fc750:	6aa0      	ldr	r0, [r4, #40]	; 0x28
  vccstate = vcs;
 23fc752:	f884 7031 	strb.w	r7, [r4, #49]	; 0x31
  if (wire) { // Using I2C
 23fc756:	2800      	cmp	r0, #0
 23fc758:	f000 809a 	beq.w	23fc890 <_ZN16Adafruit_SSD13065beginEhhbb+0x1d4>
    i2caddr = addr ? addr : ((HEIGHT == 32) ? 0x3C : 0x3D);
 23fc75c:	2d00      	cmp	r5, #0
 23fc75e:	f040 8095 	bne.w	23fc88c <_ZN16Adafruit_SSD13065beginEhhbb+0x1d0>
 23fc762:	f9b4 300a 	ldrsh.w	r3, [r4, #10]
 23fc766:	2b20      	cmp	r3, #32
 23fc768:	bf0c      	ite	eq
 23fc76a:	253c      	moveq	r5, #60	; 0x3c
 23fc76c:	253d      	movne	r5, #61	; 0x3d
 23fc76e:	f884 5030 	strb.w	r5, [r4, #48]	; 0x30
    if (periphBegin)
 23fc772:	f1b8 0f00 	cmp.w	r8, #0
 23fc776:	d001      	beq.n	23fc77c <_ZN16Adafruit_SSD13065beginEhhbb+0xc0>
      wire->begin();
 23fc778:	f001 fd8a 	bl	23fe290 <_ZN7TwoWire5beginEv>
  if (reset && (rstPin >= 0)) {
 23fc77c:	b1fe      	cbz	r6, 23fc7be <_ZN16Adafruit_SSD13065beginEhhbb+0x102>
 23fc77e:	f994 0037 	ldrsb.w	r0, [r4, #55]	; 0x37
 23fc782:	2800      	cmp	r0, #0
 23fc784:	db1b      	blt.n	23fc7be <_ZN16Adafruit_SSD13065beginEhhbb+0x102>
    pinMode(rstPin, OUTPUT);
 23fc786:	2101      	movs	r1, #1
 23fc788:	b280      	uxth	r0, r0
 23fc78a:	f002 faed 	bl	23fed68 <pinMode>
    digitalWrite(rstPin, HIGH);
 23fc78e:	f994 0037 	ldrsb.w	r0, [r4, #55]	; 0x37
 23fc792:	2101      	movs	r1, #1
 23fc794:	b280      	uxth	r0, r0
 23fc796:	f002 faf8 	bl	23fed8a <digitalWrite>
    delay(1);                   // VDD goes high at start, pause for 1 ms
 23fc79a:	2001      	movs	r0, #1
 23fc79c:	f001 f9e2 	bl	23fdb64 <delay>
    digitalWrite(rstPin, LOW);  // Bring reset low
 23fc7a0:	f994 0037 	ldrsb.w	r0, [r4, #55]	; 0x37
 23fc7a4:	2100      	movs	r1, #0
 23fc7a6:	b280      	uxth	r0, r0
 23fc7a8:	f002 faef 	bl	23fed8a <digitalWrite>
    delay(10);                  // Wait 10 ms
 23fc7ac:	200a      	movs	r0, #10
 23fc7ae:	f001 f9d9 	bl	23fdb64 <delay>
    digitalWrite(rstPin, HIGH); // Bring out of reset
 23fc7b2:	f994 0037 	ldrsb.w	r0, [r4, #55]	; 0x37
 23fc7b6:	2101      	movs	r1, #1
 23fc7b8:	b280      	uxth	r0, r0
 23fc7ba:	f002 fae6 	bl	23fed8a <digitalWrite>
  TRANSACTION_START
 23fc7be:	6aa0      	ldr	r0, [r4, #40]	; 0x28
 23fc7c0:	2800      	cmp	r0, #0
 23fc7c2:	f000 80e5 	beq.w	23fc990 <_ZN16Adafruit_SSD13065beginEhhbb+0x2d4>
 23fc7c6:	6da1      	ldr	r1, [r4, #88]	; 0x58
 23fc7c8:	f001 fd5e 	bl	23fe288 <_ZN7TwoWire8setSpeedEm>
  ssd1306_commandList(init1, sizeof(init1));
 23fc7cc:	2204      	movs	r2, #4
 23fc7ce:	4620      	mov	r0, r4
 23fc7d0:	4984      	ldr	r1, [pc, #528]	; (23fc9e4 <_ZN16Adafruit_SSD13065beginEhhbb+0x328>)
 23fc7d2:	f7ff ff05 	bl	23fc5e0 <_ZN16Adafruit_SSD130619ssd1306_commandListEPKhh>
  ssd1306_command1(HEIGHT - 1);
 23fc7d6:	8961      	ldrh	r1, [r4, #10]
 23fc7d8:	4620      	mov	r0, r4
 23fc7da:	3901      	subs	r1, #1
 23fc7dc:	b2c9      	uxtb	r1, r1
 23fc7de:	f7ff fe91 	bl	23fc504 <_ZN16Adafruit_SSD130616ssd1306_command1Eh>
  ssd1306_commandList(init2, sizeof(init2));
 23fc7e2:	4981      	ldr	r1, [pc, #516]	; (23fc9e8 <_ZN16Adafruit_SSD13065beginEhhbb+0x32c>)
 23fc7e4:	2204      	movs	r2, #4
 23fc7e6:	4620      	mov	r0, r4
 23fc7e8:	f7ff fefa 	bl	23fc5e0 <_ZN16Adafruit_SSD130619ssd1306_commandListEPKhh>
  ssd1306_command1((vccstate == SSD1306_EXTERNALVCC) ? 0x10 : 0x14);
 23fc7ec:	f994 3031 	ldrsb.w	r3, [r4, #49]	; 0x31
 23fc7f0:	4620      	mov	r0, r4
 23fc7f2:	2b01      	cmp	r3, #1
 23fc7f4:	bf0c      	ite	eq
 23fc7f6:	2110      	moveq	r1, #16
 23fc7f8:	2114      	movne	r1, #20
 23fc7fa:	f7ff fe83 	bl	23fc504 <_ZN16Adafruit_SSD130616ssd1306_command1Eh>
  ssd1306_commandList(init3, sizeof(init3));
 23fc7fe:	2204      	movs	r2, #4
 23fc800:	4620      	mov	r0, r4
 23fc802:	497a      	ldr	r1, [pc, #488]	; (23fc9ec <_ZN16Adafruit_SSD13065beginEhhbb+0x330>)
 23fc804:	f7ff feec 	bl	23fc5e0 <_ZN16Adafruit_SSD130619ssd1306_commandListEPKhh>
  contrast = 0x8F;
 23fc808:	238f      	movs	r3, #143	; 0x8f
  if ((WIDTH == 128) && (HEIGHT == 32)) {
 23fc80a:	4a79      	ldr	r2, [pc, #484]	; (23fc9f0 <_ZN16Adafruit_SSD13065beginEhhbb+0x334>)
  contrast = 0x8F;
 23fc80c:	f884 3060 	strb.w	r3, [r4, #96]	; 0x60
  if ((WIDTH == 128) && (HEIGHT == 32)) {
 23fc810:	68a3      	ldr	r3, [r4, #8]
 23fc812:	4293      	cmp	r3, r2
 23fc814:	f000 80d4 	beq.w	23fc9c0 <_ZN16Adafruit_SSD13065beginEhhbb+0x304>
  } else if ((WIDTH == 128) && (HEIGHT == 64)) {
 23fc818:	f502 1200 	add.w	r2, r2, #2097152	; 0x200000
 23fc81c:	4293      	cmp	r3, r2
 23fc81e:	f040 80c4 	bne.w	23fc9aa <_ZN16Adafruit_SSD13065beginEhhbb+0x2ee>
    contrast = (vccstate == SSD1306_EXTERNALVCC) ? 0x9F : 0xCF;
 23fc822:	f994 3031 	ldrsb.w	r3, [r4, #49]	; 0x31
    comPins = 0x12;
 23fc826:	2512      	movs	r5, #18
    contrast = (vccstate == SSD1306_EXTERNALVCC) ? 0x9F : 0xCF;
 23fc828:	2b01      	cmp	r3, #1
 23fc82a:	bf0c      	ite	eq
 23fc82c:	239f      	moveq	r3, #159	; 0x9f
 23fc82e:	23cf      	movne	r3, #207	; 0xcf
 23fc830:	f884 3060 	strb.w	r3, [r4, #96]	; 0x60
  ssd1306_command1(SSD1306_SETCOMPINS);
 23fc834:	21da      	movs	r1, #218	; 0xda
 23fc836:	4620      	mov	r0, r4
 23fc838:	f7ff fe64 	bl	23fc504 <_ZN16Adafruit_SSD130616ssd1306_command1Eh>
  ssd1306_command1(comPins);
 23fc83c:	4629      	mov	r1, r5
 23fc83e:	4620      	mov	r0, r4
 23fc840:	f7ff fe60 	bl	23fc504 <_ZN16Adafruit_SSD130616ssd1306_command1Eh>
  ssd1306_command1(SSD1306_SETCONTRAST);
 23fc844:	2181      	movs	r1, #129	; 0x81
 23fc846:	4620      	mov	r0, r4
 23fc848:	f7ff fe5c 	bl	23fc504 <_ZN16Adafruit_SSD130616ssd1306_command1Eh>
  ssd1306_command1(contrast);
 23fc84c:	4620      	mov	r0, r4
 23fc84e:	f894 1060 	ldrb.w	r1, [r4, #96]	; 0x60
 23fc852:	f7ff fe57 	bl	23fc504 <_ZN16Adafruit_SSD130616ssd1306_command1Eh>
  ssd1306_command1(SSD1306_SETPRECHARGE); // 0xd9
 23fc856:	21d9      	movs	r1, #217	; 0xd9
 23fc858:	4620      	mov	r0, r4
 23fc85a:	f7ff fe53 	bl	23fc504 <_ZN16Adafruit_SSD130616ssd1306_command1Eh>
  ssd1306_command1((vccstate == SSD1306_EXTERNALVCC) ? 0x22 : 0xF1);
 23fc85e:	f994 3031 	ldrsb.w	r3, [r4, #49]	; 0x31
 23fc862:	4620      	mov	r0, r4
 23fc864:	2b01      	cmp	r3, #1
 23fc866:	bf0c      	ite	eq
 23fc868:	2122      	moveq	r1, #34	; 0x22
 23fc86a:	21f1      	movne	r1, #241	; 0xf1
 23fc86c:	f7ff fe4a 	bl	23fc504 <_ZN16Adafruit_SSD130616ssd1306_command1Eh>
  ssd1306_commandList(init5, sizeof(init5));
 23fc870:	4620      	mov	r0, r4
 23fc872:	2206      	movs	r2, #6
 23fc874:	495f      	ldr	r1, [pc, #380]	; (23fc9f4 <_ZN16Adafruit_SSD13065beginEhhbb+0x338>)
 23fc876:	f7ff feb3 	bl	23fc5e0 <_ZN16Adafruit_SSD130619ssd1306_commandListEPKhh>
  TRANSACTION_END
 23fc87a:	6aa0      	ldr	r0, [r4, #40]	; 0x28
 23fc87c:	2800      	cmp	r0, #0
 23fc87e:	f000 80a1 	beq.w	23fc9c4 <_ZN16Adafruit_SSD13065beginEhhbb+0x308>
 23fc882:	6de1      	ldr	r1, [r4, #92]	; 0x5c
 23fc884:	f001 fd00 	bl	23fe288 <_ZN7TwoWire8setSpeedEm>
  return true; // Success
 23fc888:	2001      	movs	r0, #1
 23fc88a:	e749      	b.n	23fc720 <_ZN16Adafruit_SSD13065beginEhhbb+0x64>
    i2caddr = addr ? addr : ((HEIGHT == 32) ? 0x3C : 0x3D);
 23fc88c:	b26d      	sxtb	r5, r5
 23fc88e:	e76e      	b.n	23fc76e <_ZN16Adafruit_SSD13065beginEhhbb+0xb2>
    pinMode(dcPin, OUTPUT); // Set data/command pin as output
 23fc890:	f994 0035 	ldrsb.w	r0, [r4, #53]	; 0x35
 23fc894:	2101      	movs	r1, #1
 23fc896:	b280      	uxth	r0, r0
 23fc898:	f002 fa66 	bl	23fed68 <pinMode>
    pinMode(csPin, OUTPUT); // Same for chip select
 23fc89c:	f994 0036 	ldrsb.w	r0, [r4, #54]	; 0x36
 23fc8a0:	2101      	movs	r1, #1
 23fc8a2:	b280      	uxth	r0, r0
 23fc8a4:	f002 fa60 	bl	23fed68 <pinMode>
    dcPort = (PortReg *)portOutputRegister(digitalPinToPort(dcPin));
 23fc8a8:	f000 fca8 	bl	23fd1fc <hal_pin_map>
 23fc8ac:	f994 3035 	ldrsb.w	r3, [r4, #53]	; 0x35
 23fc8b0:	4d51      	ldr	r5, [pc, #324]	; (23fc9f8 <_ZN16Adafruit_SSD13065beginEhhbb+0x33c>)
 23fc8b2:	eb03 0343 	add.w	r3, r3, r3, lsl #1
 23fc8b6:	f810 3023 	ldrb.w	r3, [r0, r3, lsl #2]
 23fc8ba:	f855 3023 	ldr.w	r3, [r5, r3, lsl #2]
 23fc8be:	6423      	str	r3, [r4, #64]	; 0x40
    dcPinMask = digitalPinToBitMask(dcPin);
 23fc8c0:	f000 fc9c 	bl	23fd1fc <hal_pin_map>
 23fc8c4:	f994 3035 	ldrsb.w	r3, [r4, #53]	; 0x35
 23fc8c8:	eb03 0343 	add.w	r3, r3, r3, lsl #1
 23fc8cc:	eb00 0383 	add.w	r3, r0, r3, lsl #2
 23fc8d0:	785b      	ldrb	r3, [r3, #1]
 23fc8d2:	6523      	str	r3, [r4, #80]	; 0x50
    csPort = (PortReg *)portOutputRegister(digitalPinToPort(csPin));
 23fc8d4:	f000 fc92 	bl	23fd1fc <hal_pin_map>
 23fc8d8:	f994 3036 	ldrsb.w	r3, [r4, #54]	; 0x36
 23fc8dc:	eb03 0343 	add.w	r3, r3, r3, lsl #1
 23fc8e0:	f810 3023 	ldrb.w	r3, [r0, r3, lsl #2]
 23fc8e4:	f855 3023 	ldr.w	r3, [r5, r3, lsl #2]
 23fc8e8:	6463      	str	r3, [r4, #68]	; 0x44
    csPinMask = digitalPinToBitMask(csPin);
 23fc8ea:	f000 fc87 	bl	23fd1fc <hal_pin_map>
 23fc8ee:	f994 3036 	ldrsb.w	r3, [r4, #54]	; 0x36
    SSD1306_DESELECT
 23fc8f2:	6c62      	ldr	r2, [r4, #68]	; 0x44
    csPinMask = digitalPinToBitMask(csPin);
 23fc8f4:	eb03 0343 	add.w	r3, r3, r3, lsl #1
 23fc8f8:	eb00 0383 	add.w	r3, r0, r3, lsl #2
 23fc8fc:	785b      	ldrb	r3, [r3, #1]
 23fc8fe:	6563      	str	r3, [r4, #84]	; 0x54
    SSD1306_DESELECT
 23fc900:	6811      	ldr	r1, [r2, #0]
 23fc902:	430b      	orrs	r3, r1
 23fc904:	6013      	str	r3, [r2, #0]
    if (spi) { // Hardware SPI
 23fc906:	6a60      	ldr	r0, [r4, #36]	; 0x24
 23fc908:	b130      	cbz	r0, 23fc918 <_ZN16Adafruit_SSD13065beginEhhbb+0x25c>
      if (periphBegin)
 23fc90a:	f1b8 0f00 	cmp.w	r8, #0
 23fc90e:	f43f af35 	beq.w	23fc77c <_ZN16Adafruit_SSD13065beginEhhbb+0xc0>
        spi->begin();
 23fc912:	f001 ff2f 	bl	23fe774 <_ZN8SPIClass5beginEv>
 23fc916:	e731      	b.n	23fc77c <_ZN16Adafruit_SSD13065beginEhhbb+0xc0>
      pinMode(mosiPin, OUTPUT); // MOSI and SCLK outputs
 23fc918:	f994 0033 	ldrsb.w	r0, [r4, #51]	; 0x33
 23fc91c:	2101      	movs	r1, #1
 23fc91e:	b280      	uxth	r0, r0
 23fc920:	f002 fa22 	bl	23fed68 <pinMode>
      pinMode(clkPin, OUTPUT);
 23fc924:	f994 0034 	ldrsb.w	r0, [r4, #52]	; 0x34
 23fc928:	2101      	movs	r1, #1
 23fc92a:	b280      	uxth	r0, r0
 23fc92c:	f002 fa1c 	bl	23fed68 <pinMode>
      mosiPort = (PortReg *)portOutputRegister(digitalPinToPort(mosiPin));
 23fc930:	f000 fc64 	bl	23fd1fc <hal_pin_map>
 23fc934:	f994 3033 	ldrsb.w	r3, [r4, #51]	; 0x33
 23fc938:	eb03 0343 	add.w	r3, r3, r3, lsl #1
 23fc93c:	f810 3023 	ldrb.w	r3, [r0, r3, lsl #2]
 23fc940:	f855 3023 	ldr.w	r3, [r5, r3, lsl #2]
 23fc944:	63a3      	str	r3, [r4, #56]	; 0x38
      mosiPinMask = digitalPinToBitMask(mosiPin);
 23fc946:	f000 fc59 	bl	23fd1fc <hal_pin_map>
 23fc94a:	f994 3033 	ldrsb.w	r3, [r4, #51]	; 0x33
 23fc94e:	eb03 0343 	add.w	r3, r3, r3, lsl #1
 23fc952:	eb00 0383 	add.w	r3, r0, r3, lsl #2
 23fc956:	785b      	ldrb	r3, [r3, #1]
 23fc958:	64a3      	str	r3, [r4, #72]	; 0x48
      clkPort = (PortReg *)portOutputRegister(digitalPinToPort(clkPin));
 23fc95a:	f000 fc4f 	bl	23fd1fc <hal_pin_map>
 23fc95e:	f994 3034 	ldrsb.w	r3, [r4, #52]	; 0x34
 23fc962:	eb03 0343 	add.w	r3, r3, r3, lsl #1
 23fc966:	f810 3023 	ldrb.w	r3, [r0, r3, lsl #2]
 23fc96a:	f855 3023 	ldr.w	r3, [r5, r3, lsl #2]
 23fc96e:	63e3      	str	r3, [r4, #60]	; 0x3c
      clkPinMask = digitalPinToBitMask(clkPin);
 23fc970:	f000 fc44 	bl	23fd1fc <hal_pin_map>
 23fc974:	f994 3034 	ldrsb.w	r3, [r4, #52]	; 0x34
      *clkPort &= ~clkPinMask; // Clock low
 23fc978:	6be2      	ldr	r2, [r4, #60]	; 0x3c
      clkPinMask = digitalPinToBitMask(clkPin);
 23fc97a:	eb03 0343 	add.w	r3, r3, r3, lsl #1
 23fc97e:	eb00 0383 	add.w	r3, r0, r3, lsl #2
 23fc982:	7859      	ldrb	r1, [r3, #1]
 23fc984:	64e1      	str	r1, [r4, #76]	; 0x4c
      *clkPort &= ~clkPinMask; // Clock low
 23fc986:	6813      	ldr	r3, [r2, #0]
 23fc988:	ea23 0301 	bic.w	r3, r3, r1
 23fc98c:	6013      	str	r3, [r2, #0]
 23fc98e:	e6f5      	b.n	23fc77c <_ZN16Adafruit_SSD13065beginEhhbb+0xc0>
  TRANSACTION_START
 23fc990:	6a60      	ldr	r0, [r4, #36]	; 0x24
 23fc992:	b118      	cbz	r0, 23fc99c <_ZN16Adafruit_SSD13065beginEhhbb+0x2e0>
 23fc994:	f104 0164 	add.w	r1, r4, #100	; 0x64
 23fc998:	f001 ff1a 	bl	23fe7d0 <_ZN8SPIClass16beginTransactionERKN8particle11SPISettingsE>
 23fc99c:	6c62      	ldr	r2, [r4, #68]	; 0x44
 23fc99e:	6d61      	ldr	r1, [r4, #84]	; 0x54
 23fc9a0:	6813      	ldr	r3, [r2, #0]
 23fc9a2:	ea23 0301 	bic.w	r3, r3, r1
 23fc9a6:	6013      	str	r3, [r2, #0]
 23fc9a8:	e710      	b.n	23fc7cc <_ZN16Adafruit_SSD13065beginEhhbb+0x110>
  } else if ((WIDTH == 96) && (HEIGHT == 16)) {
 23fc9aa:	4a14      	ldr	r2, [pc, #80]	; (23fc9fc <_ZN16Adafruit_SSD13065beginEhhbb+0x340>)
 23fc9ac:	4293      	cmp	r3, r2
 23fc9ae:	d107      	bne.n	23fc9c0 <_ZN16Adafruit_SSD13065beginEhhbb+0x304>
    contrast = (vccstate == SSD1306_EXTERNALVCC) ? 0x10 : 0xAF;
 23fc9b0:	f994 3031 	ldrsb.w	r3, [r4, #49]	; 0x31
 23fc9b4:	2b01      	cmp	r3, #1
 23fc9b6:	bf0c      	ite	eq
 23fc9b8:	2310      	moveq	r3, #16
 23fc9ba:	23af      	movne	r3, #175	; 0xaf
 23fc9bc:	f884 3060 	strb.w	r3, [r4, #96]	; 0x60
    comPins = 0x02;
 23fc9c0:	2502      	movs	r5, #2
 23fc9c2:	e737      	b.n	23fc834 <_ZN16Adafruit_SSD13065beginEhhbb+0x178>
  TRANSACTION_END
 23fc9c4:	6c62      	ldr	r2, [r4, #68]	; 0x44
 23fc9c6:	6d61      	ldr	r1, [r4, #84]	; 0x54
 23fc9c8:	6813      	ldr	r3, [r2, #0]
 23fc9ca:	430b      	orrs	r3, r1
 23fc9cc:	6013      	str	r3, [r2, #0]
 23fc9ce:	6a60      	ldr	r0, [r4, #36]	; 0x24
 23fc9d0:	2800      	cmp	r0, #0
 23fc9d2:	f43f af59 	beq.w	23fc888 <_ZN16Adafruit_SSD13065beginEhhbb+0x1cc>
 23fc9d6:	f001 fee1 	bl	23fe79c <_ZN8SPIClass14endTransactionEv>
 23fc9da:	e755      	b.n	23fc888 <_ZN16Adafruit_SSD13065beginEhhbb+0x1cc>
 23fc9dc:	023ff994 	.word	0x023ff994
 23fc9e0:	023ff6d4 	.word	0x023ff6d4
 23fc9e4:	023ffbdc 	.word	0x023ffbdc
 23fc9e8:	023ffbe0 	.word	0x023ffbe0
 23fc9ec:	023ffbe4 	.word	0x023ffbe4
 23fc9f0:	00200080 	.word	0x00200080
 23fc9f4:	023ffbe8 	.word	0x023ffbe8
 23fc9f8:	101c0024 	.word	0x101c0024
 23fc9fc:	00100060 	.word	0x00100060

023fca00 <_ZN16Adafruit_SSD130621drawFastHLineInternalEssst>:
                                             uint16_t color) {
 23fca00:	b570      	push	{r4, r5, r6, lr}
  if ((y >= 0) && (y < HEIGHT)) { // Y coord in bounds?
 23fca02:	2a00      	cmp	r2, #0
                                             uint16_t color) {
 23fca04:	f8bd 5010 	ldrh.w	r5, [sp, #16]
  if ((y >= 0) && (y < HEIGHT)) { // Y coord in bounds?
 23fca08:	db3f      	blt.n	23fca8a <_ZN16Adafruit_SSD130621drawFastHLineInternalEssst+0x8a>
 23fca0a:	f9b0 400a 	ldrsh.w	r4, [r0, #10]
 23fca0e:	4294      	cmp	r4, r2
 23fca10:	dd3b      	ble.n	23fca8a <_ZN16Adafruit_SSD130621drawFastHLineInternalEssst+0x8a>
    if (x < 0) {                  // Clip left
 23fca12:	2900      	cmp	r1, #0
      w += x;
 23fca14:	bfbe      	ittt	lt
 23fca16:	185b      	addlt	r3, r3, r1
      x = 0;
 23fca18:	2100      	movlt	r1, #0
      w += x;
 23fca1a:	b21b      	sxthlt	r3, r3
    if ((x + w) > WIDTH) { // Clip right
 23fca1c:	f9b0 4008 	ldrsh.w	r4, [r0, #8]
 23fca20:	18ce      	adds	r6, r1, r3
 23fca22:	42a6      	cmp	r6, r4
      w = (WIDTH - x);
 23fca24:	bfc4      	itt	gt
 23fca26:	1a63      	subgt	r3, r4, r1
 23fca28:	b21b      	sxthgt	r3, r3
    if (w > 0) { // Proceed only if width is positive
 23fca2a:	2b00      	cmp	r3, #0
 23fca2c:	dd2d      	ble.n	23fca8a <_ZN16Adafruit_SSD130621drawFastHLineInternalEssst+0x8a>
      uint8_t *pBuf = &buffer[(y / 8) * WIDTH + x], mask = 1 << (y & 7);
 23fca2e:	10d6      	asrs	r6, r2, #3
 23fca30:	fb14 1106 	smlabb	r1, r4, r6, r1
 23fca34:	6ac0      	ldr	r0, [r0, #44]	; 0x2c
      switch (color) {
 23fca36:	2d01      	cmp	r5, #1
      uint8_t *pBuf = &buffer[(y / 8) * WIDTH + x], mask = 1 << (y & 7);
 23fca38:	4401      	add	r1, r0
 23fca3a:	f002 0007 	and.w	r0, r2, #7
 23fca3e:	f04f 0201 	mov.w	r2, #1
 23fca42:	fa02 f200 	lsl.w	r2, r2, r0
 23fca46:	b2d2      	uxtb	r2, r2
      switch (color) {
 23fca48:	d016      	beq.n	23fca78 <_ZN16Adafruit_SSD130621drawFastHLineInternalEssst+0x78>
 23fca4a:	2d02      	cmp	r5, #2
 23fca4c:	d00b      	beq.n	23fca66 <_ZN16Adafruit_SSD130621drawFastHLineInternalEssst+0x66>
 23fca4e:	b9e5      	cbnz	r5, 23fca8a <_ZN16Adafruit_SSD130621drawFastHLineInternalEssst+0x8a>
        mask = ~mask;
 23fca50:	43d2      	mvns	r2, r2
 23fca52:	440b      	add	r3, r1
 23fca54:	b2d2      	uxtb	r2, r2
        while (w--) {
 23fca56:	4299      	cmp	r1, r3
 23fca58:	d017      	beq.n	23fca8a <_ZN16Adafruit_SSD130621drawFastHLineInternalEssst+0x8a>
          *pBuf++ &= mask;
 23fca5a:	f811 0b01 	ldrb.w	r0, [r1], #1
 23fca5e:	4010      	ands	r0, r2
 23fca60:	f801 0c01 	strb.w	r0, [r1, #-1]
        while (w--) {
 23fca64:	e7f7      	b.n	23fca56 <_ZN16Adafruit_SSD130621drawFastHLineInternalEssst+0x56>
 23fca66:	440b      	add	r3, r1
        while (w--) {
 23fca68:	4299      	cmp	r1, r3
 23fca6a:	d00e      	beq.n	23fca8a <_ZN16Adafruit_SSD130621drawFastHLineInternalEssst+0x8a>
          *pBuf++ ^= mask;
 23fca6c:	f811 0b01 	ldrb.w	r0, [r1], #1
 23fca70:	4050      	eors	r0, r2
 23fca72:	f801 0c01 	strb.w	r0, [r1, #-1]
        while (w--) {
 23fca76:	e7f7      	b.n	23fca68 <_ZN16Adafruit_SSD130621drawFastHLineInternalEssst+0x68>
 23fca78:	440b      	add	r3, r1
        while (w--) {
 23fca7a:	4299      	cmp	r1, r3
 23fca7c:	d005      	beq.n	23fca8a <_ZN16Adafruit_SSD130621drawFastHLineInternalEssst+0x8a>
          *pBuf++ |= mask;
 23fca7e:	f811 0b01 	ldrb.w	r0, [r1], #1
 23fca82:	4310      	orrs	r0, r2
 23fca84:	f801 0c01 	strb.w	r0, [r1, #-1]
        while (w--) {
 23fca88:	e7f7      	b.n	23fca7a <_ZN16Adafruit_SSD130621drawFastHLineInternalEssst+0x7a>
}
 23fca8a:	bd70      	pop	{r4, r5, r6, pc}

023fca8c <_ZN16Adafruit_SSD130621drawFastVLineInternalEssst>:
                                             int16_t __h, uint16_t color) {
 23fca8c:	b5f0      	push	{r4, r5, r6, r7, lr}
  if ((x >= 0) && (x < WIDTH)) { // X coord in bounds?
 23fca8e:	2900      	cmp	r1, #0
                                             int16_t __h, uint16_t color) {
 23fca90:	f8bd 5014 	ldrh.w	r5, [sp, #20]
  if ((x >= 0) && (x < WIDTH)) { // X coord in bounds?
 23fca94:	db77      	blt.n	23fcb86 <_ZN16Adafruit_SSD130621drawFastVLineInternalEssst+0xfa>
 23fca96:	f9b0 6008 	ldrsh.w	r6, [r0, #8]
 23fca9a:	42b1      	cmp	r1, r6
 23fca9c:	da73      	bge.n	23fcb86 <_ZN16Adafruit_SSD130621drawFastVLineInternalEssst+0xfa>
    if (__y < 0) {               // Clip top
 23fca9e:	2a00      	cmp	r2, #0
      __h += __y;
 23fcaa0:	bfbe      	ittt	lt
 23fcaa2:	189b      	addlt	r3, r3, r2
      __y = 0;
 23fcaa4:	2200      	movlt	r2, #0
      __h += __y;
 23fcaa6:	b21b      	sxthlt	r3, r3
    if ((__y + __h) > HEIGHT) { // Clip bottom
 23fcaa8:	f9b0 400a 	ldrsh.w	r4, [r0, #10]
 23fcaac:	18d7      	adds	r7, r2, r3
 23fcaae:	42a7      	cmp	r7, r4
      __h = (HEIGHT - __y);
 23fcab0:	bfc4      	itt	gt
 23fcab2:	1aa3      	subgt	r3, r4, r2
 23fcab4:	b21b      	sxthgt	r3, r3
    if (__h > 0) { // Proceed only if height is now positive
 23fcab6:	2b00      	cmp	r3, #0
 23fcab8:	dd65      	ble.n	23fcb86 <_ZN16Adafruit_SSD130621drawFastVLineInternalEssst+0xfa>
      uint8_t *pBuf = &buffer[(y / 8) * WIDTH + x];
 23fcaba:	f3c2 04c4 	ubfx	r4, r2, #3, #5
 23fcabe:	fb16 1604 	smlabb	r6, r6, r4, r1
 23fcac2:	6ac7      	ldr	r7, [r0, #44]	; 0x2c
      if (mod) {
 23fcac4:	f012 0207 	ands.w	r2, r2, #7
      uint8_t y = __y, h = __h;
 23fcac8:	b2db      	uxtb	r3, r3
      uint8_t *pBuf = &buffer[(y / 8) * WIDTH + x];
 23fcaca:	eb07 0406 	add.w	r4, r7, r6
      if (mod) {
 23fcace:	d024      	beq.n	23fcb1a <_ZN16Adafruit_SSD130621drawFastVLineInternalEssst+0x8e>
        mod = 8 - mod;
 23fcad0:	f1c2 0208 	rsb	r2, r2, #8
 23fcad4:	b2d2      	uxtb	r2, r2
        if (h < mod)
 23fcad6:	4293      	cmp	r3, r2
          mask &= (0XFF >> (mod - h));
 23fcad8:	bf38      	it	cc
 23fcada:	f04f 0cff 	movcc.w	ip, #255	; 0xff
        uint8_t mask = pgm_read_byte(&premask[mod]);
 23fcade:	492c      	ldr	r1, [pc, #176]	; (23fcb90 <_ZN16Adafruit_SSD130621drawFastVLineInternalEssst+0x104>)
          mask &= (0XFF >> (mod - h));
 23fcae0:	bf38      	it	cc
 23fcae2:	eba2 0e03 	subcc.w	lr, r2, r3
        uint8_t mask = pgm_read_byte(&premask[mod]);
 23fcae6:	5c89      	ldrb	r1, [r1, r2]
          mask &= (0XFF >> (mod - h));
 23fcae8:	bf3c      	itt	cc
 23fcaea:	fa4c fc0e 	asrcc.w	ip, ip, lr
 23fcaee:	ea0c 0101 	andcc.w	r1, ip, r1
        switch (color) {
 23fcaf2:	2d01      	cmp	r5, #1
 23fcaf4:	d007      	beq.n	23fcb06 <_ZN16Adafruit_SSD130621drawFastVLineInternalEssst+0x7a>
 23fcaf6:	2d02      	cmp	r5, #2
 23fcaf8:	d02e      	beq.n	23fcb58 <_ZN16Adafruit_SSD130621drawFastVLineInternalEssst+0xcc>
 23fcafa:	b94d      	cbnz	r5, 23fcb10 <_ZN16Adafruit_SSD130621drawFastVLineInternalEssst+0x84>
          *pBuf &= ~mask;
 23fcafc:	f817 c006 	ldrb.w	ip, [r7, r6]
 23fcb00:	ea2c 0101 	bic.w	r1, ip, r1
 23fcb04:	e003      	b.n	23fcb0e <_ZN16Adafruit_SSD130621drawFastVLineInternalEssst+0x82>
          *pBuf |= mask;
 23fcb06:	f817 c006 	ldrb.w	ip, [r7, r6]
 23fcb0a:	ea41 010c 	orr.w	r1, r1, ip
          *pBuf ^= mask;
 23fcb0e:	55b9      	strb	r1, [r7, r6]
      if (h >= mod) { // More to go?
 23fcb10:	4293      	cmp	r3, r2
 23fcb12:	d338      	bcc.n	23fcb86 <_ZN16Adafruit_SSD130621drawFastVLineInternalEssst+0xfa>
        pBuf += WIDTH;
 23fcb14:	f9b0 1008 	ldrsh.w	r1, [r0, #8]
 23fcb18:	440c      	add	r4, r1
        h -= mod;
 23fcb1a:	1a9a      	subs	r2, r3, r2
 23fcb1c:	b2d2      	uxtb	r2, r2
        if (h >= 8) {
 23fcb1e:	2a07      	cmp	r2, #7
 23fcb20:	d90e      	bls.n	23fcb40 <_ZN16Adafruit_SSD130621drawFastVLineInternalEssst+0xb4>
          if (color == SSD1306_INVERSE) {
 23fcb22:	2d02      	cmp	r5, #2
 23fcb24:	d11d      	bne.n	23fcb62 <_ZN16Adafruit_SSD130621drawFastVLineInternalEssst+0xd6>
 23fcb26:	4613      	mov	r3, r2
              *pBuf ^= 0xFF; // Invert byte
 23fcb28:	7821      	ldrb	r1, [r4, #0]
              h -= 8;        // Subtract 8 rows from height
 23fcb2a:	3b08      	subs	r3, #8
              *pBuf ^= 0xFF; // Invert byte
 23fcb2c:	43c9      	mvns	r1, r1
 23fcb2e:	7021      	strb	r1, [r4, #0]
              pBuf += WIDTH; // Advance pointer 8 rows
 23fcb30:	f9b0 1008 	ldrsh.w	r1, [r0, #8]
              h -= 8;        // Subtract 8 rows from height
 23fcb34:	b2db      	uxtb	r3, r3
            } while (h >= 8);
 23fcb36:	2b07      	cmp	r3, #7
              pBuf += WIDTH; // Advance pointer 8 rows
 23fcb38:	440c      	add	r4, r1
            } while (h >= 8);
 23fcb3a:	d8f5      	bhi.n	23fcb28 <_ZN16Adafruit_SSD130621drawFastVLineInternalEssst+0x9c>
              h -= 8;        // Subtract 8 rows from height
 23fcb3c:	f002 0207 	and.w	r2, r2, #7
        if (h) { // Do the final partial byte, if necessary
 23fcb40:	b30a      	cbz	r2, 23fcb86 <_ZN16Adafruit_SSD130621drawFastVLineInternalEssst+0xfa>
          uint8_t mask = pgm_read_byte(&postmask[mod]);
 23fcb42:	4b14      	ldr	r3, [pc, #80]	; (23fcb94 <_ZN16Adafruit_SSD130621drawFastVLineInternalEssst+0x108>)
          switch (color) {
 23fcb44:	2d01      	cmp	r5, #1
          uint8_t mask = pgm_read_byte(&postmask[mod]);
 23fcb46:	5c9b      	ldrb	r3, [r3, r2]
          switch (color) {
 23fcb48:	d01a      	beq.n	23fcb80 <_ZN16Adafruit_SSD130621drawFastVLineInternalEssst+0xf4>
 23fcb4a:	2d02      	cmp	r5, #2
 23fcb4c:	d01c      	beq.n	23fcb88 <_ZN16Adafruit_SSD130621drawFastVLineInternalEssst+0xfc>
 23fcb4e:	b9d5      	cbnz	r5, 23fcb86 <_ZN16Adafruit_SSD130621drawFastVLineInternalEssst+0xfa>
            *pBuf &= ~mask;
 23fcb50:	7822      	ldrb	r2, [r4, #0]
 23fcb52:	ea22 0303 	bic.w	r3, r2, r3
 23fcb56:	e015      	b.n	23fcb84 <_ZN16Adafruit_SSD130621drawFastVLineInternalEssst+0xf8>
          *pBuf ^= mask;
 23fcb58:	f817 c006 	ldrb.w	ip, [r7, r6]
 23fcb5c:	ea81 010c 	eor.w	r1, r1, ip
 23fcb60:	e7d5      	b.n	23fcb0e <_ZN16Adafruit_SSD130621drawFastVLineInternalEssst+0x82>
            uint8_t val = (color != SSD1306_BLACK) ? 255 : 0;
 23fcb62:	1e29      	subs	r1, r5, #0
 23fcb64:	bf18      	it	ne
 23fcb66:	2101      	movne	r1, #1
 23fcb68:	4613      	mov	r3, r2
 23fcb6a:	4249      	negs	r1, r1
 23fcb6c:	b2c9      	uxtb	r1, r1
              *pBuf = val;   // Set byte
 23fcb6e:	7021      	strb	r1, [r4, #0]
              h -= 8;        // Subtract 8 rows from height
 23fcb70:	3b08      	subs	r3, #8
              pBuf += WIDTH; // Advance pointer 8 rows
 23fcb72:	f9b0 6008 	ldrsh.w	r6, [r0, #8]
              h -= 8;        // Subtract 8 rows from height
 23fcb76:	b2db      	uxtb	r3, r3
            } while (h >= 8);
 23fcb78:	2b07      	cmp	r3, #7
              pBuf += WIDTH; // Advance pointer 8 rows
 23fcb7a:	4434      	add	r4, r6
            } while (h >= 8);
 23fcb7c:	d8f7      	bhi.n	23fcb6e <_ZN16Adafruit_SSD130621drawFastVLineInternalEssst+0xe2>
 23fcb7e:	e7dd      	b.n	23fcb3c <_ZN16Adafruit_SSD130621drawFastVLineInternalEssst+0xb0>
            *pBuf |= mask;
 23fcb80:	7822      	ldrb	r2, [r4, #0]
 23fcb82:	4313      	orrs	r3, r2
            *pBuf ^= mask;
 23fcb84:	7023      	strb	r3, [r4, #0]
}
 23fcb86:	bdf0      	pop	{r4, r5, r6, r7, pc}
            *pBuf ^= mask;
 23fcb88:	7822      	ldrb	r2, [r4, #0]
 23fcb8a:	4053      	eors	r3, r2
 23fcb8c:	e7fa      	b.n	23fcb84 <_ZN16Adafruit_SSD130621drawFastVLineInternalEssst+0xf8>
 23fcb8e:	bf00      	nop
 23fcb90:	023ffbcc 	.word	0x023ffbcc
 23fcb94:	023ffbd4 	.word	0x023ffbd4

023fcb98 <_ZN16Adafruit_SSD130613drawFastHLineEssst>:
                                     uint16_t color) {
 23fcb98:	b470      	push	{r4, r5, r6}
 23fcb9a:	4614      	mov	r4, r2
  switch (rotation) {
 23fcb9c:	7e82      	ldrb	r2, [r0, #26]
                                     uint16_t color) {
 23fcb9e:	f8bd 600c 	ldrh.w	r6, [sp, #12]
  switch (rotation) {
 23fcba2:	2a02      	cmp	r2, #2
 23fcba4:	d00d      	beq.n	23fcbc2 <_ZN16Adafruit_SSD130613drawFastHLineEssst+0x2a>
 23fcba6:	2a03      	cmp	r2, #3
 23fcba8:	d018      	beq.n	23fcbdc <_ZN16Adafruit_SSD130613drawFastHLineEssst+0x44>
 23fcbaa:	2a01      	cmp	r2, #1
 23fcbac:	d111      	bne.n	23fcbd2 <_ZN16Adafruit_SSD130613drawFastHLineEssst+0x3a>
    x = WIDTH - x - 1;
 23fcbae:	43e4      	mvns	r4, r4
 23fcbb0:	8902      	ldrh	r2, [r0, #8]
 23fcbb2:	4414      	add	r4, r2
 23fcbb4:	b224      	sxth	r4, r4
    drawFastVLineInternal(x, y, w, color);
 23fcbb6:	460a      	mov	r2, r1
 23fcbb8:	9603      	str	r6, [sp, #12]
 23fcbba:	4621      	mov	r1, r4
}
 23fcbbc:	bc70      	pop	{r4, r5, r6}
    drawFastVLineInternal(x, y, w, color);
 23fcbbe:	f7ff bf65 	b.w	23fca8c <_ZN16Adafruit_SSD130621drawFastVLineInternalEssst>
    y = HEIGHT - y - 1;
 23fcbc2:	43e4      	mvns	r4, r4
 23fcbc4:	8942      	ldrh	r2, [r0, #10]
    x -= (w - 1);
 23fcbc6:	8905      	ldrh	r5, [r0, #8]
 23fcbc8:	4419      	add	r1, r3
    y = HEIGHT - y - 1;
 23fcbca:	4414      	add	r4, r2
    x -= (w - 1);
 23fcbcc:	1a69      	subs	r1, r5, r1
    y = HEIGHT - y - 1;
 23fcbce:	b224      	sxth	r4, r4
    x -= (w - 1);
 23fcbd0:	b209      	sxth	r1, r1
    drawFastHLineInternal(x, y, w, color);
 23fcbd2:	4622      	mov	r2, r4
 23fcbd4:	9603      	str	r6, [sp, #12]
}
 23fcbd6:	bc70      	pop	{r4, r5, r6}
    drawFastHLineInternal(x, y, w, color);
 23fcbd8:	f7ff bf12 	b.w	23fca00 <_ZN16Adafruit_SSD130621drawFastHLineInternalEssst>
    y -= (w - 1);
 23fcbdc:	8945      	ldrh	r5, [r0, #10]
 23fcbde:	4419      	add	r1, r3
 23fcbe0:	1a69      	subs	r1, r5, r1
 23fcbe2:	b209      	sxth	r1, r1
    break;
 23fcbe4:	e7e7      	b.n	23fcbb6 <_ZN16Adafruit_SSD130613drawFastHLineEssst+0x1e>

023fcbe6 <_ZN16Adafruit_SSD130613drawFastVLineEssst>:
                                     uint16_t color) {
 23fcbe6:	b430      	push	{r4, r5}
 23fcbe8:	4614      	mov	r4, r2
  switch (rotation) {
 23fcbea:	7e82      	ldrb	r2, [r0, #26]
                                     uint16_t color) {
 23fcbec:	f8bd 5008 	ldrh.w	r5, [sp, #8]
  switch (rotation) {
 23fcbf0:	2a02      	cmp	r2, #2
 23fcbf2:	d00d      	beq.n	23fcc10 <_ZN16Adafruit_SSD130613drawFastVLineEssst+0x2a>
 23fcbf4:	2a03      	cmp	r2, #3
 23fcbf6:	d018      	beq.n	23fcc2a <_ZN16Adafruit_SSD130613drawFastVLineEssst+0x44>
 23fcbf8:	2a01      	cmp	r2, #1
 23fcbfa:	d111      	bne.n	23fcc20 <_ZN16Adafruit_SSD130613drawFastVLineEssst+0x3a>
    x -= (h - 1);
 23fcbfc:	18e2      	adds	r2, r4, r3
 23fcbfe:	8904      	ldrh	r4, [r0, #8]
 23fcc00:	1aa4      	subs	r4, r4, r2
 23fcc02:	b224      	sxth	r4, r4
    drawFastHLineInternal(x, y, h, color);
 23fcc04:	460a      	mov	r2, r1
 23fcc06:	9502      	str	r5, [sp, #8]
 23fcc08:	4621      	mov	r1, r4
}
 23fcc0a:	bc30      	pop	{r4, r5}
    drawFastHLineInternal(x, y, h, color);
 23fcc0c:	f7ff bef8 	b.w	23fca00 <_ZN16Adafruit_SSD130621drawFastHLineInternalEssst>
    x = WIDTH - x - 1;
 23fcc10:	43c9      	mvns	r1, r1
 23fcc12:	8902      	ldrh	r2, [r0, #8]
 23fcc14:	4411      	add	r1, r2
    y -= (h - 1);
 23fcc16:	18e2      	adds	r2, r4, r3
 23fcc18:	8944      	ldrh	r4, [r0, #10]
    x = WIDTH - x - 1;
 23fcc1a:	b209      	sxth	r1, r1
    y -= (h - 1);
 23fcc1c:	1aa4      	subs	r4, r4, r2
 23fcc1e:	b224      	sxth	r4, r4
    drawFastVLineInternal(x, y, h, color);
 23fcc20:	4622      	mov	r2, r4
 23fcc22:	9502      	str	r5, [sp, #8]
}
 23fcc24:	bc30      	pop	{r4, r5}
    drawFastVLineInternal(x, y, h, color);
 23fcc26:	f7ff bf31 	b.w	23fca8c <_ZN16Adafruit_SSD130621drawFastVLineInternalEssst>
    y = HEIGHT - y - 1;
 23fcc2a:	43c9      	mvns	r1, r1
 23fcc2c:	8942      	ldrh	r2, [r0, #10]
 23fcc2e:	4411      	add	r1, r2
 23fcc30:	b209      	sxth	r1, r1
    break;
 23fcc32:	e7e7      	b.n	23fcc04 <_ZN16Adafruit_SSD130613drawFastVLineEssst+0x1e>

023fcc34 <_ZN16Adafruit_SSD13067displayEv>:
void Adafruit_SSD1306::display(void) {
 23fcc34:	b5f8      	push	{r3, r4, r5, r6, r7, lr}
 23fcc36:	4604      	mov	r4, r0
  TRANSACTION_START
 23fcc38:	6a80      	ldr	r0, [r0, #40]	; 0x28
 23fcc3a:	2800      	cmp	r0, #0
 23fcc3c:	d042      	beq.n	23fccc4 <_ZN16Adafruit_SSD13067displayEv+0x90>
 23fcc3e:	6da1      	ldr	r1, [r4, #88]	; 0x58
 23fcc40:	f001 fb22 	bl	23fe288 <_ZN7TwoWire8setSpeedEm>
  ssd1306_commandList(dlist1, sizeof(dlist1));
 23fcc44:	2205      	movs	r2, #5
 23fcc46:	4620      	mov	r0, r4
 23fcc48:	4947      	ldr	r1, [pc, #284]	; (23fcd68 <_ZN16Adafruit_SSD13067displayEv+0x134>)
 23fcc4a:	f7ff fcc9 	bl	23fc5e0 <_ZN16Adafruit_SSD130619ssd1306_commandListEPKhh>
  ssd1306_command1(WIDTH - 1); // Column end address
 23fcc4e:	8921      	ldrh	r1, [r4, #8]
 23fcc50:	4620      	mov	r0, r4
 23fcc52:	3901      	subs	r1, #1
 23fcc54:	b2c9      	uxtb	r1, r1
 23fcc56:	f7ff fc55 	bl	23fc504 <_ZN16Adafruit_SSD130616ssd1306_command1Eh>
  if (wire) { // I2C
 23fcc5a:	e9d4 050a 	ldrd	r0, r5, [r4, #40]	; 0x28
  uint16_t count = WIDTH * ((HEIGHT + 7) / 8);
 23fcc5e:	f9b4 300a 	ldrsh.w	r3, [r4, #10]
 23fcc62:	1dde      	adds	r6, r3, #7
 23fcc64:	bf48      	it	mi
 23fcc66:	f103 060e 	addmi.w	r6, r3, #14
 23fcc6a:	8923      	ldrh	r3, [r4, #8]
 23fcc6c:	10f6      	asrs	r6, r6, #3
 23fcc6e:	fb13 f606 	smulbb	r6, r3, r6
  uint8_t *ptr = buffer;
 23fcc72:	fa15 f686 	uxtah	r6, r5, r6
  if (wire) { // I2C
 23fcc76:	2800      	cmp	r0, #0
 23fcc78:	d03b      	beq.n	23fccf2 <_ZN16Adafruit_SSD13067displayEv+0xbe>
    wire->beginTransmission(i2caddr);
 23fcc7a:	f994 1030 	ldrsb.w	r1, [r4, #48]	; 0x30
 23fcc7e:	f001 fb35 	bl	23fe2ec <_ZN7TwoWire17beginTransmissionEi>
    WIRE_WRITE((uint8_t)0x40);
 23fcc82:	6aa0      	ldr	r0, [r4, #40]	; 0x28
 23fcc84:	2140      	movs	r1, #64	; 0x40
 23fcc86:	6803      	ldr	r3, [r0, #0]
    uint16_t bytesOut = 1;
 23fcc88:	2701      	movs	r7, #1
    WIRE_WRITE((uint8_t)0x40);
 23fcc8a:	689b      	ldr	r3, [r3, #8]
 23fcc8c:	4798      	blx	r3
    while (count--) {
 23fcc8e:	42ae      	cmp	r6, r5
        wire->endTransmission();
 23fcc90:	6aa0      	ldr	r0, [r4, #40]	; 0x28
    while (count--) {
 23fcc92:	d024      	beq.n	23fccde <_ZN16Adafruit_SSD13067displayEv+0xaa>
      if (bytesOut >= WIRE_MAX) {
 23fcc94:	2f1f      	cmp	r7, #31
 23fcc96:	d90c      	bls.n	23fccb2 <_ZN16Adafruit_SSD13067displayEv+0x7e>
        wire->endTransmission();
 23fcc98:	f001 fb2f 	bl	23fe2fa <_ZN7TwoWire15endTransmissionEv>
        wire->beginTransmission(i2caddr);
 23fcc9c:	f994 1030 	ldrsb.w	r1, [r4, #48]	; 0x30
 23fcca0:	6aa0      	ldr	r0, [r4, #40]	; 0x28
 23fcca2:	f001 fb23 	bl	23fe2ec <_ZN7TwoWire17beginTransmissionEi>
        WIRE_WRITE((uint8_t)0x40);
 23fcca6:	6aa0      	ldr	r0, [r4, #40]	; 0x28
 23fcca8:	2140      	movs	r1, #64	; 0x40
 23fccaa:	6803      	ldr	r3, [r0, #0]
        bytesOut = 1;
 23fccac:	2701      	movs	r7, #1
        WIRE_WRITE((uint8_t)0x40);
 23fccae:	689b      	ldr	r3, [r3, #8]
 23fccb0:	4798      	blx	r3
      WIRE_WRITE(*ptr++);
 23fccb2:	6aa0      	ldr	r0, [r4, #40]	; 0x28
 23fccb4:	f815 1b01 	ldrb.w	r1, [r5], #1
 23fccb8:	6803      	ldr	r3, [r0, #0]
      bytesOut++;
 23fccba:	3701      	adds	r7, #1
      WIRE_WRITE(*ptr++);
 23fccbc:	689b      	ldr	r3, [r3, #8]
 23fccbe:	4798      	blx	r3
      bytesOut++;
 23fccc0:	b2bf      	uxth	r7, r7
    while (count--) {
 23fccc2:	e7e4      	b.n	23fcc8e <_ZN16Adafruit_SSD13067displayEv+0x5a>
  TRANSACTION_START
 23fccc4:	6a60      	ldr	r0, [r4, #36]	; 0x24
 23fccc6:	b118      	cbz	r0, 23fccd0 <_ZN16Adafruit_SSD13067displayEv+0x9c>
 23fccc8:	f104 0164 	add.w	r1, r4, #100	; 0x64
 23fcccc:	f001 fd80 	bl	23fe7d0 <_ZN8SPIClass16beginTransactionERKN8particle11SPISettingsE>
 23fccd0:	6c62      	ldr	r2, [r4, #68]	; 0x44
 23fccd2:	6d61      	ldr	r1, [r4, #84]	; 0x54
 23fccd4:	6813      	ldr	r3, [r2, #0]
 23fccd6:	ea23 0301 	bic.w	r3, r3, r1
 23fccda:	6013      	str	r3, [r2, #0]
 23fccdc:	e7b2      	b.n	23fcc44 <_ZN16Adafruit_SSD13067displayEv+0x10>
    wire->endTransmission();
 23fccde:	f001 fb0c 	bl	23fe2fa <_ZN7TwoWire15endTransmissionEv>
  TRANSACTION_END
 23fcce2:	6aa0      	ldr	r0, [r4, #40]	; 0x28
 23fcce4:	2800      	cmp	r0, #0
 23fcce6:	d032      	beq.n	23fcd4e <_ZN16Adafruit_SSD13067displayEv+0x11a>
 23fcce8:	6de1      	ldr	r1, [r4, #92]	; 0x5c
}
 23fccea:	e8bd 40f8 	ldmia.w	sp!, {r3, r4, r5, r6, r7, lr}
 23fccee:	f001 bacb 	b.w	23fe288 <_ZN7TwoWire8setSpeedEm>
    SSD1306_MODE_DATA
 23fccf2:	6c22      	ldr	r2, [r4, #64]	; 0x40
 23fccf4:	6d21      	ldr	r1, [r4, #80]	; 0x50
 23fccf6:	6813      	ldr	r3, [r2, #0]
 23fccf8:	430b      	orrs	r3, r1
 23fccfa:	6013      	str	r3, [r2, #0]
    while (count--)
 23fccfc:	42b5      	cmp	r5, r6
 23fccfe:	d0f0      	beq.n	23fcce2 <_ZN16Adafruit_SSD13067displayEv+0xae>
  if (spi) {
 23fcd00:	6a60      	ldr	r0, [r4, #36]	; 0x24
      SPIwrite(*ptr++);
 23fcd02:	f815 1b01 	ldrb.w	r1, [r5], #1
  if (spi) {
 23fcd06:	b110      	cbz	r0, 23fcd0e <_ZN16Adafruit_SSD13067displayEv+0xda>
    (void)spi->transfer(d);
 23fcd08:	f001 fdd0 	bl	23fe8ac <_ZN8SPIClass8transferEh>
 23fcd0c:	e7f6      	b.n	23fccfc <_ZN16Adafruit_SSD13067displayEv+0xc8>
 23fcd0e:	f04f 0e08 	mov.w	lr, #8
    for (uint8_t bit = 0x80; bit; bit >>= 1) {
 23fcd12:	2080      	movs	r0, #128	; 0x80
        *mosiPort |= mosiPinMask;
 23fcd14:	6ba3      	ldr	r3, [r4, #56]	; 0x38
 23fcd16:	f8d4 c048 	ldr.w	ip, [r4, #72]	; 0x48
 23fcd1a:	681f      	ldr	r7, [r3, #0]
      if (d & bit)
 23fcd1c:	4201      	tst	r1, r0
        *mosiPort |= mosiPinMask;
 23fcd1e:	bf14      	ite	ne
 23fcd20:	ea47 070c 	orrne.w	r7, r7, ip
        *mosiPort &= ~mosiPinMask;
 23fcd24:	ea27 070c 	biceq.w	r7, r7, ip
 23fcd28:	601f      	str	r7, [r3, #0]
      *clkPort |= clkPinMask;  // Clock high
 23fcd2a:	6be7      	ldr	r7, [r4, #60]	; 0x3c
 23fcd2c:	6ce2      	ldr	r2, [r4, #76]	; 0x4c
 23fcd2e:	683b      	ldr	r3, [r7, #0]
    for (uint8_t bit = 0x80; bit; bit >>= 1) {
 23fcd30:	f1be 0e01 	subs.w	lr, lr, #1
      *clkPort |= clkPinMask;  // Clock high
 23fcd34:	ea43 0302 	orr.w	r3, r3, r2
 23fcd38:	603b      	str	r3, [r7, #0]
      *clkPort &= ~clkPinMask; // Clock low
 23fcd3a:	6be7      	ldr	r7, [r4, #60]	; 0x3c
 23fcd3c:	6ce2      	ldr	r2, [r4, #76]	; 0x4c
 23fcd3e:	683b      	ldr	r3, [r7, #0]
    for (uint8_t bit = 0x80; bit; bit >>= 1) {
 23fcd40:	ea4f 0050 	mov.w	r0, r0, lsr #1
      *clkPort &= ~clkPinMask; // Clock low
 23fcd44:	ea23 0302 	bic.w	r3, r3, r2
 23fcd48:	603b      	str	r3, [r7, #0]
    for (uint8_t bit = 0x80; bit; bit >>= 1) {
 23fcd4a:	d1e3      	bne.n	23fcd14 <_ZN16Adafruit_SSD13067displayEv+0xe0>
 23fcd4c:	e7d6      	b.n	23fccfc <_ZN16Adafruit_SSD13067displayEv+0xc8>
  TRANSACTION_END
 23fcd4e:	6c62      	ldr	r2, [r4, #68]	; 0x44
 23fcd50:	6d61      	ldr	r1, [r4, #84]	; 0x54
 23fcd52:	6813      	ldr	r3, [r2, #0]
 23fcd54:	430b      	orrs	r3, r1
 23fcd56:	6013      	str	r3, [r2, #0]
 23fcd58:	6a60      	ldr	r0, [r4, #36]	; 0x24
 23fcd5a:	b118      	cbz	r0, 23fcd64 <_ZN16Adafruit_SSD13067displayEv+0x130>
}
 23fcd5c:	e8bd 40f8 	ldmia.w	sp!, {r3, r4, r5, r6, r7, lr}
  TRANSACTION_END
 23fcd60:	f001 bd1c 	b.w	23fe79c <_ZN8SPIClass14endTransactionEv>
}
 23fcd64:	bdf8      	pop	{r3, r4, r5, r6, r7, pc}
 23fcd66:	bf00      	nop
 23fcd68:	023ffbee 	.word	0x023ffbee

023fcd6c <_ZN16Adafruit_SSD13063dimEb>:
            true to enable lower brightness mode, false for full brightness.
    @return None (void).
    @note   This has an immediate effect on the display, no need to call the
            display() function -- buffer contents are not changed.
*/
void Adafruit_SSD1306::dim(bool dim) {
 23fcd6c:	b538      	push	{r3, r4, r5, lr}
 23fcd6e:	4604      	mov	r4, r0
  // the range of contrast to too small to be really useful
  // it is useful to dim the display
  TRANSACTION_START
 23fcd70:	6a80      	ldr	r0, [r0, #40]	; 0x28
void Adafruit_SSD1306::dim(bool dim) {
 23fcd72:	460d      	mov	r5, r1
  TRANSACTION_START
 23fcd74:	b198      	cbz	r0, 23fcd9e <_ZN16Adafruit_SSD13063dimEb+0x32>
 23fcd76:	6da1      	ldr	r1, [r4, #88]	; 0x58
 23fcd78:	f001 fa86 	bl	23fe288 <_ZN7TwoWire8setSpeedEm>
  ssd1306_command1(SSD1306_SETCONTRAST);
 23fcd7c:	2181      	movs	r1, #129	; 0x81
 23fcd7e:	4620      	mov	r0, r4
 23fcd80:	f7ff fbc0 	bl	23fc504 <_ZN16Adafruit_SSD130616ssd1306_command1Eh>
  ssd1306_command1(dim ? 0 : contrast);
 23fcd84:	b9c5      	cbnz	r5, 23fcdb8 <_ZN16Adafruit_SSD13063dimEb+0x4c>
 23fcd86:	f894 1060 	ldrb.w	r1, [r4, #96]	; 0x60
 23fcd8a:	4620      	mov	r0, r4
 23fcd8c:	f7ff fbba 	bl	23fc504 <_ZN16Adafruit_SSD130616ssd1306_command1Eh>
  TRANSACTION_END
 23fcd90:	6aa0      	ldr	r0, [r4, #40]	; 0x28
 23fcd92:	b198      	cbz	r0, 23fcdbc <_ZN16Adafruit_SSD13063dimEb+0x50>
 23fcd94:	6de1      	ldr	r1, [r4, #92]	; 0x5c
}
 23fcd96:	e8bd 4038 	ldmia.w	sp!, {r3, r4, r5, lr}
 23fcd9a:	f001 ba75 	b.w	23fe288 <_ZN7TwoWire8setSpeedEm>
  TRANSACTION_START
 23fcd9e:	6a60      	ldr	r0, [r4, #36]	; 0x24
 23fcda0:	b118      	cbz	r0, 23fcdaa <_ZN16Adafruit_SSD13063dimEb+0x3e>
 23fcda2:	f104 0164 	add.w	r1, r4, #100	; 0x64
 23fcda6:	f001 fd13 	bl	23fe7d0 <_ZN8SPIClass16beginTransactionERKN8particle11SPISettingsE>
 23fcdaa:	6c62      	ldr	r2, [r4, #68]	; 0x44
 23fcdac:	6d61      	ldr	r1, [r4, #84]	; 0x54
 23fcdae:	6813      	ldr	r3, [r2, #0]
 23fcdb0:	ea23 0301 	bic.w	r3, r3, r1
 23fcdb4:	6013      	str	r3, [r2, #0]
 23fcdb6:	e7e1      	b.n	23fcd7c <_ZN16Adafruit_SSD13063dimEb+0x10>
  ssd1306_command1(dim ? 0 : contrast);
 23fcdb8:	2100      	movs	r1, #0
 23fcdba:	e7e6      	b.n	23fcd8a <_ZN16Adafruit_SSD13063dimEb+0x1e>
  TRANSACTION_END
 23fcdbc:	6c62      	ldr	r2, [r4, #68]	; 0x44
 23fcdbe:	6d61      	ldr	r1, [r4, #84]	; 0x54
 23fcdc0:	6813      	ldr	r3, [r2, #0]
 23fcdc2:	430b      	orrs	r3, r1
 23fcdc4:	6013      	str	r3, [r2, #0]
 23fcdc6:	6a60      	ldr	r0, [r4, #36]	; 0x24
 23fcdc8:	b118      	cbz	r0, 23fcdd2 <_ZN16Adafruit_SSD13063dimEb+0x66>
}
 23fcdca:	e8bd 4038 	ldmia.w	sp!, {r3, r4, r5, lr}
  TRANSACTION_END
 23fcdce:	f001 bce5 	b.w	23fe79c <_ZN8SPIClass14endTransactionEv>
}
 23fcdd2:	bd38      	pop	{r3, r4, r5, pc}

023fcdd4 <_ZN8particle8SpiProxyIL19hal_spi_interface_t0EE8instanceEv>:
namespace particle {

template <hal_spi_interface_t Interface>
class SpiProxy {
public:
    static SPIClass& instance() {
 23fcdd4:	b513      	push	{r0, r1, r4, lr}
        static SPIClass instance(Interface);
 23fcdd6:	4c0a      	ldr	r4, [pc, #40]	; (23fce00 <_ZN8particle8SpiProxyIL19hal_spi_interface_t0EE8instanceEv+0x2c>)
 23fcdd8:	e8d4 1f8f 	ldab	r1, [r4]
 23fcddc:	f011 0101 	ands.w	r1, r1, #1
 23fcde0:	d10b      	bne.n	23fcdfa <_ZN8particle8SpiProxyIL19hal_spi_interface_t0EE8instanceEv+0x26>
 23fcde2:	4620      	mov	r0, r4
 23fcde4:	9101      	str	r1, [sp, #4]
 23fcde6:	f000 fea1 	bl	23fdb2c <__cxa_guard_acquire>
 23fcdea:	9901      	ldr	r1, [sp, #4]
 23fcdec:	b128      	cbz	r0, 23fcdfa <_ZN8particle8SpiProxyIL19hal_spi_interface_t0EE8instanceEv+0x26>
 23fcdee:	4805      	ldr	r0, [pc, #20]	; (23fce04 <_ZN8particle8SpiProxyIL19hal_spi_interface_t0EE8instanceEv+0x30>)
 23fcdf0:	f001 fcb6 	bl	23fe760 <_ZN8SPIClassC1E19hal_spi_interface_t>
 23fcdf4:	4620      	mov	r0, r4
 23fcdf6:	f000 fea7 	bl	23fdb48 <__cxa_guard_release>
        return instance;
    }
 23fcdfa:	4802      	ldr	r0, [pc, #8]	; (23fce04 <_ZN8particle8SpiProxyIL19hal_spi_interface_t0EE8instanceEv+0x30>)
 23fcdfc:	b002      	add	sp, #8
 23fcdfe:	bd10      	pop	{r4, pc}
 23fce00:	1007aee4 	.word	0x1007aee4
 23fce04:	1007aee8 	.word	0x1007aee8

023fce08 <_ZN11BMI160Class8reg_readEh>:
    (((val) & (1 << ((from) - 1))) ? (val | (((1 << (1 + (sizeof(val) << 3) - (from))) - 1) << (from))) : val)

/******************************************************************************/

uint8_t BMI160Class::reg_read (uint8_t reg)
{
 23fce08:	b513      	push	{r0, r1, r4, lr}
    uint8_t buffer[1];
    buffer[0] = reg;
    serial_buffer_transfer(buffer, 1, 1);
 23fce0a:	6803      	ldr	r3, [r0, #0]
    buffer[0] = reg;
 23fce0c:	f88d 1004 	strb.w	r1, [sp, #4]
    serial_buffer_transfer(buffer, 1, 1);
 23fce10:	681c      	ldr	r4, [r3, #0]
 23fce12:	2301      	movs	r3, #1
 23fce14:	a901      	add	r1, sp, #4
 23fce16:	461a      	mov	r2, r3
 23fce18:	47a0      	blx	r4
    return buffer[0];
}
 23fce1a:	f89d 0004 	ldrb.w	r0, [sp, #4]
 23fce1e:	b002      	add	sp, #8
 23fce20:	bd10      	pop	{r4, pc}

023fce22 <_ZN11BMI160Class11getDeviceIDEv>:
 * This register is used to verify the identity of the device (0b11010001, 0xD1).
 * @return Device ID (should be 0xD1)
 * @see BMI160_RA_CHIP_ID
 */
uint8_t BMI160Class::getDeviceID() {
    return reg_read(BMI160_RA_CHIP_ID);
 23fce22:	2100      	movs	r1, #0
 23fce24:	f7ff bff0 	b.w	23fce08 <_ZN11BMI160Class8reg_readEh>

023fce28 <_ZN5Print5printIiLi0EEEjT_i.isra.0>:

} // namespace particle

template <typename T, std::enable_if_t<!std::is_base_of<Printable, T>::value && (std::is_integral<T>::value || std::is_convertible<T, unsigned long long>::value ||
    std::is_convertible<T, long long>::value), int>>
inline size_t Print::print(T n, int base)
 23fce28:	b570      	push	{r4, r5, r6, lr}
 23fce2a:	4606      	mov	r6, r0
 23fce2c:	460c      	mov	r4, r1
{
    if (base == 0) {
 23fce2e:	4615      	mov	r5, r2
 23fce30:	b92a      	cbnz	r2, 23fce3e <_ZN5Print5printIiLi0EEEjT_i.isra.0+0x16>
#if __GNUC__ >= 9
#pragma GCC diagnostic pop
#endif // __GNUC__ >= 9
        return printNumber(val, base) + t;
    }
}
 23fce32:	e8bd 4070 	ldmia.w	sp!, {r4, r5, r6, lr}
        return write(n);
 23fce36:	6803      	ldr	r3, [r0, #0]
 23fce38:	b2c9      	uxtb	r1, r1
 23fce3a:	689b      	ldr	r3, [r3, #8]
 23fce3c:	4718      	bx	r3
        if (n < 0 && base == 10) {
 23fce3e:	2900      	cmp	r1, #0
 23fce40:	da0b      	bge.n	23fce5a <_ZN5Print5printIiLi0EEEjT_i.isra.0+0x32>
 23fce42:	2a0a      	cmp	r2, #10
 23fce44:	d109      	bne.n	23fce5a <_ZN5Print5printIiLi0EEEjT_i.isra.0+0x32>
            t = print('-');
 23fce46:	212d      	movs	r1, #45	; 0x2d
 23fce48:	f001 fbf2 	bl	23fe630 <_ZN5Print5printEc>
            val = -n;
 23fce4c:	4261      	negs	r1, r4
        return printNumber(val, base) + t;
 23fce4e:	4630      	mov	r0, r6
 23fce50:	b2ea      	uxtb	r2, r5
}
 23fce52:	e8bd 4070 	ldmia.w	sp!, {r4, r5, r6, lr}
        return printNumber(val, base) + t;
 23fce56:	f001 bc04 	b.w	23fe662 <_ZN5Print11printNumberEmh>
            val = n;
 23fce5a:	4621      	mov	r1, r4
 23fce5c:	e7f7      	b.n	23fce4e <_ZN5Print5printIiLi0EEEjT_i.isra.0+0x26>
	...

023fce60 <_ZN14BMI160GenClass8i2c_initEv>:
        return 0;
    }
}

void BMI160GenClass::i2c_init()
{
 23fce60:	b538      	push	{r3, r4, r5, lr}
 23fce62:	4604      	mov	r4, r0
#ifdef DEBUG
  Serial.println("BMI160GenClass::i2c_init()...");
 23fce64:	f001 fe38 	bl	23fead8 <_Z16_fetch_usbserialv>
 23fce68:	4914      	ldr	r1, [pc, #80]	; (23fcebc <_ZN14BMI160GenClass8i2c_initEv+0x5c>)
 23fce6a:	f001 fbf0 	bl	23fe64e <_ZN5Print7printlnEPKc>
#endif // DEBUG

  //_i2cPort->begin();
  _i2cPort->beginTransmission(i2c_addr);
 23fce6e:	69a0      	ldr	r0, [r4, #24]
 23fce70:	68e1      	ldr	r1, [r4, #12]
 23fce72:	f001 fa3b 	bl	23fe2ec <_ZN7TwoWire17beginTransmissionEi>
  if( _i2cPort->endTransmission() != 0 )
 23fce76:	69a0      	ldr	r0, [r4, #24]
 23fce78:	f001 fa3f 	bl	23fe2fa <_ZN7TwoWire15endTransmissionEv>
 23fce7c:	b120      	cbz	r0, 23fce88 <_ZN14BMI160GenClass8i2c_initEv+0x28>
      Serial.println("BMI160GenClass::i2c_init(): I2C failed.");
 23fce7e:	f001 fe2b 	bl	23fead8 <_Z16_fetch_usbserialv>
 23fce82:	490f      	ldr	r1, [pc, #60]	; (23fcec0 <_ZN14BMI160GenClass8i2c_initEv+0x60>)
 23fce84:	f001 fbe3 	bl	23fe64e <_ZN5Print7printlnEPKc>

#ifdef DEBUG
  int id = getDeviceID();
 23fce88:	4620      	mov	r0, r4
 23fce8a:	f7ff ffca 	bl	23fce22 <_ZN11BMI160Class11getDeviceIDEv>
 23fce8e:	4605      	mov	r5, r0
  Serial.print("BMI160GenClass::i2c_init(): CHIP ID = 0x");
 23fce90:	f001 fe22 	bl	23fead8 <_Z16_fetch_usbserialv>
 23fce94:	490b      	ldr	r1, [pc, #44]	; (23fcec4 <_ZN14BMI160GenClass8i2c_initEv+0x64>)
 23fce96:	f001 fbc7 	bl	23fe628 <_ZN5Print5printEPKc>
  Serial.println(id, HEX);
 23fce9a:	f001 fe1d 	bl	23fead8 <_Z16_fetch_usbserialv>
 23fce9e:	4604      	mov	r4, r0
        size_t n = print(b, base);
 23fcea0:	4629      	mov	r1, r5
 23fcea2:	2210      	movs	r2, #16
 23fcea4:	f7ff ffc0 	bl	23fce28 <_ZN5Print5printIiLi0EEEjT_i.isra.0>
        n += println();
 23fcea8:	4620      	mov	r0, r4
 23fceaa:	f001 fbc4 	bl	23fe636 <_ZN5Print7printlnEv>
  Serial.println("BMI160GenClass::i2c_init()...done");
 23fceae:	f001 fe13 	bl	23fead8 <_Z16_fetch_usbserialv>
#endif // DEBUG
}
 23fceb2:	e8bd 4038 	ldmia.w	sp!, {r3, r4, r5, lr}
  Serial.println("BMI160GenClass::i2c_init()...done");
 23fceb6:	4904      	ldr	r1, [pc, #16]	; (23fcec8 <_ZN14BMI160GenClass8i2c_initEv+0x68>)
 23fceb8:	f001 bbc9 	b.w	23fe64e <_ZN5Print7printlnEPKc>
 23fcebc:	023ffbf3 	.word	0x023ffbf3
 23fcec0:	023ffc11 	.word	0x023ffc11
 23fcec4:	023ffc39 	.word	0x023ffc39
 23fcec8:	023ffc62 	.word	0x023ffc62

023fcecc <_ZN14BMI160GenClass8i2c_xferEPhjj>:

int BMI160GenClass::i2c_xfer(uint8_t *buf, unsigned tx_cnt, unsigned rx_cnt)
{
 23fcecc:	e92d 41f0 	stmdb	sp!, {r4, r5, r6, r7, r8, lr}
 23fced0:	460c      	mov	r4, r1
 23fced2:	4617      	mov	r7, r2
 23fced4:	461e      	mov	r6, r3
 23fced6:	4605      	mov	r5, r0
  uint8_t *p;

#ifdef DEBUG
  Serial.print("i2c_xfer(offs=0x");
 23fced8:	f001 fdfe 	bl	23fead8 <_Z16_fetch_usbserialv>
 23fcedc:	4932      	ldr	r1, [pc, #200]	; (23fcfa8 <_ZN14BMI160GenClass8i2c_xferEPhjj+0xdc>)
 23fcede:	f001 fba3 	bl	23fe628 <_ZN5Print5printEPKc>
  Serial.print(*buf, HEX);
 23fcee2:	f001 fdf9 	bl	23fead8 <_Z16_fetch_usbserialv>
        return printNumber(val, base) + t;
 23fcee6:	2210      	movs	r2, #16
 23fcee8:	7821      	ldrb	r1, [r4, #0]
 23fceea:	f001 fbba 	bl	23fe662 <_ZN5Print11printNumberEmh>
  Serial.print(", tx=");
 23fceee:	f001 fdf3 	bl	23fead8 <_Z16_fetch_usbserialv>
 23fcef2:	492e      	ldr	r1, [pc, #184]	; (23fcfac <_ZN14BMI160GenClass8i2c_xferEPhjj+0xe0>)
 23fcef4:	f001 fb98 	bl	23fe628 <_ZN5Print5printEPKc>
  Serial.print(tx_cnt);
 23fcef8:	f001 fdee 	bl	23fead8 <_Z16_fetch_usbserialv>
 23fcefc:	220a      	movs	r2, #10
 23fcefe:	4639      	mov	r1, r7
 23fcf00:	f001 fbaf 	bl	23fe662 <_ZN5Print11printNumberEmh>
  Serial.print(", rx=");
 23fcf04:	f001 fde8 	bl	23fead8 <_Z16_fetch_usbserialv>
 23fcf08:	4929      	ldr	r1, [pc, #164]	; (23fcfb0 <_ZN14BMI160GenClass8i2c_xferEPhjj+0xe4>)
 23fcf0a:	f001 fb8d 	bl	23fe628 <_ZN5Print5printEPKc>
  Serial.print(rx_cnt);
 23fcf0e:	f001 fde3 	bl	23fead8 <_Z16_fetch_usbserialv>
 23fcf12:	220a      	movs	r2, #10
 23fcf14:	4631      	mov	r1, r6
 23fcf16:	f001 fba4 	bl	23fe662 <_ZN5Print11printNumberEmh>
  Serial.print("):");
 23fcf1a:	f001 fddd 	bl	23fead8 <_Z16_fetch_usbserialv>
 23fcf1e:	4925      	ldr	r1, [pc, #148]	; (23fcfb4 <_ZN14BMI160GenClass8i2c_xferEPhjj+0xe8>)
 23fcf20:	f001 fb82 	bl	23fe628 <_ZN5Print5printEPKc>
#endif // DEBUG

  _i2cPort->beginTransmission(i2c_addr);
 23fcf24:	68e9      	ldr	r1, [r5, #12]
 23fcf26:	69a8      	ldr	r0, [r5, #24]
 23fcf28:	f001 f9e0 	bl	23fe2ec <_ZN7TwoWire17beginTransmissionEi>
 23fcf2c:	46a0      	mov	r8, r4
 23fcf2e:	4427      	add	r7, r4
  p = buf;
  while (0 < tx_cnt) {
 23fcf30:	45b8      	cmp	r8, r7
    tx_cnt--;
    _i2cPort->write(*p++);
 23fcf32:	69a8      	ldr	r0, [r5, #24]
  while (0 < tx_cnt) {
 23fcf34:	d005      	beq.n	23fcf42 <_ZN14BMI160GenClass8i2c_xferEPhjj+0x76>
    _i2cPort->write(*p++);
 23fcf36:	6803      	ldr	r3, [r0, #0]
 23fcf38:	f818 1b01 	ldrb.w	r1, [r8], #1
 23fcf3c:	689b      	ldr	r3, [r3, #8]
 23fcf3e:	4798      	blx	r3
  while (0 < tx_cnt) {
 23fcf40:	e7f6      	b.n	23fcf30 <_ZN14BMI160GenClass8i2c_xferEPhjj+0x64>
  }
  if( _i2cPort->endTransmission() != 0 ) {
 23fcf42:	f001 f9da 	bl	23fe2fa <_ZN7TwoWire15endTransmissionEv>
 23fcf46:	b120      	cbz	r0, 23fcf52 <_ZN14BMI160GenClass8i2c_xferEPhjj+0x86>
      Serial.println("Wire.endTransmission() failed.");
 23fcf48:	f001 fdc6 	bl	23fead8 <_Z16_fetch_usbserialv>
 23fcf4c:	491a      	ldr	r1, [pc, #104]	; (23fcfb8 <_ZN14BMI160GenClass8i2c_xferEPhjj+0xec>)
 23fcf4e:	f001 fb7e 	bl	23fe64e <_ZN5Print7printlnEPKc>
  }
  if (0 < rx_cnt) {
 23fcf52:	b30e      	cbz	r6, 23fcf98 <_ZN14BMI160GenClass8i2c_xferEPhjj+0xcc>
    _i2cPort->requestFrom(i2c_addr, rx_cnt);
 23fcf54:	4632      	mov	r2, r6
 23fcf56:	7b29      	ldrb	r1, [r5, #12]
 23fcf58:	69a8      	ldr	r0, [r5, #24]
 23fcf5a:	f001 f9c0 	bl	23fe2de <_ZN7TwoWire11requestFromEhj>
    p = buf;
    while ( _i2cPort->available() && 0 < rx_cnt) {
      rx_cnt--;
#ifdef DEBUG
      int t = *p++ = _i2cPort->read();
      Serial.print(" ");
 23fcf5e:	f8df 8060 	ldr.w	r8, [pc, #96]	; 23fcfc0 <_ZN14BMI160GenClass8i2c_xferEPhjj+0xf4>
 23fcf62:	4426      	add	r6, r4
    while ( _i2cPort->available() && 0 < rx_cnt) {
 23fcf64:	69a8      	ldr	r0, [r5, #24]
 23fcf66:	6803      	ldr	r3, [r0, #0]
 23fcf68:	691b      	ldr	r3, [r3, #16]
 23fcf6a:	4798      	blx	r3
 23fcf6c:	b1a0      	cbz	r0, 23fcf98 <_ZN14BMI160GenClass8i2c_xferEPhjj+0xcc>
 23fcf6e:	42b4      	cmp	r4, r6
 23fcf70:	d012      	beq.n	23fcf98 <_ZN14BMI160GenClass8i2c_xferEPhjj+0xcc>
      int t = *p++ = _i2cPort->read();
 23fcf72:	69a8      	ldr	r0, [r5, #24]
 23fcf74:	6803      	ldr	r3, [r0, #0]
 23fcf76:	695b      	ldr	r3, [r3, #20]
 23fcf78:	4798      	blx	r3
 23fcf7a:	4607      	mov	r7, r0
 23fcf7c:	f804 0b01 	strb.w	r0, [r4], #1
      Serial.print(" ");
 23fcf80:	f001 fdaa 	bl	23fead8 <_Z16_fetch_usbserialv>
 23fcf84:	4641      	mov	r1, r8
 23fcf86:	f001 fb4f 	bl	23fe628 <_ZN5Print5printEPKc>
      Serial.print(t, HEX);
 23fcf8a:	f001 fda5 	bl	23fead8 <_Z16_fetch_usbserialv>
 23fcf8e:	2210      	movs	r2, #16
 23fcf90:	b2f9      	uxtb	r1, r7
 23fcf92:	f7ff ff49 	bl	23fce28 <_ZN5Print5printIiLi0EEEjT_i.isra.0>
    while ( _i2cPort->available() && 0 < rx_cnt) {
 23fcf96:	e7e5      	b.n	23fcf64 <_ZN14BMI160GenClass8i2c_xferEPhjj+0x98>
#endif // DEBUG
    }
  }

#ifdef DEBUG
  Serial.println("");
 23fcf98:	f001 fd9e 	bl	23fead8 <_Z16_fetch_usbserialv>
 23fcf9c:	4907      	ldr	r1, [pc, #28]	; (23fcfbc <_ZN14BMI160GenClass8i2c_xferEPhjj+0xf0>)
 23fcf9e:	f001 fb56 	bl	23fe64e <_ZN5Print7printlnEPKc>
#endif // DEBUG

  return (0);
}
 23fcfa2:	2000      	movs	r0, #0
 23fcfa4:	e8bd 81f0 	ldmia.w	sp!, {r4, r5, r6, r7, r8, pc}
 23fcfa8:	023ffc84 	.word	0x023ffc84
 23fcfac:	023ffc95 	.word	0x023ffc95
 23fcfb0:	023ffc9b 	.word	0x023ffc9b
 23fcfb4:	023ffca1 	.word	0x023ffca1
 23fcfb8:	023ffca4 	.word	0x023ffca4
 23fcfbc:	023ff684 	.word	0x023ff684
 23fcfc0:	023ff683 	.word	0x023ff683

023fcfc4 <_ZN14BMI160GenClass8spi_initEv>:

void BMI160GenClass::spi_init()
{
 23fcfc4:	b510      	push	{r4, lr}
 23fcfc6:	4604      	mov	r4, r0
#ifdef DEBUG
  Serial.println("BMI160GenClass::spi_init()...");
 23fcfc8:	f001 fd86 	bl	23fead8 <_Z16_fetch_usbserialv>
 23fcfcc:	490d      	ldr	r1, [pc, #52]	; (23fd004 <_ZN14BMI160GenClass8spi_initEv+0x40>)
 23fcfce:	f001 fb3e 	bl	23fe64e <_ZN5Print7printlnEPKc>

    hal_spi_interface_t interface() {
         return instance().interface();
    }
    void begin() {
        instance().begin();
 23fcfd2:	f7ff feff 	bl	23fcdd4 <_ZN8particle8SpiProxyIL19hal_spi_interface_t0EE8instanceEv>
 23fcfd6:	f001 fbcd 	bl	23fe774 <_ZN8SPIClass5beginEv>
#endif // DEBUG

  // start the SPI library:
  SPI.begin();
  if (0 <= spi_ss) {
 23fcfda:	6920      	ldr	r0, [r4, #16]
 23fcfdc:	2800      	cmp	r0, #0
 23fcfde:	db0a      	blt.n	23fcff6 <_ZN14BMI160GenClass8spi_initEv+0x32>
    pinMode(spi_ss, OUTPUT);
 23fcfe0:	2101      	movs	r1, #1
 23fcfe2:	b280      	uxth	r0, r0
 23fcfe4:	f001 fec0 	bl	23fed68 <pinMode>
  } else {
    Serial.println("BMI160GenClass::spi_init(): WARNING: No chip select pin specified.");
  }

#ifdef DEBUG
  Serial.println("BMI160GenClass::spi_init()...done");
 23fcfe8:	f001 fd76 	bl	23fead8 <_Z16_fetch_usbserialv>
#endif // DEBUG
}
 23fcfec:	e8bd 4010 	ldmia.w	sp!, {r4, lr}
  Serial.println("BMI160GenClass::spi_init()...done");
 23fcff0:	4905      	ldr	r1, [pc, #20]	; (23fd008 <_ZN14BMI160GenClass8spi_initEv+0x44>)
 23fcff2:	f001 bb2c 	b.w	23fe64e <_ZN5Print7printlnEPKc>
    Serial.println("BMI160GenClass::spi_init(): WARNING: No chip select pin specified.");
 23fcff6:	f001 fd6f 	bl	23fead8 <_Z16_fetch_usbserialv>
 23fcffa:	4904      	ldr	r1, [pc, #16]	; (23fd00c <_ZN14BMI160GenClass8spi_initEv+0x48>)
 23fcffc:	f001 fb27 	bl	23fe64e <_ZN5Print7printlnEPKc>
 23fd000:	e7f2      	b.n	23fcfe8 <_ZN14BMI160GenClass8spi_initEv+0x24>
 23fd002:	bf00      	nop
 23fd004:	023ffcc3 	.word	0x023ffcc3
 23fd008:	023ffd24 	.word	0x023ffd24
 23fd00c:	023ffce1 	.word	0x023ffce1

023fd010 <_ZN14BMI160GenClass7ss_initEv>:
    switch (this->mode) {
 23fd010:	f990 3014 	ldrsb.w	r3, [r0, #20]
 23fd014:	2b01      	cmp	r3, #1
 23fd016:	d002      	beq.n	23fd01e <_ZN14BMI160GenClass7ss_initEv+0xe>
 23fd018:	2b02      	cmp	r3, #2
 23fd01a:	d002      	beq.n	23fd022 <_ZN14BMI160GenClass7ss_initEv+0x12>
 23fd01c:	4770      	bx	lr
        i2c_init();
 23fd01e:	f7ff bf1f 	b.w	23fce60 <_ZN14BMI160GenClass8i2c_initEv>
        spi_init();
 23fd022:	f7ff bfcf 	b.w	23fcfc4 <_ZN14BMI160GenClass8spi_initEv>
	...

023fd028 <_ZN14BMI160GenClass8spi_xferEPhjj>:

int BMI160GenClass::spi_xfer(uint8_t *buf, unsigned tx_cnt, unsigned rx_cnt)
{
 23fd028:	e92d 41f3 	stmdb	sp!, {r0, r1, r4, r5, r6, r7, r8, lr}
 23fd02c:	460c      	mov	r4, r1
 23fd02e:	4616      	mov	r6, r2
 23fd030:	461d      	mov	r5, r3
 23fd032:	4607      	mov	r7, r0
  uint8_t *p;

#ifdef DEBUG
  Serial.print("BMI160GenClass::spi_xfer(");
 23fd034:	f001 fd50 	bl	23fead8 <_Z16_fetch_usbserialv>
 23fd038:	4935      	ldr	r1, [pc, #212]	; (23fd110 <_ZN14BMI160GenClass8spi_xferEPhjj+0xe8>)
 23fd03a:	f001 faf5 	bl	23fe628 <_ZN5Print5printEPKc>
  Serial.print((unsigned long)buf, HEX);
 23fd03e:	f001 fd4b 	bl	23fead8 <_Z16_fetch_usbserialv>
 23fd042:	2210      	movs	r2, #16
 23fd044:	4621      	mov	r1, r4
 23fd046:	f001 fb0c 	bl	23fe662 <_ZN5Print11printNumberEmh>
  Serial.print("=");
 23fd04a:	f001 fd45 	bl	23fead8 <_Z16_fetch_usbserialv>
 23fd04e:	4931      	ldr	r1, [pc, #196]	; (23fd114 <_ZN14BMI160GenClass8spi_xferEPhjj+0xec>)
 23fd050:	f001 faea 	bl	23fe628 <_ZN5Print5printEPKc>
  Serial.print(*buf, HEX);
 23fd054:	f001 fd40 	bl	23fead8 <_Z16_fetch_usbserialv>
 23fd058:	2210      	movs	r2, #16
 23fd05a:	7821      	ldrb	r1, [r4, #0]
 23fd05c:	f001 fb01 	bl	23fe662 <_ZN5Print11printNumberEmh>
  Serial.print(",");
 23fd060:	f001 fd3a 	bl	23fead8 <_Z16_fetch_usbserialv>
 23fd064:	492c      	ldr	r1, [pc, #176]	; (23fd118 <_ZN14BMI160GenClass8spi_xferEPhjj+0xf0>)
 23fd066:	f001 fadf 	bl	23fe628 <_ZN5Print5printEPKc>
  Serial.print(tx_cnt);
 23fd06a:	f001 fd35 	bl	23fead8 <_Z16_fetch_usbserialv>
 23fd06e:	220a      	movs	r2, #10
 23fd070:	4631      	mov	r1, r6
 23fd072:	f001 faf6 	bl	23fe662 <_ZN5Print11printNumberEmh>
  Serial.print(",");
 23fd076:	f001 fd2f 	bl	23fead8 <_Z16_fetch_usbserialv>
 23fd07a:	4927      	ldr	r1, [pc, #156]	; (23fd118 <_ZN14BMI160GenClass8spi_xferEPhjj+0xf0>)
 23fd07c:	f001 fad4 	bl	23fe628 <_ZN5Print5printEPKc>
  Serial.print(rx_cnt);
 23fd080:	f001 fd2a 	bl	23fead8 <_Z16_fetch_usbserialv>
 23fd084:	220a      	movs	r2, #10
 23fd086:	4629      	mov	r1, r5
 23fd088:	f001 faeb 	bl	23fe662 <_ZN5Print11printNumberEmh>
  Serial.print("):");
 23fd08c:	f001 fd24 	bl	23fead8 <_Z16_fetch_usbserialv>
 23fd090:	4922      	ldr	r1, [pc, #136]	; (23fd11c <_ZN14BMI160GenClass8spi_xferEPhjj+0xf4>)
 23fd092:	f001 fac9 	bl	23fe628 <_ZN5Print5printEPKc>
#endif // DEBUG

  if (0 <= spi_ss)
 23fd096:	6938      	ldr	r0, [r7, #16]
 23fd098:	2800      	cmp	r0, #0
 23fd09a:	db03      	blt.n	23fd0a4 <_ZN14BMI160GenClass8spi_xferEPhjj+0x7c>
    digitalWrite(spi_ss, LOW);
 23fd09c:	2100      	movs	r1, #0
 23fd09e:	b280      	uxth	r0, r0
 23fd0a0:	f001 fe73 	bl	23fed8a <digitalWrite>
{
 23fd0a4:	46a0      	mov	r8, r4
 23fd0a6:	4426      	add	r6, r4
  p = buf;
  while (0 < tx_cnt) {
 23fd0a8:	4546      	cmp	r6, r8
 23fd0aa:	d118      	bne.n	23fd0de <_ZN14BMI160GenClass8spi_xferEPhjj+0xb6>
  p = buf;
  while (0 < rx_cnt) {
    rx_cnt--;
#ifdef DEBUG
    int t = *p++ = SPI.transfer(0);
    Serial.print(" ");
 23fd0ac:	f8df 8074 	ldr.w	r8, [pc, #116]	; 23fd124 <_ZN14BMI160GenClass8spi_xferEPhjj+0xfc>
 23fd0b0:	4425      	add	r5, r4
  while (0 < rx_cnt) {
 23fd0b2:	42ac      	cmp	r4, r5
 23fd0b4:	d01c      	beq.n	23fd0f0 <_ZN14BMI160GenClass8spi_xferEPhjj+0xc8>
    }
    static void computeClockDivider(unsigned reference, unsigned targetSpeed, uint8_t& divider, unsigned& clock) {
        instance().computeClockDivider(reference, targetSpeed, divider, clock);
    }
    byte transfer(byte data) {
        return instance().transfer(data);
 23fd0b6:	f7ff fe8d 	bl	23fcdd4 <_ZN8particle8SpiProxyIL19hal_spi_interface_t0EE8instanceEv>
 23fd0ba:	2100      	movs	r1, #0
 23fd0bc:	f001 fbf6 	bl	23fe8ac <_ZN8SPIClass8transferEh>
 23fd0c0:	4606      	mov	r6, r0
    int t = *p++ = SPI.transfer(0);
 23fd0c2:	f804 0b01 	strb.w	r0, [r4], #1
    Serial.print(" ");
 23fd0c6:	f001 fd07 	bl	23fead8 <_Z16_fetch_usbserialv>
 23fd0ca:	4641      	mov	r1, r8
 23fd0cc:	f001 faac 	bl	23fe628 <_ZN5Print5printEPKc>
    Serial.print(t, HEX);
 23fd0d0:	f001 fd02 	bl	23fead8 <_Z16_fetch_usbserialv>
 23fd0d4:	2210      	movs	r2, #16
 23fd0d6:	4631      	mov	r1, r6
 23fd0d8:	f7ff fea6 	bl	23fce28 <_ZN5Print5printIiLi0EEEjT_i.isra.0>
  while (0 < rx_cnt) {
 23fd0dc:	e7e9      	b.n	23fd0b2 <_ZN14BMI160GenClass8spi_xferEPhjj+0x8a>
    SPI.transfer(*p++);
 23fd0de:	f818 1b01 	ldrb.w	r1, [r8], #1
 23fd0e2:	9101      	str	r1, [sp, #4]
 23fd0e4:	f7ff fe76 	bl	23fcdd4 <_ZN8particle8SpiProxyIL19hal_spi_interface_t0EE8instanceEv>
 23fd0e8:	9901      	ldr	r1, [sp, #4]
 23fd0ea:	f001 fbdf 	bl	23fe8ac <_ZN8SPIClass8transferEh>
 23fd0ee:	e7db      	b.n	23fd0a8 <_ZN14BMI160GenClass8spi_xferEPhjj+0x80>
#else
    *p++ = SPI.transfer(0);
#endif // DEBUG
  }
  if (0 <= spi_ss)
 23fd0f0:	6938      	ldr	r0, [r7, #16]
 23fd0f2:	2800      	cmp	r0, #0
 23fd0f4:	db03      	blt.n	23fd0fe <_ZN14BMI160GenClass8spi_xferEPhjj+0xd6>
    digitalWrite(spi_ss, HIGH);
 23fd0f6:	2101      	movs	r1, #1
 23fd0f8:	b280      	uxth	r0, r0
 23fd0fa:	f001 fe46 	bl	23fed8a <digitalWrite>

#ifdef DEBUG
  Serial.println("");
 23fd0fe:	f001 fceb 	bl	23fead8 <_Z16_fetch_usbserialv>
 23fd102:	4907      	ldr	r1, [pc, #28]	; (23fd120 <_ZN14BMI160GenClass8spi_xferEPhjj+0xf8>)
 23fd104:	f001 faa3 	bl	23fe64e <_ZN5Print7printlnEPKc>
#endif // DEBUG

  return (0);
}
 23fd108:	2000      	movs	r0, #0
 23fd10a:	b002      	add	sp, #8
 23fd10c:	e8bd 81f0 	ldmia.w	sp!, {r4, r5, r6, r7, r8, pc}
 23fd110:	023ffd46 	.word	0x023ffd46
 23fd114:	023ffc9f 	.word	0x023ffc9f
 23fd118:	023ffd60 	.word	0x023ffd60
 23fd11c:	023ffca1 	.word	0x023ffca1
 23fd120:	023ff684 	.word	0x023ff684
 23fd124:	023ff683 	.word	0x023ff683

023fd128 <_ZN14BMI160GenClass7ss_xferEPhjj>:
{
 23fd128:	b4f0      	push	{r4, r5, r6, r7}
    switch (this->mode) {
 23fd12a:	f990 c014 	ldrsb.w	ip, [r0, #20]
{
 23fd12e:	4605      	mov	r5, r0
    switch (this->mode) {
 23fd130:	f1bc 0f01 	cmp.w	ip, #1
{
 23fd134:	460c      	mov	r4, r1
 23fd136:	4617      	mov	r7, r2
 23fd138:	461e      	mov	r6, r3
    switch (this->mode) {
 23fd13a:	d005      	beq.n	23fd148 <_ZN14BMI160GenClass7ss_xferEPhjj+0x20>
 23fd13c:	f1bc 0f02 	cmp.w	ip, #2
 23fd140:	d005      	beq.n	23fd14e <_ZN14BMI160GenClass7ss_xferEPhjj+0x26>
}
 23fd142:	bcf0      	pop	{r4, r5, r6, r7}
 23fd144:	2000      	movs	r0, #0
 23fd146:	4770      	bx	lr
 23fd148:	bcf0      	pop	{r4, r5, r6, r7}
        return i2c_xfer(buf, tx_cnt, rx_cnt);
 23fd14a:	f7ff bebf 	b.w	23fcecc <_ZN14BMI160GenClass8i2c_xferEPhjj>
        if (rx_cnt) /* For read transfers, assume 1st byte contains register address */
 23fd14e:	b11b      	cbz	r3, 23fd158 <_ZN14BMI160GenClass7ss_xferEPhjj+0x30>
            buf[0] |= (1 << BMI160_SPI_READ_BIT);
 23fd150:	780b      	ldrb	r3, [r1, #0]
 23fd152:	f063 037f 	orn	r3, r3, #127	; 0x7f
 23fd156:	700b      	strb	r3, [r1, #0]
        return spi_xfer(buf, tx_cnt, rx_cnt);
 23fd158:	4633      	mov	r3, r6
 23fd15a:	463a      	mov	r2, r7
 23fd15c:	4621      	mov	r1, r4
 23fd15e:	4628      	mov	r0, r5
}
 23fd160:	bcf0      	pop	{r4, r5, r6, r7}
        return spi_xfer(buf, tx_cnt, rx_cnt);
 23fd162:	f7ff bf61 	b.w	23fd028 <_ZN14BMI160GenClass8spi_xferEPhjj>
	...

023fd168 <_GLOBAL__sub_I__ZN14BMI160GenClass5beginEii>:
#include "CurieIMU.h"
#include "Wire.h"

//#define I2C_MODE 1

class BMI160GenClass : public CurieIMUClass {
 23fd168:	4b04      	ldr	r3, [pc, #16]	; (23fd17c <_GLOBAL__sub_I__ZN14BMI160GenClass5beginEii+0x14>)
 23fd16a:	4a05      	ldr	r2, [pc, #20]	; (23fd180 <_GLOBAL__sub_I__ZN14BMI160GenClass5beginEii+0x18>)
 23fd16c:	601a      	str	r2, [r3, #0]
 23fd16e:	f04f 32ff 	mov.w	r2, #4294967295	; 0xffffffff
 23fd172:	e9c3 2202 	strd	r2, r2, [r3, #8]
 23fd176:	611a      	str	r2, [r3, #16]

BMI160GenClass BMI160;
 23fd178:	4770      	bx	lr
 23fd17a:	bf00      	nop
 23fd17c:	1007aef0 	.word	0x1007aef0
 23fd180:	023ffd6c 	.word	0x023ffd6c

023fd184 <_ZN13CurieIMUClass7ss_initEv>:
{
    return getIntStepStatus();
}

void CurieIMUClass::ss_init() {
}
 23fd184:	4770      	bx	lr

023fd186 <_ZN13CurieIMUClass7ss_xferEPhjj>:

int CurieIMUClass::ss_xfer(uint8_t *buf, unsigned tx_cnt, unsigned rx_cnt)
{
    return false;
}
 23fd186:	2000      	movs	r0, #0
 23fd188:	4770      	bx	lr

023fd18a <_ZN13CurieIMUClass22serial_buffer_transferEPhjj>:
/** Provides a serial buffer transfer implementation for the BMI160 base class
 *  to use for accessing device registers.  This implementation uses the SPI
 *  bus on the Intel Curie module to communicate with the BMI160.
 */
int CurieIMUClass::serial_buffer_transfer(uint8_t *buf, unsigned tx_cnt, unsigned rx_cnt)
{
 23fd18a:	b410      	push	{r4}
    /* Lock interrupts here to
     * - avoid concurrent access to the SPI bus
     * - avoid delays in SPI transfer due to unrelated interrupts
     */
    flags = interrupt_lock();
    status = ss_xfer(buf, tx_cnt, rx_cnt);
 23fd18c:	6804      	ldr	r4, [r0, #0]
 23fd18e:	68a4      	ldr	r4, [r4, #8]
 23fd190:	46a4      	mov	ip, r4
    interrupt_unlock(flags);

    return status;
}
 23fd192:	f85d 4b04 	ldr.w	r4, [sp], #4
    status = ss_xfer(buf, tx_cnt, rx_cnt);
 23fd196:	4760      	bx	ip

023fd198 <_GLOBAL__sub_I__ZN13CurieIMUClass5beginEv>:
 * and interrupt signalling.
 *
 * Please refer to the respective .cpp files for documentation on each of the
 * methods provided by these classes.
 */
class CurieIMUClass : public BMI160Class {
 23fd198:	4b01      	ldr	r3, [pc, #4]	; (23fd1a0 <_GLOBAL__sub_I__ZN13CurieIMUClass5beginEv+0x8>)
 23fd19a:	4a02      	ldr	r2, [pc, #8]	; (23fd1a4 <_GLOBAL__sub_I__ZN13CurieIMUClass5beginEv+0xc>)
 23fd19c:	601a      	str	r2, [r3, #0]
    soc_gpio_deconfig(SOC_GPIO_AON, BMI160_GPIN_AON_PIN);
#endif
}

/* Pre-instantiated Object for this class */
CurieIMUClass CurieIMU;
 23fd19e:	4770      	bx	lr
 23fd1a0:	1007af0c 	.word	0x1007af0c
 23fd1a4:	023ffd80 	.word	0x023ffd80

023fd1a8 <os_mutex_recursive_create>:
DYNALIB_FN(13, hal_concurrent, os_mutex_destroy, int(os_mutex_t))
DYNALIB_FN(14, hal_concurrent, os_mutex_lock, int(os_mutex_t))
DYNALIB_FN(15, hal_concurrent, os_mutex_trylock, int(os_mutex_t))
DYNALIB_FN(16, hal_concurrent, os_mutex_unlock, int(os_mutex_t))

DYNALIB_FN(17, hal_concurrent, os_mutex_recursive_create, int(os_mutex_recursive_t*))
 23fd1a8:	b509      	push	{r0, r3, lr}
 23fd1aa:	4804      	ldr	r0, [pc, #16]	; (23fd1bc <os_mutex_recursive_create+0x14>)
 23fd1ac:	6800      	ldr	r0, [r0, #0]
 23fd1ae:	4b04      	ldr	r3, [pc, #16]	; (23fd1c0 <os_mutex_recursive_create+0x18>)
 23fd1b0:	4403      	add	r3, r0
 23fd1b2:	681b      	ldr	r3, [r3, #0]
 23fd1b4:	6c5b      	ldr	r3, [r3, #68]	; 0x44
 23fd1b6:	9302      	str	r3, [sp, #8]
 23fd1b8:	bd09      	pop	{r0, r3, pc}
 23fd1ba:	0000      	.short	0x0000
 23fd1bc:	1007adb0 	.word	0x1007adb0
 23fd1c0:	00000030 	.word	0x00000030

023fd1c4 <HAL_RNG_GetRandomNumber>:

DYNALIB_BEGIN(hal)

#if PLATFORM_ID > PLATFORM_GCC
DYNALIB_FN(0, hal, HAL_RNG_Configuration, void(void))
DYNALIB_FN(1, hal, HAL_RNG_GetRandomNumber, uint32_t(void))
 23fd1c4:	b509      	push	{r0, r3, lr}
 23fd1c6:	4804      	ldr	r0, [pc, #16]	; (23fd1d8 <HAL_RNG_GetRandomNumber+0x14>)
 23fd1c8:	6800      	ldr	r0, [r0, #0]
 23fd1ca:	4b04      	ldr	r3, [pc, #16]	; (23fd1dc <HAL_RNG_GetRandomNumber+0x18>)
 23fd1cc:	4403      	add	r3, r0
 23fd1ce:	681b      	ldr	r3, [r3, #0]
 23fd1d0:	685b      	ldr	r3, [r3, #4]
 23fd1d2:	9302      	str	r3, [sp, #8]
 23fd1d4:	bd09      	pop	{r0, r3, pc}
 23fd1d6:	0000      	.short	0x0000
 23fd1d8:	1007adb0 	.word	0x1007adb0
 23fd1dc:	00000000 	.word	0x00000000

023fd1e0 <HAL_Timer_Get_Milli_Seconds>:
#endif // PLATFORM_ID > PLATFORM_GCC

DYNALIB_FN(BASE_IDX + 0, hal, HAL_Delay_Milliseconds, void(uint32_t))
DYNALIB_FN(BASE_IDX + 1, hal, HAL_Delay_Microseconds, void(uint32_t))
DYNALIB_FN(BASE_IDX + 2, hal, HAL_Timer_Get_Micro_Seconds, system_tick_t(void))
DYNALIB_FN(BASE_IDX + 3, hal, HAL_Timer_Get_Milli_Seconds, system_tick_t(void))
 23fd1e0:	b509      	push	{r0, r3, lr}
 23fd1e2:	4804      	ldr	r0, [pc, #16]	; (23fd1f4 <HAL_Timer_Get_Milli_Seconds+0x14>)
 23fd1e4:	6800      	ldr	r0, [r0, #0]
 23fd1e6:	4b04      	ldr	r3, [pc, #16]	; (23fd1f8 <HAL_Timer_Get_Milli_Seconds+0x18>)
 23fd1e8:	4403      	add	r3, r0
 23fd1ea:	681b      	ldr	r3, [r3, #0]
 23fd1ec:	695b      	ldr	r3, [r3, #20]
 23fd1ee:	9302      	str	r3, [sp, #8]
 23fd1f0:	bd09      	pop	{r0, r3, pc}
 23fd1f2:	0000      	.short	0x0000
 23fd1f4:	1007adb0 	.word	0x1007adb0
 23fd1f8:	00000000 	.word	0x00000000

023fd1fc <hal_pin_map>:
// New HAL functions must be added to the end of this list.
// GNINRAW

DYNALIB_BEGIN(hal_gpio)

DYNALIB_FN(0, hal_gpio, hal_pin_map, hal_pin_info_t*(void))
 23fd1fc:	b509      	push	{r0, r3, lr}
 23fd1fe:	4804      	ldr	r0, [pc, #16]	; (23fd210 <hal_pin_map+0x14>)
 23fd200:	6800      	ldr	r0, [r0, #0]
 23fd202:	4b04      	ldr	r3, [pc, #16]	; (23fd214 <hal_pin_map+0x18>)
 23fd204:	4403      	add	r3, r0
 23fd206:	681b      	ldr	r3, [r3, #0]
 23fd208:	681b      	ldr	r3, [r3, #0]
 23fd20a:	9302      	str	r3, [sp, #8]
 23fd20c:	bd09      	pop	{r0, r3, pc}
 23fd20e:	0000      	.short	0x0000
 23fd210:	1007adb0 	.word	0x1007adb0
 23fd214:	00000014 	.word	0x00000014

023fd218 <hal_pin_validate_function>:
DYNALIB_FN(1, hal_gpio, hal_pin_validate_function, PinFunction(hal_pin_t, PinFunction))
 23fd218:	b509      	push	{r0, r3, lr}
 23fd21a:	4804      	ldr	r0, [pc, #16]	; (23fd22c <hal_pin_validate_function+0x14>)
 23fd21c:	6800      	ldr	r0, [r0, #0]
 23fd21e:	4b04      	ldr	r3, [pc, #16]	; (23fd230 <hal_pin_validate_function+0x18>)
 23fd220:	4403      	add	r3, r0
 23fd222:	681b      	ldr	r3, [r3, #0]
 23fd224:	685b      	ldr	r3, [r3, #4]
 23fd226:	9302      	str	r3, [sp, #8]
 23fd228:	bd09      	pop	{r0, r3, pc}
 23fd22a:	0000      	.short	0x0000
 23fd22c:	1007adb0 	.word	0x1007adb0
 23fd230:	00000014 	.word	0x00000014

023fd234 <hal_gpio_mode>:
DYNALIB_FN(2, hal_gpio, hal_gpio_mode, void(hal_pin_t, PinMode))
 23fd234:	b509      	push	{r0, r3, lr}
 23fd236:	4804      	ldr	r0, [pc, #16]	; (23fd248 <hal_gpio_mode+0x14>)
 23fd238:	6800      	ldr	r0, [r0, #0]
 23fd23a:	4b04      	ldr	r3, [pc, #16]	; (23fd24c <hal_gpio_mode+0x18>)
 23fd23c:	4403      	add	r3, r0
 23fd23e:	681b      	ldr	r3, [r3, #0]
 23fd240:	689b      	ldr	r3, [r3, #8]
 23fd242:	9302      	str	r3, [sp, #8]
 23fd244:	bd09      	pop	{r0, r3, pc}
 23fd246:	0000      	.short	0x0000
 23fd248:	1007adb0 	.word	0x1007adb0
 23fd24c:	00000014 	.word	0x00000014

023fd250 <hal_gpio_get_mode>:
DYNALIB_FN(3, hal_gpio, hal_gpio_get_mode, PinMode(hal_pin_t))
 23fd250:	b509      	push	{r0, r3, lr}
 23fd252:	4804      	ldr	r0, [pc, #16]	; (23fd264 <hal_gpio_get_mode+0x14>)
 23fd254:	6800      	ldr	r0, [r0, #0]
 23fd256:	4b04      	ldr	r3, [pc, #16]	; (23fd268 <hal_gpio_get_mode+0x18>)
 23fd258:	4403      	add	r3, r0
 23fd25a:	681b      	ldr	r3, [r3, #0]
 23fd25c:	68db      	ldr	r3, [r3, #12]
 23fd25e:	9302      	str	r3, [sp, #8]
 23fd260:	bd09      	pop	{r0, r3, pc}
 23fd262:	0000      	.short	0x0000
 23fd264:	1007adb0 	.word	0x1007adb0
 23fd268:	00000014 	.word	0x00000014

023fd26c <hal_gpio_write>:
DYNALIB_FN(4, hal_gpio, hal_gpio_write, void(hal_pin_t, uint8_t))
 23fd26c:	b509      	push	{r0, r3, lr}
 23fd26e:	4804      	ldr	r0, [pc, #16]	; (23fd280 <hal_gpio_write+0x14>)
 23fd270:	6800      	ldr	r0, [r0, #0]
 23fd272:	4b04      	ldr	r3, [pc, #16]	; (23fd284 <hal_gpio_write+0x18>)
 23fd274:	4403      	add	r3, r0
 23fd276:	681b      	ldr	r3, [r3, #0]
 23fd278:	691b      	ldr	r3, [r3, #16]
 23fd27a:	9302      	str	r3, [sp, #8]
 23fd27c:	bd09      	pop	{r0, r3, pc}
 23fd27e:	0000      	.short	0x0000
 23fd280:	1007adb0 	.word	0x1007adb0
 23fd284:	00000014 	.word	0x00000014

023fd288 <hal_gpio_read>:
DYNALIB_FN(5, hal_gpio, hal_gpio_read, int32_t(hal_pin_t))
 23fd288:	b509      	push	{r0, r3, lr}
 23fd28a:	4804      	ldr	r0, [pc, #16]	; (23fd29c <hal_gpio_read+0x14>)
 23fd28c:	6800      	ldr	r0, [r0, #0]
 23fd28e:	4b04      	ldr	r3, [pc, #16]	; (23fd2a0 <hal_gpio_read+0x18>)
 23fd290:	4403      	add	r3, r0
 23fd292:	681b      	ldr	r3, [r3, #0]
 23fd294:	695b      	ldr	r3, [r3, #20]
 23fd296:	9302      	str	r3, [sp, #8]
 23fd298:	bd09      	pop	{r0, r3, pc}
 23fd29a:	0000      	.short	0x0000
 23fd29c:	1007adb0 	.word	0x1007adb0
 23fd2a0:	00000014 	.word	0x00000014

023fd2a4 <hal_i2c_set_speed>:
// New HAL functions must be added to the end of this list.
// GNINRAW

DYNALIB_BEGIN(hal_i2c)

DYNALIB_FN(0, hal_i2c, hal_i2c_set_speed, void(hal_i2c_interface_t, uint32_t, void*))
 23fd2a4:	b509      	push	{r0, r3, lr}
 23fd2a6:	4804      	ldr	r0, [pc, #16]	; (23fd2b8 <hal_i2c_set_speed+0x14>)
 23fd2a8:	6800      	ldr	r0, [r0, #0]
 23fd2aa:	4b04      	ldr	r3, [pc, #16]	; (23fd2bc <hal_i2c_set_speed+0x18>)
 23fd2ac:	4403      	add	r3, r0
 23fd2ae:	681b      	ldr	r3, [r3, #0]
 23fd2b0:	681b      	ldr	r3, [r3, #0]
 23fd2b2:	9302      	str	r3, [sp, #8]
 23fd2b4:	bd09      	pop	{r0, r3, pc}
 23fd2b6:	0000      	.short	0x0000
 23fd2b8:	1007adb0 	.word	0x1007adb0
 23fd2bc:	00000010 	.word	0x00000010

023fd2c0 <hal_i2c_begin>:
DYNALIB_FN(1, hal_i2c, hal_i2c_enable_dma_mode, void(hal_i2c_interface_t, bool, void*))
DYNALIB_FN(2, hal_i2c, hal_i2c_stretch_clock, void(hal_i2c_interface_t, bool, void*))
DYNALIB_FN(3, hal_i2c, hal_i2c_begin, void(hal_i2c_interface_t, hal_i2c_mode_t, uint8_t, void*))
 23fd2c0:	b509      	push	{r0, r3, lr}
 23fd2c2:	4804      	ldr	r0, [pc, #16]	; (23fd2d4 <hal_i2c_begin+0x14>)
 23fd2c4:	6800      	ldr	r0, [r0, #0]
 23fd2c6:	4b04      	ldr	r3, [pc, #16]	; (23fd2d8 <hal_i2c_begin+0x18>)
 23fd2c8:	4403      	add	r3, r0
 23fd2ca:	681b      	ldr	r3, [r3, #0]
 23fd2cc:	68db      	ldr	r3, [r3, #12]
 23fd2ce:	9302      	str	r3, [sp, #8]
 23fd2d0:	bd09      	pop	{r0, r3, pc}
 23fd2d2:	0000      	.short	0x0000
 23fd2d4:	1007adb0 	.word	0x1007adb0
 23fd2d8:	00000010 	.word	0x00000010

023fd2dc <hal_i2c_begin_transmission>:
DYNALIB_FN(4, hal_i2c, hal_i2c_end, void(hal_i2c_interface_t, void*))
DYNALIB_FN(5, hal_i2c, hal_i2c_request, uint32_t(hal_i2c_interface_t, uint8_t, uint8_t, uint8_t, void*))
DYNALIB_FN(6, hal_i2c, hal_i2c_begin_transmission, void(hal_i2c_interface_t, uint8_t, const hal_i2c_transmission_config_t*))
 23fd2dc:	b509      	push	{r0, r3, lr}
 23fd2de:	4804      	ldr	r0, [pc, #16]	; (23fd2f0 <hal_i2c_begin_transmission+0x14>)
 23fd2e0:	6800      	ldr	r0, [r0, #0]
 23fd2e2:	4b04      	ldr	r3, [pc, #16]	; (23fd2f4 <hal_i2c_begin_transmission+0x18>)
 23fd2e4:	4403      	add	r3, r0
 23fd2e6:	681b      	ldr	r3, [r3, #0]
 23fd2e8:	699b      	ldr	r3, [r3, #24]
 23fd2ea:	9302      	str	r3, [sp, #8]
 23fd2ec:	bd09      	pop	{r0, r3, pc}
 23fd2ee:	0000      	.short	0x0000
 23fd2f0:	1007adb0 	.word	0x1007adb0
 23fd2f4:	00000010 	.word	0x00000010

023fd2f8 <hal_i2c_end_transmission>:
DYNALIB_FN(7, hal_i2c, hal_i2c_end_transmission, uint8_t(hal_i2c_interface_t, uint8_t, void*))
 23fd2f8:	b509      	push	{r0, r3, lr}
 23fd2fa:	4804      	ldr	r0, [pc, #16]	; (23fd30c <hal_i2c_end_transmission+0x14>)
 23fd2fc:	6800      	ldr	r0, [r0, #0]
 23fd2fe:	4b04      	ldr	r3, [pc, #16]	; (23fd310 <hal_i2c_end_transmission+0x18>)
 23fd300:	4403      	add	r3, r0
 23fd302:	681b      	ldr	r3, [r3, #0]
 23fd304:	69db      	ldr	r3, [r3, #28]
 23fd306:	9302      	str	r3, [sp, #8]
 23fd308:	bd09      	pop	{r0, r3, pc}
 23fd30a:	0000      	.short	0x0000
 23fd30c:	1007adb0 	.word	0x1007adb0
 23fd310:	00000010 	.word	0x00000010

023fd314 <hal_i2c_write>:
DYNALIB_FN(8, hal_i2c, hal_i2c_write, uint32_t(hal_i2c_interface_t, uint8_t, void*))
 23fd314:	b509      	push	{r0, r3, lr}
 23fd316:	4804      	ldr	r0, [pc, #16]	; (23fd328 <hal_i2c_write+0x14>)
 23fd318:	6800      	ldr	r0, [r0, #0]
 23fd31a:	4b04      	ldr	r3, [pc, #16]	; (23fd32c <hal_i2c_write+0x18>)
 23fd31c:	4403      	add	r3, r0
 23fd31e:	681b      	ldr	r3, [r3, #0]
 23fd320:	6a1b      	ldr	r3, [r3, #32]
 23fd322:	9302      	str	r3, [sp, #8]
 23fd324:	bd09      	pop	{r0, r3, pc}
 23fd326:	0000      	.short	0x0000
 23fd328:	1007adb0 	.word	0x1007adb0
 23fd32c:	00000010 	.word	0x00000010

023fd330 <hal_i2c_available>:
DYNALIB_FN(9, hal_i2c, hal_i2c_available, int32_t(hal_i2c_interface_t, void*))
 23fd330:	b509      	push	{r0, r3, lr}
 23fd332:	4804      	ldr	r0, [pc, #16]	; (23fd344 <hal_i2c_available+0x14>)
 23fd334:	6800      	ldr	r0, [r0, #0]
 23fd336:	4b04      	ldr	r3, [pc, #16]	; (23fd348 <hal_i2c_available+0x18>)
 23fd338:	4403      	add	r3, r0
 23fd33a:	681b      	ldr	r3, [r3, #0]
 23fd33c:	6a5b      	ldr	r3, [r3, #36]	; 0x24
 23fd33e:	9302      	str	r3, [sp, #8]
 23fd340:	bd09      	pop	{r0, r3, pc}
 23fd342:	0000      	.short	0x0000
 23fd344:	1007adb0 	.word	0x1007adb0
 23fd348:	00000010 	.word	0x00000010

023fd34c <hal_i2c_read>:
DYNALIB_FN(10, hal_i2c, hal_i2c_read, int32_t(hal_i2c_interface_t, void*))
 23fd34c:	b509      	push	{r0, r3, lr}
 23fd34e:	4804      	ldr	r0, [pc, #16]	; (23fd360 <hal_i2c_read+0x14>)
 23fd350:	6800      	ldr	r0, [r0, #0]
 23fd352:	4b04      	ldr	r3, [pc, #16]	; (23fd364 <hal_i2c_read+0x18>)
 23fd354:	4403      	add	r3, r0
 23fd356:	681b      	ldr	r3, [r3, #0]
 23fd358:	6a9b      	ldr	r3, [r3, #40]	; 0x28
 23fd35a:	9302      	str	r3, [sp, #8]
 23fd35c:	bd09      	pop	{r0, r3, pc}
 23fd35e:	0000      	.short	0x0000
 23fd360:	1007adb0 	.word	0x1007adb0
 23fd364:	00000010 	.word	0x00000010

023fd368 <hal_i2c_peek>:
DYNALIB_FN(11, hal_i2c, hal_i2c_peek, int32_t(hal_i2c_interface_t, void*))
 23fd368:	b509      	push	{r0, r3, lr}
 23fd36a:	4804      	ldr	r0, [pc, #16]	; (23fd37c <hal_i2c_peek+0x14>)
 23fd36c:	6800      	ldr	r0, [r0, #0]
 23fd36e:	4b04      	ldr	r3, [pc, #16]	; (23fd380 <hal_i2c_peek+0x18>)
 23fd370:	4403      	add	r3, r0
 23fd372:	681b      	ldr	r3, [r3, #0]
 23fd374:	6adb      	ldr	r3, [r3, #44]	; 0x2c
 23fd376:	9302      	str	r3, [sp, #8]
 23fd378:	bd09      	pop	{r0, r3, pc}
 23fd37a:	0000      	.short	0x0000
 23fd37c:	1007adb0 	.word	0x1007adb0
 23fd380:	00000010 	.word	0x00000010

023fd384 <hal_i2c_flush>:
DYNALIB_FN(12, hal_i2c, hal_i2c_flush, void(hal_i2c_interface_t, void*))
 23fd384:	b509      	push	{r0, r3, lr}
 23fd386:	4804      	ldr	r0, [pc, #16]	; (23fd398 <hal_i2c_flush+0x14>)
 23fd388:	6800      	ldr	r0, [r0, #0]
 23fd38a:	4b04      	ldr	r3, [pc, #16]	; (23fd39c <hal_i2c_flush+0x18>)
 23fd38c:	4403      	add	r3, r0
 23fd38e:	681b      	ldr	r3, [r3, #0]
 23fd390:	6b1b      	ldr	r3, [r3, #48]	; 0x30
 23fd392:	9302      	str	r3, [sp, #8]
 23fd394:	bd09      	pop	{r0, r3, pc}
 23fd396:	0000      	.short	0x0000
 23fd398:	1007adb0 	.word	0x1007adb0
 23fd39c:	00000010 	.word	0x00000010

023fd3a0 <hal_i2c_is_enabled>:
DYNALIB_FN(13, hal_i2c, hal_i2c_is_enabled, bool(hal_i2c_interface_t, void*))
 23fd3a0:	b509      	push	{r0, r3, lr}
 23fd3a2:	4804      	ldr	r0, [pc, #16]	; (23fd3b4 <hal_i2c_is_enabled+0x14>)
 23fd3a4:	6800      	ldr	r0, [r0, #0]
 23fd3a6:	4b04      	ldr	r3, [pc, #16]	; (23fd3b8 <hal_i2c_is_enabled+0x18>)
 23fd3a8:	4403      	add	r3, r0
 23fd3aa:	681b      	ldr	r3, [r3, #0]
 23fd3ac:	6b5b      	ldr	r3, [r3, #52]	; 0x34
 23fd3ae:	9302      	str	r3, [sp, #8]
 23fd3b0:	bd09      	pop	{r0, r3, pc}
 23fd3b2:	0000      	.short	0x0000
 23fd3b4:	1007adb0 	.word	0x1007adb0
 23fd3b8:	00000010 	.word	0x00000010

023fd3bc <hal_i2c_init>:
DYNALIB_FN(14, hal_i2c, hal_i2c_set_callback_on_received, void(hal_i2c_interface_t, void(*)(int), void*))
DYNALIB_FN(15, hal_i2c, hal_i2c_set_callback_on_requested, void(hal_i2c_interface_t, void(*)(void), void*))
DYNALIB_FN(16, hal_i2c, hal_i2c_init, int(hal_i2c_interface_t, const hal_i2c_config_t*))
 23fd3bc:	b509      	push	{r0, r3, lr}
 23fd3be:	4804      	ldr	r0, [pc, #16]	; (23fd3d0 <hal_i2c_init+0x14>)
 23fd3c0:	6800      	ldr	r0, [r0, #0]
 23fd3c2:	4b04      	ldr	r3, [pc, #16]	; (23fd3d4 <hal_i2c_init+0x18>)
 23fd3c4:	4403      	add	r3, r0
 23fd3c6:	681b      	ldr	r3, [r3, #0]
 23fd3c8:	6c1b      	ldr	r3, [r3, #64]	; 0x40
 23fd3ca:	9302      	str	r3, [sp, #8]
 23fd3cc:	bd09      	pop	{r0, r3, pc}
 23fd3ce:	0000      	.short	0x0000
 23fd3d0:	1007adb0 	.word	0x1007adb0
 23fd3d4:	00000010 	.word	0x00000010

023fd3d8 <hal_i2c_request_ex>:
DYNALIB_FN(17, hal_i2c, hal_i2c_reset, int(hal_i2c_interface_t, uint32_t, void*))
DYNALIB_FN(18, hal_i2c, hal_i2c_lock, int32_t(hal_i2c_interface_t, void*))
DYNALIB_FN(19, hal_i2c, hal_i2c_unlock, int32_t(hal_i2c_interface_t, void*))
DYNALIB_FN(20, hal_i2c, hal_i2c_request_ex, int32_t(hal_i2c_interface_t, const hal_i2c_transmission_config_t*, void*))
 23fd3d8:	b509      	push	{r0, r3, lr}
 23fd3da:	4804      	ldr	r0, [pc, #16]	; (23fd3ec <hal_i2c_request_ex+0x14>)
 23fd3dc:	6800      	ldr	r0, [r0, #0]
 23fd3de:	4b04      	ldr	r3, [pc, #16]	; (23fd3f0 <hal_i2c_request_ex+0x18>)
 23fd3e0:	4403      	add	r3, r0
 23fd3e2:	681b      	ldr	r3, [r3, #0]
 23fd3e4:	6d1b      	ldr	r3, [r3, #80]	; 0x50
 23fd3e6:	9302      	str	r3, [sp, #8]
 23fd3e8:	bd09      	pop	{r0, r3, pc}
 23fd3ea:	0000      	.short	0x0000
 23fd3ec:	1007adb0 	.word	0x1007adb0
 23fd3f0:	00000010 	.word	0x00000010

023fd3f4 <if_get_by_index>:
DYNALIB_FN(1, hal_ifapi, if_free_list, int(struct if_list*))
DYNALIB_FN(2, hal_ifapi, if_get_name_index, int(struct if_nameindex**))
DYNALIB_FN(3, hal_ifapi, if_free_name_index, int(struct if_nameindex*))
DYNALIB_FN(4, hal_ifapi, if_name_to_index, int(const char*, uint8_t*))
DYNALIB_FN(5, hal_ifapi, if_index_to_name, int(uint8_t, char*))
DYNALIB_FN(6, hal_ifapi, if_get_by_index, int(uint8_t, if_t*))
 23fd3f4:	b509      	push	{r0, r3, lr}
 23fd3f6:	4804      	ldr	r0, [pc, #16]	; (23fd408 <if_get_by_index+0x14>)
 23fd3f8:	6800      	ldr	r0, [r0, #0]
 23fd3fa:	4b04      	ldr	r3, [pc, #16]	; (23fd40c <if_get_by_index+0x18>)
 23fd3fc:	4403      	add	r3, r0
 23fd3fe:	681b      	ldr	r3, [r3, #0]
 23fd400:	699b      	ldr	r3, [r3, #24]
 23fd402:	9302      	str	r3, [sp, #8]
 23fd404:	bd09      	pop	{r0, r3, pc}
 23fd406:	0000      	.short	0x0000
 23fd408:	1007adb0 	.word	0x1007adb0
 23fd40c:	00000054 	.word	0x00000054

023fd410 <inet_inet_ntop>:
DYNALIB_FN(0, hal_inet, inet_inet_addr, in_addr_t(const char*))
DYNALIB_FN(1, hal_inet, inet_inet_aton, int(const char*, struct in_addr*))
DYNALIB_FN(2, hal_inet, inet_inet_network, in_addr_t(const char*))
DYNALIB_FN(3, hal_inet, inet_inet_ntoa, char*(struct in_addr))
DYNALIB_FN(4, hal_inet, inet_inet_ntoa_r, char*(struct in_addr, char*, socklen_t))
DYNALIB_FN(5, hal_inet, inet_inet_ntop, const char*(int, const void*, char*, socklen_t))
 23fd410:	b509      	push	{r0, r3, lr}
 23fd412:	4804      	ldr	r0, [pc, #16]	; (23fd424 <inet_inet_ntop+0x14>)
 23fd414:	6800      	ldr	r0, [r0, #0]
 23fd416:	4b04      	ldr	r3, [pc, #16]	; (23fd428 <inet_inet_ntop+0x18>)
 23fd418:	4403      	add	r3, r0
 23fd41a:	681b      	ldr	r3, [r3, #0]
 23fd41c:	695b      	ldr	r3, [r3, #20]
 23fd41e:	9302      	str	r3, [sp, #8]
 23fd420:	bd09      	pop	{r0, r3, pc}
 23fd422:	0000      	.short	0x0000
 23fd424:	1007adb0 	.word	0x1007adb0
 23fd428:	0000004c 	.word	0x0000004c

023fd42c <netdb_freeaddrinfo>:

DYNALIB_BEGIN(hal_netdb)

DYNALIB_FN(0, hal_netdb, netdb_gethostbyname, struct hostent*(const char*))
DYNALIB_FN(1, hal_netdb, netdb_gethostbyname_r, int(const char*, struct hostent*, char*, size_t, struct hostent**, int*))
DYNALIB_FN(2, hal_netdb, netdb_freeaddrinfo, void(struct addrinfo*))
 23fd42c:	b509      	push	{r0, r3, lr}
 23fd42e:	4804      	ldr	r0, [pc, #16]	; (23fd440 <netdb_freeaddrinfo+0x14>)
 23fd430:	6800      	ldr	r0, [r0, #0]
 23fd432:	4b04      	ldr	r3, [pc, #16]	; (23fd444 <netdb_freeaddrinfo+0x18>)
 23fd434:	4403      	add	r3, r0
 23fd436:	681b      	ldr	r3, [r3, #0]
 23fd438:	689b      	ldr	r3, [r3, #8]
 23fd43a:	9302      	str	r3, [sp, #8]
 23fd43c:	bd09      	pop	{r0, r3, pc}
 23fd43e:	0000      	.short	0x0000
 23fd440:	1007adb0 	.word	0x1007adb0
 23fd444:	00000050 	.word	0x00000050

023fd448 <netdb_getaddrinfo_ex>:
DYNALIB_FN(3, hal_netdb, netdb_getaddrinfo, int(const char*, const char*, const struct addrinfo*, struct addrinfo**))
DYNALIB_FN(4, hal_netdb, netdb_getnameinfo, int(const struct sockaddr*, socklen_t, char*, socklen_t, char*, socklen_t, int))
DYNALIB_FN(5, hal_netdb, netdb_getaddrinfo_ex, int(const char*, const char*, const struct addrinfo*, struct addrinfo**, if_t))
 23fd448:	b509      	push	{r0, r3, lr}
 23fd44a:	4804      	ldr	r0, [pc, #16]	; (23fd45c <netdb_getaddrinfo_ex+0x14>)
 23fd44c:	6800      	ldr	r0, [r0, #0]
 23fd44e:	4b04      	ldr	r3, [pc, #16]	; (23fd460 <netdb_getaddrinfo_ex+0x18>)
 23fd450:	4403      	add	r3, r0
 23fd452:	681b      	ldr	r3, [r3, #0]
 23fd454:	695b      	ldr	r3, [r3, #20]
 23fd456:	9302      	str	r3, [sp, #8]
 23fd458:	bd09      	pop	{r0, r3, pc}
 23fd45a:	0000      	.short	0x0000
 23fd45c:	1007adb0 	.word	0x1007adb0
 23fd460:	00000050 	.word	0x00000050

023fd464 <HAL_Tone_Start>:
// New HAL functions must be added to the end of this list.
// GNINRAW

DYNALIB_BEGIN(hal_peripherals)

DYNALIB_FN(0, hal_peripherals, HAL_Tone_Start, void(uint8_t, uint32_t, uint32_t))
 23fd464:	b509      	push	{r0, r3, lr}
 23fd466:	4804      	ldr	r0, [pc, #16]	; (23fd478 <HAL_Tone_Start+0x14>)
 23fd468:	6800      	ldr	r0, [r0, #0]
 23fd46a:	4b04      	ldr	r3, [pc, #16]	; (23fd47c <HAL_Tone_Start+0x18>)
 23fd46c:	4403      	add	r3, r0
 23fd46e:	681b      	ldr	r3, [r3, #0]
 23fd470:	681b      	ldr	r3, [r3, #0]
 23fd472:	9302      	str	r3, [sp, #8]
 23fd474:	bd09      	pop	{r0, r3, pc}
 23fd476:	0000      	.short	0x0000
 23fd478:	1007adb0 	.word	0x1007adb0
 23fd47c:	0000000c 	.word	0x0000000c

023fd480 <hal_spi_begin>:
// New HAL functions must be added to the end of this list.
// GNINRAW

DYNALIB_BEGIN(hal_spi)

DYNALIB_FN(0, hal_spi, hal_spi_begin, void(hal_spi_interface_t, uint16_t))
 23fd480:	b509      	push	{r0, r3, lr}
 23fd482:	4804      	ldr	r0, [pc, #16]	; (23fd494 <hal_spi_begin+0x14>)
 23fd484:	6800      	ldr	r0, [r0, #0]
 23fd486:	4b04      	ldr	r3, [pc, #16]	; (23fd498 <hal_spi_begin+0x18>)
 23fd488:	4403      	add	r3, r0
 23fd48a:	681b      	ldr	r3, [r3, #0]
 23fd48c:	681b      	ldr	r3, [r3, #0]
 23fd48e:	9302      	str	r3, [sp, #8]
 23fd490:	bd09      	pop	{r0, r3, pc}
 23fd492:	0000      	.short	0x0000
 23fd494:	1007adb0 	.word	0x1007adb0
 23fd498:	00000018 	.word	0x00000018

023fd49c <hal_spi_transfer>:
DYNALIB_FN(1, hal_spi, hal_spi_end, void(hal_spi_interface_t))
DYNALIB_FN(2, hal_spi, hal_spi_set_bit_order, void(hal_spi_interface_t, uint8_t))
DYNALIB_FN(3, hal_spi, hal_spi_set_data_mode, void(hal_spi_interface_t, uint8_t))
DYNALIB_FN(4, hal_spi, hal_spi_set_clock_divider, void(hal_spi_interface_t, uint8_t))
DYNALIB_FN(5, hal_spi, hal_spi_transfer, uint16_t(hal_spi_interface_t, uint16_t))
 23fd49c:	b509      	push	{r0, r3, lr}
 23fd49e:	4804      	ldr	r0, [pc, #16]	; (23fd4b0 <hal_spi_transfer+0x14>)
 23fd4a0:	6800      	ldr	r0, [r0, #0]
 23fd4a2:	4b04      	ldr	r3, [pc, #16]	; (23fd4b4 <hal_spi_transfer+0x18>)
 23fd4a4:	4403      	add	r3, r0
 23fd4a6:	681b      	ldr	r3, [r3, #0]
 23fd4a8:	695b      	ldr	r3, [r3, #20]
 23fd4aa:	9302      	str	r3, [sp, #8]
 23fd4ac:	bd09      	pop	{r0, r3, pc}
 23fd4ae:	0000      	.short	0x0000
 23fd4b0:	1007adb0 	.word	0x1007adb0
 23fd4b4:	00000018 	.word	0x00000018

023fd4b8 <hal_spi_init>:
DYNALIB_FN(6, hal_spi, hal_spi_is_enabled_deprecated, bool(void))
DYNALIB_FN(7, hal_spi, hal_spi_init, void(hal_spi_interface_t))
 23fd4b8:	b509      	push	{r0, r3, lr}
 23fd4ba:	4804      	ldr	r0, [pc, #16]	; (23fd4cc <hal_spi_init+0x14>)
 23fd4bc:	6800      	ldr	r0, [r0, #0]
 23fd4be:	4b04      	ldr	r3, [pc, #16]	; (23fd4d0 <hal_spi_init+0x18>)
 23fd4c0:	4403      	add	r3, r0
 23fd4c2:	681b      	ldr	r3, [r3, #0]
 23fd4c4:	69db      	ldr	r3, [r3, #28]
 23fd4c6:	9302      	str	r3, [sp, #8]
 23fd4c8:	bd09      	pop	{r0, r3, pc}
 23fd4ca:	0000      	.short	0x0000
 23fd4cc:	1007adb0 	.word	0x1007adb0
 23fd4d0:	00000018 	.word	0x00000018

023fd4d4 <hal_spi_is_enabled>:
DYNALIB_FN(8, hal_spi, hal_spi_is_enabled, bool(hal_spi_interface_t))
 23fd4d4:	b509      	push	{r0, r3, lr}
 23fd4d6:	4804      	ldr	r0, [pc, #16]	; (23fd4e8 <hal_spi_is_enabled+0x14>)
 23fd4d8:	6800      	ldr	r0, [r0, #0]
 23fd4da:	4b04      	ldr	r3, [pc, #16]	; (23fd4ec <hal_spi_is_enabled+0x18>)
 23fd4dc:	4403      	add	r3, r0
 23fd4de:	681b      	ldr	r3, [r3, #0]
 23fd4e0:	6a1b      	ldr	r3, [r3, #32]
 23fd4e2:	9302      	str	r3, [sp, #8]
 23fd4e4:	bd09      	pop	{r0, r3, pc}
 23fd4e6:	0000      	.short	0x0000
 23fd4e8:	1007adb0 	.word	0x1007adb0
 23fd4ec:	00000018 	.word	0x00000018

023fd4f0 <hal_spi_info>:
DYNALIB_FN(9, hal_spi, hal_spi_info, void(hal_spi_interface_t, hal_spi_info_t*, void*))
 23fd4f0:	b509      	push	{r0, r3, lr}
 23fd4f2:	4804      	ldr	r0, [pc, #16]	; (23fd504 <hal_spi_info+0x14>)
 23fd4f4:	6800      	ldr	r0, [r0, #0]
 23fd4f6:	4b04      	ldr	r3, [pc, #16]	; (23fd508 <hal_spi_info+0x18>)
 23fd4f8:	4403      	add	r3, r0
 23fd4fa:	681b      	ldr	r3, [r3, #0]
 23fd4fc:	6a5b      	ldr	r3, [r3, #36]	; 0x24
 23fd4fe:	9302      	str	r3, [sp, #8]
 23fd500:	bd09      	pop	{r0, r3, pc}
 23fd502:	0000      	.short	0x0000
 23fd504:	1007adb0 	.word	0x1007adb0
 23fd508:	00000018 	.word	0x00000018

023fd50c <hal_spi_set_settings>:
DYNALIB_FN(10, hal_spi, hal_spi_transfer_dma, void(hal_spi_interface_t, const void*, void*, uint32_t, hal_spi_dma_user_callback))
DYNALIB_FN(11, hal_spi, hal_spi_begin_ext, void(hal_spi_interface_t, hal_spi_mode_t, uint16_t, const hal_spi_config_t*))
DYNALIB_FN(12, hal_spi, hal_spi_set_callback_on_selected, void(hal_spi_interface_t, hal_spi_select_user_callback, void*))
DYNALIB_FN(13, hal_spi, hal_spi_transfer_dma_cancel, void(hal_spi_interface_t))
DYNALIB_FN(14, hal_spi, hal_spi_transfer_dma_status, int32_t(hal_spi_interface_t, hal_spi_transfer_status_t*))
DYNALIB_FN(15, hal_spi, hal_spi_set_settings, int32_t(hal_spi_interface_t, uint8_t, uint8_t, uint8_t, uint8_t, void*))
 23fd50c:	b509      	push	{r0, r3, lr}
 23fd50e:	4804      	ldr	r0, [pc, #16]	; (23fd520 <hal_spi_set_settings+0x14>)
 23fd510:	6800      	ldr	r0, [r0, #0]
 23fd512:	4b04      	ldr	r3, [pc, #16]	; (23fd524 <hal_spi_set_settings+0x18>)
 23fd514:	4403      	add	r3, r0
 23fd516:	681b      	ldr	r3, [r3, #0]
 23fd518:	6bdb      	ldr	r3, [r3, #60]	; 0x3c
 23fd51a:	9302      	str	r3, [sp, #8]
 23fd51c:	bd09      	pop	{r0, r3, pc}
 23fd51e:	0000      	.short	0x0000
 23fd520:	1007adb0 	.word	0x1007adb0
 23fd524:	00000018 	.word	0x00000018

023fd528 <hal_spi_acquire>:
#if HAL_PLATFORM_SPI_HAL_THREAD_SAFETY
DYNALIB_FN(16, hal_spi, hal_spi_acquire, int32_t(hal_spi_interface_t, const hal_spi_acquire_config_t*))
 23fd528:	b509      	push	{r0, r3, lr}
 23fd52a:	4804      	ldr	r0, [pc, #16]	; (23fd53c <hal_spi_acquire+0x14>)
 23fd52c:	6800      	ldr	r0, [r0, #0]
 23fd52e:	4b04      	ldr	r3, [pc, #16]	; (23fd540 <hal_spi_acquire+0x18>)
 23fd530:	4403      	add	r3, r0
 23fd532:	681b      	ldr	r3, [r3, #0]
 23fd534:	6c1b      	ldr	r3, [r3, #64]	; 0x40
 23fd536:	9302      	str	r3, [sp, #8]
 23fd538:	bd09      	pop	{r0, r3, pc}
 23fd53a:	0000      	.short	0x0000
 23fd53c:	1007adb0 	.word	0x1007adb0
 23fd540:	00000018 	.word	0x00000018

023fd544 <hal_spi_release>:
DYNALIB_FN(17, hal_spi, hal_spi_release, int32_t(hal_spi_interface_t, void*))
 23fd544:	b509      	push	{r0, r3, lr}
 23fd546:	4804      	ldr	r0, [pc, #16]	; (23fd558 <hal_spi_release+0x14>)
 23fd548:	6800      	ldr	r0, [r0, #0]
 23fd54a:	4b04      	ldr	r3, [pc, #16]	; (23fd55c <hal_spi_release+0x18>)
 23fd54c:	4403      	add	r3, r0
 23fd54e:	681b      	ldr	r3, [r3, #0]
 23fd550:	6c5b      	ldr	r3, [r3, #68]	; 0x44
 23fd552:	9302      	str	r3, [sp, #8]
 23fd554:	bd09      	pop	{r0, r3, pc}
 23fd556:	0000      	.short	0x0000
 23fd558:	1007adb0 	.word	0x1007adb0
 23fd55c:	00000018 	.word	0x00000018

023fd560 <hal_usart_write>:
#endif

DYNALIB_FN(BASE_IDX + 0, hal_usart, hal_usart_init, void(hal_usart_interface_t, hal_usart_ring_buffer_t*, hal_usart_ring_buffer_t*))
DYNALIB_FN(BASE_IDX + 1, hal_usart, hal_usart_begin, void(hal_usart_interface_t, uint32_t))
DYNALIB_FN(BASE_IDX + 2, hal_usart, hal_usart_end, void(hal_usart_interface_t))
DYNALIB_FN(BASE_IDX + 3, hal_usart, hal_usart_write, uint32_t(hal_usart_interface_t, uint8_t))
 23fd560:	b509      	push	{r0, r3, lr}
 23fd562:	4804      	ldr	r0, [pc, #16]	; (23fd574 <hal_usart_write+0x14>)
 23fd564:	6800      	ldr	r0, [r0, #0]
 23fd566:	4b04      	ldr	r3, [pc, #16]	; (23fd578 <hal_usart_write+0x18>)
 23fd568:	4403      	add	r3, r0
 23fd56a:	681b      	ldr	r3, [r3, #0]
 23fd56c:	68db      	ldr	r3, [r3, #12]
 23fd56e:	9302      	str	r3, [sp, #8]
 23fd570:	bd09      	pop	{r0, r3, pc}
 23fd572:	0000      	.short	0x0000
 23fd574:	1007adb0 	.word	0x1007adb0
 23fd578:	00000024 	.word	0x00000024

023fd57c <hal_usart_available>:
DYNALIB_FN(BASE_IDX + 4, hal_usart, hal_usart_available, int32_t(hal_usart_interface_t))
 23fd57c:	b509      	push	{r0, r3, lr}
 23fd57e:	4804      	ldr	r0, [pc, #16]	; (23fd590 <hal_usart_available+0x14>)
 23fd580:	6800      	ldr	r0, [r0, #0]
 23fd582:	4b04      	ldr	r3, [pc, #16]	; (23fd594 <hal_usart_available+0x18>)
 23fd584:	4403      	add	r3, r0
 23fd586:	681b      	ldr	r3, [r3, #0]
 23fd588:	691b      	ldr	r3, [r3, #16]
 23fd58a:	9302      	str	r3, [sp, #8]
 23fd58c:	bd09      	pop	{r0, r3, pc}
 23fd58e:	0000      	.short	0x0000
 23fd590:	1007adb0 	.word	0x1007adb0
 23fd594:	00000024 	.word	0x00000024

023fd598 <hal_usart_read>:
DYNALIB_FN(BASE_IDX + 5, hal_usart, hal_usart_read, int32_t(hal_usart_interface_t))
 23fd598:	b509      	push	{r0, r3, lr}
 23fd59a:	4804      	ldr	r0, [pc, #16]	; (23fd5ac <hal_usart_read+0x14>)
 23fd59c:	6800      	ldr	r0, [r0, #0]
 23fd59e:	4b04      	ldr	r3, [pc, #16]	; (23fd5b0 <hal_usart_read+0x18>)
 23fd5a0:	4403      	add	r3, r0
 23fd5a2:	681b      	ldr	r3, [r3, #0]
 23fd5a4:	695b      	ldr	r3, [r3, #20]
 23fd5a6:	9302      	str	r3, [sp, #8]
 23fd5a8:	bd09      	pop	{r0, r3, pc}
 23fd5aa:	0000      	.short	0x0000
 23fd5ac:	1007adb0 	.word	0x1007adb0
 23fd5b0:	00000024 	.word	0x00000024

023fd5b4 <hal_usart_peek>:
DYNALIB_FN(BASE_IDX + 6, hal_usart, hal_usart_peek, int32_t(hal_usart_interface_t))
 23fd5b4:	b509      	push	{r0, r3, lr}
 23fd5b6:	4804      	ldr	r0, [pc, #16]	; (23fd5c8 <hal_usart_peek+0x14>)
 23fd5b8:	6800      	ldr	r0, [r0, #0]
 23fd5ba:	4b04      	ldr	r3, [pc, #16]	; (23fd5cc <hal_usart_peek+0x18>)
 23fd5bc:	4403      	add	r3, r0
 23fd5be:	681b      	ldr	r3, [r3, #0]
 23fd5c0:	699b      	ldr	r3, [r3, #24]
 23fd5c2:	9302      	str	r3, [sp, #8]
 23fd5c4:	bd09      	pop	{r0, r3, pc}
 23fd5c6:	0000      	.short	0x0000
 23fd5c8:	1007adb0 	.word	0x1007adb0
 23fd5cc:	00000024 	.word	0x00000024

023fd5d0 <hal_usart_flush>:
DYNALIB_FN(BASE_IDX + 7, hal_usart, hal_usart_flush, void(hal_usart_interface_t))
 23fd5d0:	b509      	push	{r0, r3, lr}
 23fd5d2:	4804      	ldr	r0, [pc, #16]	; (23fd5e4 <hal_usart_flush+0x14>)
 23fd5d4:	6800      	ldr	r0, [r0, #0]
 23fd5d6:	4b04      	ldr	r3, [pc, #16]	; (23fd5e8 <hal_usart_flush+0x18>)
 23fd5d8:	4403      	add	r3, r0
 23fd5da:	681b      	ldr	r3, [r3, #0]
 23fd5dc:	69db      	ldr	r3, [r3, #28]
 23fd5de:	9302      	str	r3, [sp, #8]
 23fd5e0:	bd09      	pop	{r0, r3, pc}
 23fd5e2:	0000      	.short	0x0000
 23fd5e4:	1007adb0 	.word	0x1007adb0
 23fd5e8:	00000024 	.word	0x00000024

023fd5ec <hal_usart_is_enabled>:
DYNALIB_FN(BASE_IDX + 8, hal_usart, hal_usart_is_enabled, bool(hal_usart_interface_t))
 23fd5ec:	b509      	push	{r0, r3, lr}
 23fd5ee:	4804      	ldr	r0, [pc, #16]	; (23fd600 <hal_usart_is_enabled+0x14>)
 23fd5f0:	6800      	ldr	r0, [r0, #0]
 23fd5f2:	4b04      	ldr	r3, [pc, #16]	; (23fd604 <hal_usart_is_enabled+0x18>)
 23fd5f4:	4403      	add	r3, r0
 23fd5f6:	681b      	ldr	r3, [r3, #0]
 23fd5f8:	6a1b      	ldr	r3, [r3, #32]
 23fd5fa:	9302      	str	r3, [sp, #8]
 23fd5fc:	bd09      	pop	{r0, r3, pc}
 23fd5fe:	0000      	.short	0x0000
 23fd600:	1007adb0 	.word	0x1007adb0
 23fd604:	00000024 	.word	0x00000024

023fd608 <hal_usart_available_data_for_write>:
DYNALIB_FN(BASE_IDX + 9, hal_usart, hal_usart_half_duplex, void(hal_usart_interface_t, bool))
DYNALIB_FN(BASE_IDX + 10, hal_usart, hal_usart_available_data_for_write, int32_t(hal_usart_interface_t))
 23fd608:	b509      	push	{r0, r3, lr}
 23fd60a:	4804      	ldr	r0, [pc, #16]	; (23fd61c <hal_usart_available_data_for_write+0x14>)
 23fd60c:	6800      	ldr	r0, [r0, #0]
 23fd60e:	4b04      	ldr	r3, [pc, #16]	; (23fd620 <hal_usart_available_data_for_write+0x18>)
 23fd610:	4403      	add	r3, r0
 23fd612:	681b      	ldr	r3, [r3, #0]
 23fd614:	6a9b      	ldr	r3, [r3, #40]	; 0x28
 23fd616:	9302      	str	r3, [sp, #8]
 23fd618:	bd09      	pop	{r0, r3, pc}
 23fd61a:	0000      	.short	0x0000
 23fd61c:	1007adb0 	.word	0x1007adb0
 23fd620:	00000024 	.word	0x00000024

023fd624 <hal_usart_init_ex>:
DYNALIB_FN(BASE_IDX2 + 0, hal_usart, hal_usart_begin_config, void(hal_usart_interface_t serial, uint32_t baud, uint32_t config, void *ptr))
DYNALIB_FN(BASE_IDX2 + 1, hal_usart, hal_usart_write_nine_bits, uint32_t(hal_usart_interface_t serial, uint16_t data))
DYNALIB_FN(BASE_IDX2 + 2, hal_usart, hal_usart_send_break, void(hal_usart_interface_t, void*))
DYNALIB_FN(BASE_IDX2 + 3, hal_usart, hal_usart_break_detected, uint8_t(hal_usart_interface_t))
DYNALIB_FN(BASE_IDX2 + 4, hal_usart, hal_usart_sleep, int(hal_usart_interface_t serial, bool, void*))
DYNALIB_FN(BASE_IDX2 + 5, hal_usart, hal_usart_init_ex, int(hal_usart_interface_t, const hal_usart_buffer_config_t*, void*))
 23fd624:	b509      	push	{r0, r3, lr}
 23fd626:	4804      	ldr	r0, [pc, #16]	; (23fd638 <hal_usart_init_ex+0x14>)
 23fd628:	6800      	ldr	r0, [r0, #0]
 23fd62a:	4b04      	ldr	r3, [pc, #16]	; (23fd63c <hal_usart_init_ex+0x18>)
 23fd62c:	4403      	add	r3, r0
 23fd62e:	681b      	ldr	r3, [r3, #0]
 23fd630:	6c1b      	ldr	r3, [r3, #64]	; 0x40
 23fd632:	9302      	str	r3, [sp, #8]
 23fd634:	bd09      	pop	{r0, r3, pc}
 23fd636:	0000      	.short	0x0000
 23fd638:	1007adb0 	.word	0x1007adb0
 23fd63c:	00000024 	.word	0x00000024

023fd640 <HAL_USB_USART_Init>:
// GNINRAW

DYNALIB_BEGIN(hal_usb)

#ifdef USB_CDC_ENABLE
DYNALIB_FN(0, hal_usb, HAL_USB_USART_Init, void(HAL_USB_USART_Serial, const HAL_USB_USART_Config*))
 23fd640:	b509      	push	{r0, r3, lr}
 23fd642:	4804      	ldr	r0, [pc, #16]	; (23fd654 <HAL_USB_USART_Init+0x14>)
 23fd644:	6800      	ldr	r0, [r0, #0]
 23fd646:	4b04      	ldr	r3, [pc, #16]	; (23fd658 <HAL_USB_USART_Init+0x18>)
 23fd648:	4403      	add	r3, r0
 23fd64a:	681b      	ldr	r3, [r3, #0]
 23fd64c:	681b      	ldr	r3, [r3, #0]
 23fd64e:	9302      	str	r3, [sp, #8]
 23fd650:	bd09      	pop	{r0, r3, pc}
 23fd652:	0000      	.short	0x0000
 23fd654:	1007adb0 	.word	0x1007adb0
 23fd658:	00000034 	.word	0x00000034

023fd65c <HAL_USB_USART_Begin>:
DYNALIB_FN(1, hal_usb, HAL_USB_USART_Begin, void(HAL_USB_USART_Serial, uint32_t, void *))
 23fd65c:	b509      	push	{r0, r3, lr}
 23fd65e:	4804      	ldr	r0, [pc, #16]	; (23fd670 <HAL_USB_USART_Begin+0x14>)
 23fd660:	6800      	ldr	r0, [r0, #0]
 23fd662:	4b04      	ldr	r3, [pc, #16]	; (23fd674 <HAL_USB_USART_Begin+0x18>)
 23fd664:	4403      	add	r3, r0
 23fd666:	681b      	ldr	r3, [r3, #0]
 23fd668:	685b      	ldr	r3, [r3, #4]
 23fd66a:	9302      	str	r3, [sp, #8]
 23fd66c:	bd09      	pop	{r0, r3, pc}
 23fd66e:	0000      	.short	0x0000
 23fd670:	1007adb0 	.word	0x1007adb0
 23fd674:	00000034 	.word	0x00000034

023fd678 <HAL_USB_USART_Available_Data>:
DYNALIB_FN(2, hal_usb, HAL_USB_USART_End, void(HAL_USB_USART_Serial))
DYNALIB_FN(3, hal_usb, HAL_USB_USART_Baud_Rate, unsigned int(HAL_USB_USART_Serial))
DYNALIB_FN_WRAP(4, hal_usb, HAL_USB_USART_Available_Data, protected, int32_t(HAL_USB_USART_Serial))
 23fd678:	b509      	push	{r0, r3, lr}
 23fd67a:	4804      	ldr	r0, [pc, #16]	; (23fd68c <HAL_USB_USART_Available_Data+0x14>)
 23fd67c:	6800      	ldr	r0, [r0, #0]
 23fd67e:	4b04      	ldr	r3, [pc, #16]	; (23fd690 <HAL_USB_USART_Available_Data+0x18>)
 23fd680:	4403      	add	r3, r0
 23fd682:	681b      	ldr	r3, [r3, #0]
 23fd684:	691b      	ldr	r3, [r3, #16]
 23fd686:	9302      	str	r3, [sp, #8]
 23fd688:	bd09      	pop	{r0, r3, pc}
 23fd68a:	0000      	.short	0x0000
 23fd68c:	1007adb0 	.word	0x1007adb0
 23fd690:	00000034 	.word	0x00000034

023fd694 <HAL_USB_USART_Available_Data_For_Write>:
DYNALIB_FN_WRAP(5, hal_usb, HAL_USB_USART_Available_Data_For_Write, protected, int32_t(HAL_USB_USART_Serial))
 23fd694:	b509      	push	{r0, r3, lr}
 23fd696:	4804      	ldr	r0, [pc, #16]	; (23fd6a8 <HAL_USB_USART_Available_Data_For_Write+0x14>)
 23fd698:	6800      	ldr	r0, [r0, #0]
 23fd69a:	4b04      	ldr	r3, [pc, #16]	; (23fd6ac <HAL_USB_USART_Available_Data_For_Write+0x18>)
 23fd69c:	4403      	add	r3, r0
 23fd69e:	681b      	ldr	r3, [r3, #0]
 23fd6a0:	695b      	ldr	r3, [r3, #20]
 23fd6a2:	9302      	str	r3, [sp, #8]
 23fd6a4:	bd09      	pop	{r0, r3, pc}
 23fd6a6:	0000      	.short	0x0000
 23fd6a8:	1007adb0 	.word	0x1007adb0
 23fd6ac:	00000034 	.word	0x00000034

023fd6b0 <HAL_USB_USART_Receive_Data>:
DYNALIB_FN_WRAP(6, hal_usb, HAL_USB_USART_Receive_Data, protected, int32_t(HAL_USB_USART_Serial, uint8_t))
 23fd6b0:	b509      	push	{r0, r3, lr}
 23fd6b2:	4804      	ldr	r0, [pc, #16]	; (23fd6c4 <HAL_USB_USART_Receive_Data+0x14>)
 23fd6b4:	6800      	ldr	r0, [r0, #0]
 23fd6b6:	4b04      	ldr	r3, [pc, #16]	; (23fd6c8 <HAL_USB_USART_Receive_Data+0x18>)
 23fd6b8:	4403      	add	r3, r0
 23fd6ba:	681b      	ldr	r3, [r3, #0]
 23fd6bc:	699b      	ldr	r3, [r3, #24]
 23fd6be:	9302      	str	r3, [sp, #8]
 23fd6c0:	bd09      	pop	{r0, r3, pc}
 23fd6c2:	0000      	.short	0x0000
 23fd6c4:	1007adb0 	.word	0x1007adb0
 23fd6c8:	00000034 	.word	0x00000034

023fd6cc <HAL_USB_USART_Send_Data>:
DYNALIB_FN_WRAP(7, hal_usb, HAL_USB_USART_Send_Data, protected, int32_t(HAL_USB_USART_Serial, uint8_t))
 23fd6cc:	b509      	push	{r0, r3, lr}
 23fd6ce:	4804      	ldr	r0, [pc, #16]	; (23fd6e0 <HAL_USB_USART_Send_Data+0x14>)
 23fd6d0:	6800      	ldr	r0, [r0, #0]
 23fd6d2:	4b04      	ldr	r3, [pc, #16]	; (23fd6e4 <HAL_USB_USART_Send_Data+0x18>)
 23fd6d4:	4403      	add	r3, r0
 23fd6d6:	681b      	ldr	r3, [r3, #0]
 23fd6d8:	69db      	ldr	r3, [r3, #28]
 23fd6da:	9302      	str	r3, [sp, #8]
 23fd6dc:	bd09      	pop	{r0, r3, pc}
 23fd6de:	0000      	.short	0x0000
 23fd6e0:	1007adb0 	.word	0x1007adb0
 23fd6e4:	00000034 	.word	0x00000034

023fd6e8 <HAL_USB_USART_Flush_Data>:
DYNALIB_FN_WRAP(8, hal_usb, HAL_USB_USART_Flush_Data, protected, void(HAL_USB_USART_Serial))
 23fd6e8:	b509      	push	{r0, r3, lr}
 23fd6ea:	4804      	ldr	r0, [pc, #16]	; (23fd6fc <HAL_USB_USART_Flush_Data+0x14>)
 23fd6ec:	6800      	ldr	r0, [r0, #0]
 23fd6ee:	4b04      	ldr	r3, [pc, #16]	; (23fd700 <HAL_USB_USART_Flush_Data+0x18>)
 23fd6f0:	4403      	add	r3, r0
 23fd6f2:	681b      	ldr	r3, [r3, #0]
 23fd6f4:	6a1b      	ldr	r3, [r3, #32]
 23fd6f6:	9302      	str	r3, [sp, #8]
 23fd6f8:	bd09      	pop	{r0, r3, pc}
 23fd6fa:	0000      	.short	0x0000
 23fd6fc:	1007adb0 	.word	0x1007adb0
 23fd700:	00000034 	.word	0x00000034

023fd704 <LED_SetSignalingColor>:
#endif // defined(DYNALIB_EXPORT)

DYNALIB_BEGIN(services)

DYNALIB_FN(0, services, LED_SetRGBColor, void(uint32_t))
DYNALIB_FN(1, services, LED_SetSignalingColor, void(uint32_t))
 23fd704:	b509      	push	{r0, r3, lr}
 23fd706:	4804      	ldr	r0, [pc, #16]	; (23fd718 <LED_SetSignalingColor+0x14>)
 23fd708:	6800      	ldr	r0, [r0, #0]
 23fd70a:	4b04      	ldr	r3, [pc, #16]	; (23fd71c <LED_SetSignalingColor+0x18>)
 23fd70c:	4403      	add	r3, r0
 23fd70e:	681b      	ldr	r3, [r3, #0]
 23fd710:	685b      	ldr	r3, [r3, #4]
 23fd712:	9302      	str	r3, [sp, #8]
 23fd714:	bd09      	pop	{r0, r3, pc}
 23fd716:	0000      	.short	0x0000
 23fd718:	1007adb0 	.word	0x1007adb0
 23fd71c:	00000048 	.word	0x00000048

023fd720 <LED_Signaling_Start>:
DYNALIB_FN(2, services, LED_Signaling_Start, void(void))
 23fd720:	b509      	push	{r0, r3, lr}
 23fd722:	4804      	ldr	r0, [pc, #16]	; (23fd734 <LED_Signaling_Start+0x14>)
 23fd724:	6800      	ldr	r0, [r0, #0]
 23fd726:	4b04      	ldr	r3, [pc, #16]	; (23fd738 <LED_Signaling_Start+0x18>)
 23fd728:	4403      	add	r3, r0
 23fd72a:	681b      	ldr	r3, [r3, #0]
 23fd72c:	689b      	ldr	r3, [r3, #8]
 23fd72e:	9302      	str	r3, [sp, #8]
 23fd730:	bd09      	pop	{r0, r3, pc}
 23fd732:	0000      	.short	0x0000
 23fd734:	1007adb0 	.word	0x1007adb0
 23fd738:	00000048 	.word	0x00000048

023fd73c <LED_Signaling_Stop>:
DYNALIB_FN(3, services, LED_Signaling_Stop, void(void))
 23fd73c:	b509      	push	{r0, r3, lr}
 23fd73e:	4804      	ldr	r0, [pc, #16]	; (23fd750 <LED_Signaling_Stop+0x14>)
 23fd740:	6800      	ldr	r0, [r0, #0]
 23fd742:	4b04      	ldr	r3, [pc, #16]	; (23fd754 <LED_Signaling_Stop+0x18>)
 23fd744:	4403      	add	r3, r0
 23fd746:	681b      	ldr	r3, [r3, #0]
 23fd748:	68db      	ldr	r3, [r3, #12]
 23fd74a:	9302      	str	r3, [sp, #8]
 23fd74c:	bd09      	pop	{r0, r3, pc}
 23fd74e:	0000      	.short	0x0000
 23fd750:	1007adb0 	.word	0x1007adb0
 23fd754:	00000048 	.word	0x00000048

023fd758 <LED_RGB_IsOverRidden>:
DYNALIB_FN(4, services, LED_SetBrightness, void(uint8_t))
DYNALIB_FN(5, services, LED_RGB_Get, void(uint8_t*))
DYNALIB_FN(6, services, LED_RGB_IsOverRidden, bool(void))
 23fd758:	b509      	push	{r0, r3, lr}
 23fd75a:	4804      	ldr	r0, [pc, #16]	; (23fd76c <LED_RGB_IsOverRidden+0x14>)
 23fd75c:	6800      	ldr	r0, [r0, #0]
 23fd75e:	4b04      	ldr	r3, [pc, #16]	; (23fd770 <LED_RGB_IsOverRidden+0x18>)
 23fd760:	4403      	add	r3, r0
 23fd762:	681b      	ldr	r3, [r3, #0]
 23fd764:	699b      	ldr	r3, [r3, #24]
 23fd766:	9302      	str	r3, [sp, #8]
 23fd768:	bd09      	pop	{r0, r3, pc}
 23fd76a:	0000      	.short	0x0000
 23fd76c:	1007adb0 	.word	0x1007adb0
 23fd770:	00000048 	.word	0x00000048

023fd774 <LED_On>:
DYNALIB_FN(7, services, LED_On, void(Led_TypeDef))
 23fd774:	b509      	push	{r0, r3, lr}
 23fd776:	4804      	ldr	r0, [pc, #16]	; (23fd788 <LED_On+0x14>)
 23fd778:	6800      	ldr	r0, [r0, #0]
 23fd77a:	4b04      	ldr	r3, [pc, #16]	; (23fd78c <LED_On+0x18>)
 23fd77c:	4403      	add	r3, r0
 23fd77e:	681b      	ldr	r3, [r3, #0]
 23fd780:	69db      	ldr	r3, [r3, #28]
 23fd782:	9302      	str	r3, [sp, #8]
 23fd784:	bd09      	pop	{r0, r3, pc}
 23fd786:	0000      	.short	0x0000
 23fd788:	1007adb0 	.word	0x1007adb0
 23fd78c:	00000048 	.word	0x00000048

023fd790 <panic_ext>:
DYNALIB_FN(48, services, devicetree_tree_lock, int(void*))
DYNALIB_FN(49, services, devicetree_tree_get, int(void*, uint32_t, void*))
DYNALIB_FN(50, services, devicetree_string_dictionary_lookup, const char*(uint32_t, void*))
DYNALIB_FN(51, services, devicetree_hash_string, uint32_t(const char*, size_t))
DYNALIB_FN(52, services, security_mode_get, int(void*))
DYNALIB_FN(53, services, panic_ext, void(const PanicData*, void*))
 23fd790:	b509      	push	{r0, r3, lr}
 23fd792:	4804      	ldr	r0, [pc, #16]	; (23fd7a4 <panic_ext+0x14>)
 23fd794:	6800      	ldr	r0, [r0, #0]
 23fd796:	4b04      	ldr	r3, [pc, #16]	; (23fd7a8 <panic_ext+0x18>)
 23fd798:	4403      	add	r3, r0
 23fd79a:	681b      	ldr	r3, [r3, #0]
 23fd79c:	f8d3 30d4 	ldr.w	r3, [r3, #212]	; 0xd4
 23fd7a0:	9302      	str	r3, [sp, #8]
 23fd7a2:	bd09      	pop	{r0, r3, pc}
 23fd7a4:	1007adb0 	.word	0x1007adb0
 23fd7a8:	00000048 	.word	0x00000048

023fd7ac <set_system_mode>:
#endif

DYNALIB_BEGIN(system)

DYNALIB_FN(0, system, system_mode, System_Mode_TypeDef(void))
DYNALIB_FN(1, system, set_system_mode, void(System_Mode_TypeDef))
 23fd7ac:	b509      	push	{r0, r3, lr}
 23fd7ae:	4804      	ldr	r0, [pc, #16]	; (23fd7c0 <set_system_mode+0x14>)
 23fd7b0:	6800      	ldr	r0, [r0, #0]
 23fd7b2:	4b04      	ldr	r3, [pc, #16]	; (23fd7c4 <set_system_mode+0x18>)
 23fd7b4:	4403      	add	r3, r0
 23fd7b6:	681b      	ldr	r3, [r3, #0]
 23fd7b8:	685b      	ldr	r3, [r3, #4]
 23fd7ba:	9302      	str	r3, [sp, #8]
 23fd7bc:	bd09      	pop	{r0, r3, pc}
 23fd7be:	0000      	.short	0x0000
 23fd7c0:	1007adb0 	.word	0x1007adb0
 23fd7c4:	00000008 	.word	0x00000008

023fd7c8 <system_delay_ms>:

DYNALIB_FN(2, system, set_ymodem_serial_flash_update_handler_deprecated, void(void*))
DYNALIB_FN(3, system, system_firmwareUpdate_deprecated, bool(Stream*, void*))
DYNALIB_FN(4, system, system_fileTransfer_deprecated, bool(system_file_transfer_t*, void*))

DYNALIB_FN(5, system, system_delay_ms, void(unsigned long, bool))
 23fd7c8:	b509      	push	{r0, r3, lr}
 23fd7ca:	4804      	ldr	r0, [pc, #16]	; (23fd7dc <system_delay_ms+0x14>)
 23fd7cc:	6800      	ldr	r0, [r0, #0]
 23fd7ce:	4b04      	ldr	r3, [pc, #16]	; (23fd7e0 <system_delay_ms+0x18>)
 23fd7d0:	4403      	add	r3, r0
 23fd7d2:	681b      	ldr	r3, [r3, #0]
 23fd7d4:	695b      	ldr	r3, [r3, #20]
 23fd7d6:	9302      	str	r3, [sp, #8]
 23fd7d8:	bd09      	pop	{r0, r3, pc}
 23fd7da:	0000      	.short	0x0000
 23fd7dc:	1007adb0 	.word	0x1007adb0
 23fd7e0:	00000008 	.word	0x00000008

023fd7e4 <system_thread_set_state>:
DYNALIB_FN(6, system, system_sleep, int(Spark_Sleep_TypeDef, long, uint32_t, void*))
DYNALIB_FN(7, system, system_sleep_pin, int(uint16_t, uint16_t, long, uint32_t, void*))
DYNALIB_FN(8, system, system_subscribe_event, int(system_event_t, system_event_handler_t*, SystemEventContext*))
DYNALIB_FN(9, system, system_unsubscribe_event, void(system_event_t, system_event_handler_t*, const SystemEventContext*))
DYNALIB_FN(10, system, system_button_pushed_duration, uint16_t(uint8_t, void*))
DYNALIB_FN(11, system, system_thread_set_state, void(spark::feature::State, void*))
 23fd7e4:	b509      	push	{r0, r3, lr}
 23fd7e6:	4804      	ldr	r0, [pc, #16]	; (23fd7f8 <system_thread_set_state+0x14>)
 23fd7e8:	6800      	ldr	r0, [r0, #0]
 23fd7ea:	4b04      	ldr	r3, [pc, #16]	; (23fd7fc <system_thread_set_state+0x18>)
 23fd7ec:	4403      	add	r3, r0
 23fd7ee:	681b      	ldr	r3, [r3, #0]
 23fd7f0:	6adb      	ldr	r3, [r3, #44]	; 0x2c
 23fd7f2:	9302      	str	r3, [sp, #8]
 23fd7f4:	bd09      	pop	{r0, r3, pc}
 23fd7f6:	0000      	.short	0x0000
 23fd7f8:	1007adb0 	.word	0x1007adb0
 23fd7fc:	00000008 	.word	0x00000008

023fd800 <application_thread_current>:
DYNALIB_FN(15, system, system_get_flag, int(system_flag_t, uint8_t*, void*))
DYNALIB_FN_WRAP(16, system, Spark_Prepare_For_Firmware_Update, protected, int(FileTransfer::Descriptor&, uint32_t, void*))
DYNALIB_FN_WRAP(17, system, Spark_Save_Firmware_Chunk, protected, int(FileTransfer::Descriptor&, const uint8_t*, void*))
DYNALIB_FN_WRAP(18, system, Spark_Finish_Firmware_Update, protected, int(FileTransfer::Descriptor&, uint32_t, void*))

DYNALIB_FN(19, system, application_thread_current, uint8_t(void*))
 23fd800:	b509      	push	{r0, r3, lr}
 23fd802:	4804      	ldr	r0, [pc, #16]	; (23fd814 <application_thread_current+0x14>)
 23fd804:	6800      	ldr	r0, [r0, #0]
 23fd806:	4b04      	ldr	r3, [pc, #16]	; (23fd818 <application_thread_current+0x18>)
 23fd808:	4403      	add	r3, r0
 23fd80a:	681b      	ldr	r3, [r3, #0]
 23fd80c:	6cdb      	ldr	r3, [r3, #76]	; 0x4c
 23fd80e:	9302      	str	r3, [sp, #8]
 23fd810:	bd09      	pop	{r0, r3, pc}
 23fd812:	0000      	.short	0x0000
 23fd814:	1007adb0 	.word	0x1007adb0
 23fd818:	00000008 	.word	0x00000008

023fd81c <application_thread_invoke>:
DYNALIB_FN(20, system, system_thread_current, uint8_t(void*))
DYNALIB_FN(21, system, application_thread_invoke, uint8_t(void(*)(void*), void*, void*))
 23fd81c:	b509      	push	{r0, r3, lr}
 23fd81e:	4804      	ldr	r0, [pc, #16]	; (23fd830 <application_thread_invoke+0x14>)
 23fd820:	6800      	ldr	r0, [r0, #0]
 23fd822:	4b04      	ldr	r3, [pc, #16]	; (23fd834 <application_thread_invoke+0x18>)
 23fd824:	4403      	add	r3, r0
 23fd826:	681b      	ldr	r3, [r3, #0]
 23fd828:	6d5b      	ldr	r3, [r3, #84]	; 0x54
 23fd82a:	9302      	str	r3, [sp, #8]
 23fd82c:	bd09      	pop	{r0, r3, pc}
 23fd82e:	0000      	.short	0x0000
 23fd830:	1007adb0 	.word	0x1007adb0
 23fd834:	00000008 	.word	0x00000008

023fd838 <system_ctrl_set_app_request_handler>:
DYNALIB_FN(BASE_IDX + 6, system, led_pattern_period, uint16_t(int, int, void*))
DYNALIB_FN(BASE_IDX + 7, system, system_set_tester_handlers, int(system_tester_handlers_t*, void*))
DYNALIB_FN(BASE_IDX + 8, system, system_format_diag_data, int(const uint16_t*, size_t, unsigned, appender_fn, void*, void*))

// Control requests
DYNALIB_FN(BASE_IDX + 9, system, system_ctrl_set_app_request_handler, int(ctrl_request_handler_fn, void*))
 23fd838:	b509      	push	{r0, r3, lr}
 23fd83a:	4804      	ldr	r0, [pc, #16]	; (23fd84c <system_ctrl_set_app_request_handler+0x14>)
 23fd83c:	6800      	ldr	r0, [r0, #0]
 23fd83e:	4b04      	ldr	r3, [pc, #16]	; (23fd850 <system_ctrl_set_app_request_handler+0x18>)
 23fd840:	4403      	add	r3, r0
 23fd842:	681b      	ldr	r3, [r3, #0]
 23fd844:	f8d3 3088 	ldr.w	r3, [r3, #136]	; 0x88
 23fd848:	9302      	str	r3, [sp, #8]
 23fd84a:	bd09      	pop	{r0, r3, pc}
 23fd84c:	1007adb0 	.word	0x1007adb0
 23fd850:	00000008 	.word	0x00000008

023fd854 <system_ctrl_set_result>:
DYNALIB_FN(BASE_IDX + 10, system, system_ctrl_alloc_reply_data, int(ctrl_request*, size_t, void*))
DYNALIB_FN(BASE_IDX + 11, system, system_ctrl_free_request_data, void(ctrl_request*, void*))
DYNALIB_FN(BASE_IDX + 12, system, system_ctrl_set_result, void(ctrl_request*, int, ctrl_completion_handler_fn, void*, void*))
 23fd854:	b509      	push	{r0, r3, lr}
 23fd856:	4804      	ldr	r0, [pc, #16]	; (23fd868 <system_ctrl_set_result+0x14>)
 23fd858:	6800      	ldr	r0, [r0, #0]
 23fd85a:	4b04      	ldr	r3, [pc, #16]	; (23fd86c <system_ctrl_set_result+0x18>)
 23fd85c:	4403      	add	r3, r0
 23fd85e:	681b      	ldr	r3, [r3, #0]
 23fd860:	f8d3 3094 	ldr.w	r3, [r3, #148]	; 0x94
 23fd864:	9302      	str	r3, [sp, #8]
 23fd866:	bd09      	pop	{r0, r3, pc}
 23fd868:	1007adb0 	.word	0x1007adb0
 23fd86c:	00000008 	.word	0x00000008

023fd870 <spark_cloud_flag_connect>:
DYNALIB_BEGIN(system_cloud)

DYNALIB_FN(0, system_cloud, spark_variable, bool(const char*, const void*, Spark_Data_TypeDef, spark_variable_t*))
DYNALIB_FN(1, system_cloud, spark_function, bool(const char*, p_user_function_int_str_t, void*))
DYNALIB_FN(2, system_cloud, spark_process, bool(void))
DYNALIB_FN(3, system_cloud, spark_cloud_flag_connect, void(void))
 23fd870:	b509      	push	{r0, r3, lr}
 23fd872:	4804      	ldr	r0, [pc, #16]	; (23fd884 <spark_cloud_flag_connect+0x14>)
 23fd874:	6800      	ldr	r0, [r0, #0]
 23fd876:	4b04      	ldr	r3, [pc, #16]	; (23fd888 <spark_cloud_flag_connect+0x18>)
 23fd878:	4403      	add	r3, r0
 23fd87a:	681b      	ldr	r3, [r3, #0]
 23fd87c:	68db      	ldr	r3, [r3, #12]
 23fd87e:	9302      	str	r3, [sp, #8]
 23fd880:	bd09      	pop	{r0, r3, pc}
 23fd882:	0000      	.short	0x0000
 23fd884:	1007adb0 	.word	0x1007adb0
 23fd888:	0000002c 	.word	0x0000002c

023fd88c <spark_cloud_flag_connected>:
DYNALIB_FN(4, system_cloud, spark_cloud_flag_disconnect, void(void))
DYNALIB_FN(5, system_cloud, spark_cloud_flag_connected, bool(void))
 23fd88c:	b509      	push	{r0, r3, lr}
 23fd88e:	4804      	ldr	r0, [pc, #16]	; (23fd8a0 <spark_cloud_flag_connected+0x14>)
 23fd890:	6800      	ldr	r0, [r0, #0]
 23fd892:	4b04      	ldr	r3, [pc, #16]	; (23fd8a4 <spark_cloud_flag_connected+0x18>)
 23fd894:	4403      	add	r3, r0
 23fd896:	681b      	ldr	r3, [r3, #0]
 23fd898:	695b      	ldr	r3, [r3, #20]
 23fd89a:	9302      	str	r3, [sp, #8]
 23fd89c:	bd09      	pop	{r0, r3, pc}
 23fd89e:	0000      	.short	0x0000
 23fd8a0:	1007adb0 	.word	0x1007adb0
 23fd8a4:	0000002c 	.word	0x0000002c

023fd8a8 <spark_send_event>:
DYNALIB_FN(6, system_cloud, system_cloud_protocol_instance, ProtocolFacade*(void))
DYNALIB_FN(7, system_cloud, spark_deviceID, String(void))
DYNALIB_FN(8, system_cloud, spark_send_event, bool(const char*, const char*, int, uint32_t, void*))
 23fd8a8:	b509      	push	{r0, r3, lr}
 23fd8aa:	4804      	ldr	r0, [pc, #16]	; (23fd8bc <spark_send_event+0x14>)
 23fd8ac:	6800      	ldr	r0, [r0, #0]
 23fd8ae:	4b04      	ldr	r3, [pc, #16]	; (23fd8c0 <spark_send_event+0x18>)
 23fd8b0:	4403      	add	r3, r0
 23fd8b2:	681b      	ldr	r3, [r3, #0]
 23fd8b4:	6a1b      	ldr	r3, [r3, #32]
 23fd8b6:	9302      	str	r3, [sp, #8]
 23fd8b8:	bd09      	pop	{r0, r3, pc}
 23fd8ba:	0000      	.short	0x0000
 23fd8bc:	1007adb0 	.word	0x1007adb0
 23fd8c0:	0000002c 	.word	0x0000002c

023fd8c4 <spark_set_random_seed_from_cloud_handler>:
DYNALIB_FN(10, system_cloud, spark_unsubscribe, void(void*))
DYNALIB_FN(11, system_cloud, spark_sync_time, bool(void*))
DYNALIB_FN(12, system_cloud, spark_sync_time_pending, bool(void*))
DYNALIB_FN(13, system_cloud, spark_sync_time_last, system_tick_t(time32_t*, time_t*))
DYNALIB_FN(14, system_cloud, spark_set_connection_property, int(unsigned, unsigned, const void*, void*))
DYNALIB_FN(15, system_cloud, spark_set_random_seed_from_cloud_handler, int(void (*handler)(unsigned int), void*))
 23fd8c4:	b509      	push	{r0, r3, lr}
 23fd8c6:	4804      	ldr	r0, [pc, #16]	; (23fd8d8 <spark_set_random_seed_from_cloud_handler+0x14>)
 23fd8c8:	6800      	ldr	r0, [r0, #0]
 23fd8ca:	4b04      	ldr	r3, [pc, #16]	; (23fd8dc <spark_set_random_seed_from_cloud_handler+0x18>)
 23fd8cc:	4403      	add	r3, r0
 23fd8ce:	681b      	ldr	r3, [r3, #0]
 23fd8d0:	6bdb      	ldr	r3, [r3, #60]	; 0x3c
 23fd8d2:	9302      	str	r3, [sp, #8]
 23fd8d4:	bd09      	pop	{r0, r3, pc}
 23fd8d6:	0000      	.short	0x0000
 23fd8d8:	1007adb0 	.word	0x1007adb0
 23fd8dc:	0000002c 	.word	0x0000002c

023fd8e0 <network_connect>:
#endif

DYNALIB_BEGIN(system_net)

DYNALIB_FN(0, system_net, network_config, const void*(network_handle_t, uint32_t, void*))
DYNALIB_FN(1, system_net, network_connect, void(network_handle_t, uint32_t, uint32_t, void*))
 23fd8e0:	b509      	push	{r0, r3, lr}
 23fd8e2:	4804      	ldr	r0, [pc, #16]	; (23fd8f4 <network_connect+0x14>)
 23fd8e4:	6800      	ldr	r0, [r0, #0]
 23fd8e6:	4b04      	ldr	r3, [pc, #16]	; (23fd8f8 <network_connect+0x18>)
 23fd8e8:	4403      	add	r3, r0
 23fd8ea:	681b      	ldr	r3, [r3, #0]
 23fd8ec:	685b      	ldr	r3, [r3, #4]
 23fd8ee:	9302      	str	r3, [sp, #8]
 23fd8f0:	bd09      	pop	{r0, r3, pc}
 23fd8f2:	0000      	.short	0x0000
 23fd8f4:	1007adb0 	.word	0x1007adb0
 23fd8f8:	00000028 	.word	0x00000028

023fd8fc <network_connecting>:
DYNALIB_FN(2, system_net, network_connecting, bool(network_handle_t, uint32_t, void*))
 23fd8fc:	b509      	push	{r0, r3, lr}
 23fd8fe:	4804      	ldr	r0, [pc, #16]	; (23fd910 <network_connecting+0x14>)
 23fd900:	6800      	ldr	r0, [r0, #0]
 23fd902:	4b04      	ldr	r3, [pc, #16]	; (23fd914 <network_connecting+0x18>)
 23fd904:	4403      	add	r3, r0
 23fd906:	681b      	ldr	r3, [r3, #0]
 23fd908:	689b      	ldr	r3, [r3, #8]
 23fd90a:	9302      	str	r3, [sp, #8]
 23fd90c:	bd09      	pop	{r0, r3, pc}
 23fd90e:	0000      	.short	0x0000
 23fd910:	1007adb0 	.word	0x1007adb0
 23fd914:	00000028 	.word	0x00000028

023fd918 <network_disconnect>:
DYNALIB_FN(3, system_net, network_disconnect, void(network_handle_t, uint32_t, void*))
 23fd918:	b509      	push	{r0, r3, lr}
 23fd91a:	4804      	ldr	r0, [pc, #16]	; (23fd92c <network_disconnect+0x14>)
 23fd91c:	6800      	ldr	r0, [r0, #0]
 23fd91e:	4b04      	ldr	r3, [pc, #16]	; (23fd930 <network_disconnect+0x18>)
 23fd920:	4403      	add	r3, r0
 23fd922:	681b      	ldr	r3, [r3, #0]
 23fd924:	68db      	ldr	r3, [r3, #12]
 23fd926:	9302      	str	r3, [sp, #8]
 23fd928:	bd09      	pop	{r0, r3, pc}
 23fd92a:	0000      	.short	0x0000
 23fd92c:	1007adb0 	.word	0x1007adb0
 23fd930:	00000028 	.word	0x00000028

023fd934 <network_ready>:
DYNALIB_FN(4, system_net, network_ready, bool(network_handle_t, uint32_t, void*))
 23fd934:	b509      	push	{r0, r3, lr}
 23fd936:	4804      	ldr	r0, [pc, #16]	; (23fd948 <network_ready+0x14>)
 23fd938:	6800      	ldr	r0, [r0, #0]
 23fd93a:	4b04      	ldr	r3, [pc, #16]	; (23fd94c <network_ready+0x18>)
 23fd93c:	4403      	add	r3, r0
 23fd93e:	681b      	ldr	r3, [r3, #0]
 23fd940:	691b      	ldr	r3, [r3, #16]
 23fd942:	9302      	str	r3, [sp, #8]
 23fd944:	bd09      	pop	{r0, r3, pc}
 23fd946:	0000      	.short	0x0000
 23fd948:	1007adb0 	.word	0x1007adb0
 23fd94c:	00000028 	.word	0x00000028

023fd950 <network_on>:
DYNALIB_FN(5, system_net, network_on, void(network_handle_t, uint32_t, uint32_t, void*))
 23fd950:	b509      	push	{r0, r3, lr}
 23fd952:	4804      	ldr	r0, [pc, #16]	; (23fd964 <network_on+0x14>)
 23fd954:	6800      	ldr	r0, [r0, #0]
 23fd956:	4b04      	ldr	r3, [pc, #16]	; (23fd968 <network_on+0x18>)
 23fd958:	4403      	add	r3, r0
 23fd95a:	681b      	ldr	r3, [r3, #0]
 23fd95c:	695b      	ldr	r3, [r3, #20]
 23fd95e:	9302      	str	r3, [sp, #8]
 23fd960:	bd09      	pop	{r0, r3, pc}
 23fd962:	0000      	.short	0x0000
 23fd964:	1007adb0 	.word	0x1007adb0
 23fd968:	00000028 	.word	0x00000028

023fd96c <network_off>:
DYNALIB_FN(6, system_net, network_off, void(network_handle_t, uint32_t, uint32_t, void*))
 23fd96c:	b509      	push	{r0, r3, lr}
 23fd96e:	4804      	ldr	r0, [pc, #16]	; (23fd980 <network_off+0x14>)
 23fd970:	6800      	ldr	r0, [r0, #0]
 23fd972:	4b04      	ldr	r3, [pc, #16]	; (23fd984 <network_off+0x18>)
 23fd974:	4403      	add	r3, r0
 23fd976:	681b      	ldr	r3, [r3, #0]
 23fd978:	699b      	ldr	r3, [r3, #24]
 23fd97a:	9302      	str	r3, [sp, #8]
 23fd97c:	bd09      	pop	{r0, r3, pc}
 23fd97e:	0000      	.short	0x0000
 23fd980:	1007adb0 	.word	0x1007adb0
 23fd984:	00000028 	.word	0x00000028

023fd988 <network_listen>:
DYNALIB_FN(7, system_net, network_listen, void(network_handle_t, uint32_t, void*))
 23fd988:	b509      	push	{r0, r3, lr}
 23fd98a:	4804      	ldr	r0, [pc, #16]	; (23fd99c <network_listen+0x14>)
 23fd98c:	6800      	ldr	r0, [r0, #0]
 23fd98e:	4b04      	ldr	r3, [pc, #16]	; (23fd9a0 <network_listen+0x18>)
 23fd990:	4403      	add	r3, r0
 23fd992:	681b      	ldr	r3, [r3, #0]
 23fd994:	69db      	ldr	r3, [r3, #28]
 23fd996:	9302      	str	r3, [sp, #8]
 23fd998:	bd09      	pop	{r0, r3, pc}
 23fd99a:	0000      	.short	0x0000
 23fd99c:	1007adb0 	.word	0x1007adb0
 23fd9a0:	00000028 	.word	0x00000028

023fd9a4 <network_listening>:
DYNALIB_FN(8, system_net, network_listening, bool(network_handle_t, uint32_t, void*))
 23fd9a4:	b509      	push	{r0, r3, lr}
 23fd9a6:	4804      	ldr	r0, [pc, #16]	; (23fd9b8 <network_listening+0x14>)
 23fd9a8:	6800      	ldr	r0, [r0, #0]
 23fd9aa:	4b04      	ldr	r3, [pc, #16]	; (23fd9bc <network_listening+0x18>)
 23fd9ac:	4403      	add	r3, r0
 23fd9ae:	681b      	ldr	r3, [r3, #0]
 23fd9b0:	6a1b      	ldr	r3, [r3, #32]
 23fd9b2:	9302      	str	r3, [sp, #8]
 23fd9b4:	bd09      	pop	{r0, r3, pc}
 23fd9b6:	0000      	.short	0x0000
 23fd9b8:	1007adb0 	.word	0x1007adb0
 23fd9bc:	00000028 	.word	0x00000028

023fd9c0 <network_set_listen_timeout>:
DYNALIB_FN(9, system_net, network_has_credentials, bool(network_handle_t, uint32_t, void*))
DYNALIB_FN(10, system_net, network_set_credentials, int(network_handle_t, uint32_t, NetworkCredentials*, void*))
DYNALIB_FN(11, system_net, network_clear_credentials, bool(network_handle_t, uint32_t, NetworkCredentials*, void*))
DYNALIB_FN(12, system_net, network_set_listen_timeout, void(network_handle_t, uint16_t, void*))
 23fd9c0:	b509      	push	{r0, r3, lr}
 23fd9c2:	4804      	ldr	r0, [pc, #16]	; (23fd9d4 <network_set_listen_timeout+0x14>)
 23fd9c4:	6800      	ldr	r0, [r0, #0]
 23fd9c6:	4b04      	ldr	r3, [pc, #16]	; (23fd9d8 <network_set_listen_timeout+0x18>)
 23fd9c8:	4403      	add	r3, r0
 23fd9ca:	681b      	ldr	r3, [r3, #0]
 23fd9cc:	6b1b      	ldr	r3, [r3, #48]	; 0x30
 23fd9ce:	9302      	str	r3, [sp, #8]
 23fd9d0:	bd09      	pop	{r0, r3, pc}
 23fd9d2:	0000      	.short	0x0000
 23fd9d4:	1007adb0 	.word	0x1007adb0
 23fd9d8:	00000028 	.word	0x00000028

023fd9dc <network_get_listen_timeout>:
DYNALIB_FN(13, system_net, network_get_listen_timeout, uint16_t(network_handle_t, uint32_t, void*))
 23fd9dc:	b509      	push	{r0, r3, lr}
 23fd9de:	4804      	ldr	r0, [pc, #16]	; (23fd9f0 <network_get_listen_timeout+0x14>)
 23fd9e0:	6800      	ldr	r0, [r0, #0]
 23fd9e2:	4b04      	ldr	r3, [pc, #16]	; (23fd9f4 <network_get_listen_timeout+0x18>)
 23fd9e4:	4403      	add	r3, r0
 23fd9e6:	681b      	ldr	r3, [r3, #0]
 23fd9e8:	6b5b      	ldr	r3, [r3, #52]	; 0x34
 23fd9ea:	9302      	str	r3, [sp, #8]
 23fd9ec:	bd09      	pop	{r0, r3, pc}
 23fd9ee:	0000      	.short	0x0000
 23fd9f0:	1007adb0 	.word	0x1007adb0
 23fd9f4:	00000028 	.word	0x00000028

023fd9f8 <network_is_on>:
DYNALIB_FN(14, system_net, network_set_hostname, int(network_handle_t, uint32_t, const char*, void*))
DYNALIB_FN(15, system_net, network_get_hostname, int(network_handle_t, uint32_t, char*, size_t, void*))
DYNALIB_FN(16, system_net, network_is_on, bool(network_handle_t, void*))
 23fd9f8:	b509      	push	{r0, r3, lr}
 23fd9fa:	4804      	ldr	r0, [pc, #16]	; (23fda0c <network_is_on+0x14>)
 23fd9fc:	6800      	ldr	r0, [r0, #0]
 23fd9fe:	4b04      	ldr	r3, [pc, #16]	; (23fda10 <network_is_on+0x18>)
 23fda00:	4403      	add	r3, r0
 23fda02:	681b      	ldr	r3, [r3, #0]
 23fda04:	6c1b      	ldr	r3, [r3, #64]	; 0x40
 23fda06:	9302      	str	r3, [sp, #8]
 23fda08:	bd09      	pop	{r0, r3, pc}
 23fda0a:	0000      	.short	0x0000
 23fda0c:	1007adb0 	.word	0x1007adb0
 23fda10:	00000028 	.word	0x00000028

023fda14 <network_is_off>:
DYNALIB_FN(17, system_net, network_is_off, bool(network_handle_t, void*))
 23fda14:	b509      	push	{r0, r3, lr}
 23fda16:	4804      	ldr	r0, [pc, #16]	; (23fda28 <network_is_off+0x14>)
 23fda18:	6800      	ldr	r0, [r0, #0]
 23fda1a:	4b04      	ldr	r3, [pc, #16]	; (23fda2c <network_is_off+0x18>)
 23fda1c:	4403      	add	r3, r0
 23fda1e:	681b      	ldr	r3, [r3, #0]
 23fda20:	6c5b      	ldr	r3, [r3, #68]	; 0x44
 23fda22:	9302      	str	r3, [sp, #8]
 23fda24:	bd09      	pop	{r0, r3, pc}
 23fda26:	0000      	.short	0x0000
 23fda28:	1007adb0 	.word	0x1007adb0
 23fda2c:	00000028 	.word	0x00000028

023fda30 <network_prefer>:
DYNALIB_FN(18, system_net, network_set_configuration, int(network_handle_t, const network_configuration_t*, void*))
DYNALIB_FN(19, system_net, network_get_configuration, int(network_handle_t, network_configuration_t**, size_t*, const char*, size_t, void*))
DYNALIB_FN(20, system_net, network_free_configuration, int(network_configuration_t*, size_t, void*))
DYNALIB_FN(21, system_net, network_prefer, network_handle_t(network_handle_t, bool, void*))
 23fda30:	b509      	push	{r0, r3, lr}
 23fda32:	4804      	ldr	r0, [pc, #16]	; (23fda44 <network_prefer+0x14>)
 23fda34:	6800      	ldr	r0, [r0, #0]
 23fda36:	4b04      	ldr	r3, [pc, #16]	; (23fda48 <network_prefer+0x18>)
 23fda38:	4403      	add	r3, r0
 23fda3a:	681b      	ldr	r3, [r3, #0]
 23fda3c:	6d5b      	ldr	r3, [r3, #84]	; 0x54
 23fda3e:	9302      	str	r3, [sp, #8]
 23fda40:	bd09      	pop	{r0, r3, pc}
 23fda42:	0000      	.short	0x0000
 23fda44:	1007adb0 	.word	0x1007adb0
 23fda48:	00000028 	.word	0x00000028

023fda4c <network_is_preferred>:
DYNALIB_FN(22, system_net, network_is_preferred, bool(network_handle_t, void*))
 23fda4c:	b509      	push	{r0, r3, lr}
 23fda4e:	4804      	ldr	r0, [pc, #16]	; (23fda60 <network_is_preferred+0x14>)
 23fda50:	6800      	ldr	r0, [r0, #0]
 23fda52:	4b04      	ldr	r3, [pc, #16]	; (23fda64 <network_is_preferred+0x18>)
 23fda54:	4403      	add	r3, r0
 23fda56:	681b      	ldr	r3, [r3, #0]
 23fda58:	6d9b      	ldr	r3, [r3, #88]	; 0x58
 23fda5a:	9302      	str	r3, [sp, #8]
 23fda5c:	bd09      	pop	{r0, r3, pc}
 23fda5e:	0000      	.short	0x0000
 23fda60:	1007adb0 	.word	0x1007adb0
 23fda64:	00000028 	.word	0x00000028

023fda68 <malloc>:
#include "hal_platform.h"
#endif // defined(DYNALIB_EXPORT) || defined(DYNALIB_IMPORT)

DYNALIB_BEGIN(rt)

DYNALIB_FN(0, rt, malloc, void*(size_t))
 23fda68:	b509      	push	{r0, r3, lr}
 23fda6a:	4804      	ldr	r0, [pc, #16]	; (23fda7c <malloc+0x14>)
 23fda6c:	6800      	ldr	r0, [r0, #0]
 23fda6e:	4b04      	ldr	r3, [pc, #16]	; (23fda80 <malloc+0x18>)
 23fda70:	4403      	add	r3, r0
 23fda72:	681b      	ldr	r3, [r3, #0]
 23fda74:	681b      	ldr	r3, [r3, #0]
 23fda76:	9302      	str	r3, [sp, #8]
 23fda78:	bd09      	pop	{r0, r3, pc}
 23fda7a:	0000      	.short	0x0000
 23fda7c:	1007adb0 	.word	0x1007adb0
 23fda80:	00000004 	.word	0x00000004

023fda84 <free>:
DYNALIB_FN(1, rt, free, void(void*))
 23fda84:	b509      	push	{r0, r3, lr}
 23fda86:	4804      	ldr	r0, [pc, #16]	; (23fda98 <free+0x14>)
 23fda88:	6800      	ldr	r0, [r0, #0]
 23fda8a:	4b04      	ldr	r3, [pc, #16]	; (23fda9c <free+0x18>)
 23fda8c:	4403      	add	r3, r0
 23fda8e:	681b      	ldr	r3, [r3, #0]
 23fda90:	685b      	ldr	r3, [r3, #4]
 23fda92:	9302      	str	r3, [sp, #8]
 23fda94:	bd09      	pop	{r0, r3, pc}
 23fda96:	0000      	.short	0x0000
 23fda98:	1007adb0 	.word	0x1007adb0
 23fda9c:	00000004 	.word	0x00000004

023fdaa0 <vsnprintf>:
DYNALIB_FN(4, rt, siprintf, int(char*, const char*, ...))
DYNALIB_FN(5, rt, sscanf, int(const char*, const char*, ...))
DYNALIB_FN(6, rt, siscanf, int(const char*, const char*, ...))
DYNALIB_FN(7, rt, snprintf, int(char*, size_t, const char*, ...))
DYNALIB_FN(8, rt, sniprintf, int(char*, size_t, const char*, ...))
DYNALIB_FN(9, rt, vsnprintf, int(char*, size_t, const char*, va_list))
 23fdaa0:	b509      	push	{r0, r3, lr}
 23fdaa2:	4804      	ldr	r0, [pc, #16]	; (23fdab4 <vsnprintf+0x14>)
 23fdaa4:	6800      	ldr	r0, [r0, #0]
 23fdaa6:	4b04      	ldr	r3, [pc, #16]	; (23fdab8 <vsnprintf+0x18>)
 23fdaa8:	4403      	add	r3, r0
 23fdaaa:	681b      	ldr	r3, [r3, #0]
 23fdaac:	6a5b      	ldr	r3, [r3, #36]	; 0x24
 23fdaae:	9302      	str	r3, [sp, #8]
 23fdab0:	bd09      	pop	{r0, r3, pc}
 23fdab2:	0000      	.short	0x0000
 23fdab4:	1007adb0 	.word	0x1007adb0
 23fdab8:	00000004 	.word	0x00000004

023fdabc <abort>:
DYNALIB_FN(10, rt, vsniprintf, int(char*, size_t, const char*, va_list))
DYNALIB_FN(11, rt, abort, void(void))
 23fdabc:	b509      	push	{r0, r3, lr}
 23fdabe:	4804      	ldr	r0, [pc, #16]	; (23fdad0 <abort+0x14>)
 23fdac0:	6800      	ldr	r0, [r0, #0]
 23fdac2:	4b04      	ldr	r3, [pc, #16]	; (23fdad4 <abort+0x18>)
 23fdac4:	4403      	add	r3, r0
 23fdac6:	681b      	ldr	r3, [r3, #0]
 23fdac8:	6adb      	ldr	r3, [r3, #44]	; 0x2c
 23fdaca:	9302      	str	r3, [sp, #8]
 23fdacc:	bd09      	pop	{r0, r3, pc}
 23fdace:	0000      	.short	0x0000
 23fdad0:	1007adb0 	.word	0x1007adb0
 23fdad4:	00000004 	.word	0x00000004

023fdad8 <_malloc_r>:
DYNALIB_FN(12, rt, _malloc_r, void*(struct _reent*, size_t))
 23fdad8:	b509      	push	{r0, r3, lr}
 23fdada:	4804      	ldr	r0, [pc, #16]	; (23fdaec <_malloc_r+0x14>)
 23fdadc:	6800      	ldr	r0, [r0, #0]
 23fdade:	4b04      	ldr	r3, [pc, #16]	; (23fdaf0 <_malloc_r+0x18>)
 23fdae0:	4403      	add	r3, r0
 23fdae2:	681b      	ldr	r3, [r3, #0]
 23fdae4:	6b1b      	ldr	r3, [r3, #48]	; 0x30
 23fdae6:	9302      	str	r3, [sp, #8]
 23fdae8:	bd09      	pop	{r0, r3, pc}
 23fdaea:	0000      	.short	0x0000
 23fdaec:	1007adb0 	.word	0x1007adb0
 23fdaf0:	00000004 	.word	0x00000004

023fdaf4 <__assert_func>:
DYNALIB_FN(13, rt, _free_r, void(struct _reent*, void*))
DYNALIB_FN(14, rt, _realloc_r, void*(struct _reent*, void*, size_t))
DYNALIB_FN(15, rt, __errno, int*())

#if defined(DYNALIB_EXPORT) || defined(DYNALIB_IMPORT)
DYNALIB_FN(16, rt, __assert_func, void(const char*, int, const char*, const char*))
 23fdaf4:	b509      	push	{r0, r3, lr}
 23fdaf6:	4804      	ldr	r0, [pc, #16]	; (23fdb08 <__assert_func+0x14>)
 23fdaf8:	6800      	ldr	r0, [r0, #0]
 23fdafa:	4b04      	ldr	r3, [pc, #16]	; (23fdb0c <__assert_func+0x18>)
 23fdafc:	4403      	add	r3, r0
 23fdafe:	681b      	ldr	r3, [r3, #0]
 23fdb00:	6c1b      	ldr	r3, [r3, #64]	; 0x40
 23fdb02:	9302      	str	r3, [sp, #8]
 23fdb04:	bd09      	pop	{r0, r3, pc}
 23fdb06:	0000      	.short	0x0000
 23fdb08:	1007adb0 	.word	0x1007adb0
 23fdb0c:	00000004 	.word	0x00000004

023fdb10 <newlib_impure_ptr_callback>:
DYNALIB_FN(17, rt, newlib_impure_ptr_callback, void(void (*)(struct _reent*, size_t, uint32_t, void*), void*))
 23fdb10:	b509      	push	{r0, r3, lr}
 23fdb12:	4804      	ldr	r0, [pc, #16]	; (23fdb24 <newlib_impure_ptr_callback+0x14>)
 23fdb14:	6800      	ldr	r0, [r0, #0]
 23fdb16:	4b04      	ldr	r3, [pc, #16]	; (23fdb28 <newlib_impure_ptr_callback+0x18>)
 23fdb18:	4403      	add	r3, r0
 23fdb1a:	681b      	ldr	r3, [r3, #0]
 23fdb1c:	6c5b      	ldr	r3, [r3, #68]	; 0x44
 23fdb1e:	9302      	str	r3, [sp, #8]
 23fdb20:	bd09      	pop	{r0, r3, pc}
 23fdb22:	0000      	.short	0x0000
 23fdb24:	1007adb0 	.word	0x1007adb0
 23fdb28:	00000004 	.word	0x00000004

023fdb2c <__cxa_guard_acquire>:

DYNALIB_FN(18, rt, strftime, size_t(char* __restrict, size_t, const char* __restrict, const struct tm* __restrict))
DYNALIB_FN(19, rt, localtime_r, struct tm*(const time_t* __restrict, struct tm* __restrict))
DYNALIB_FN(20, rt, gmtime_r, struct tm*(const time_t* __restrict, struct tm* __restrict))
DYNALIB_FN(21, rt, mktime, time_t(struct tm*))
DYNALIB_FN(22, rt, __cxa_guard_acquire, int(__guard*))
 23fdb2c:	b509      	push	{r0, r3, lr}
 23fdb2e:	4804      	ldr	r0, [pc, #16]	; (23fdb40 <__cxa_guard_acquire+0x14>)
 23fdb30:	6800      	ldr	r0, [r0, #0]
 23fdb32:	4b04      	ldr	r3, [pc, #16]	; (23fdb44 <__cxa_guard_acquire+0x18>)
 23fdb34:	4403      	add	r3, r0
 23fdb36:	681b      	ldr	r3, [r3, #0]
 23fdb38:	6d9b      	ldr	r3, [r3, #88]	; 0x58
 23fdb3a:	9302      	str	r3, [sp, #8]
 23fdb3c:	bd09      	pop	{r0, r3, pc}
 23fdb3e:	0000      	.short	0x0000
 23fdb40:	1007adb0 	.word	0x1007adb0
 23fdb44:	00000004 	.word	0x00000004

023fdb48 <__cxa_guard_release>:
DYNALIB_FN(23, rt, __cxa_guard_release, void(__guard*))
 23fdb48:	b509      	push	{r0, r3, lr}
 23fdb4a:	4804      	ldr	r0, [pc, #16]	; (23fdb5c <__cxa_guard_release+0x14>)
 23fdb4c:	6800      	ldr	r0, [r0, #0]
 23fdb4e:	4b04      	ldr	r3, [pc, #16]	; (23fdb60 <__cxa_guard_release+0x18>)
 23fdb50:	4403      	add	r3, r0
 23fdb52:	681b      	ldr	r3, [r3, #0]
 23fdb54:	6ddb      	ldr	r3, [r3, #92]	; 0x5c
 23fdb56:	9302      	str	r3, [sp, #8]
 23fdb58:	bd09      	pop	{r0, r3, pc}
 23fdb5a:	0000      	.short	0x0000
 23fdb5c:	1007adb0 	.word	0x1007adb0
 23fdb60:	00000004 	.word	0x00000004

023fdb64 <delay>:
    return (value - fromStart) * (toEnd - toStart) / (fromEnd - fromStart) + toStart;
}

void delay(unsigned long ms)
{
    system_delay_ms(ms, false);
 23fdb64:	2100      	movs	r1, #0
 23fdb66:	f7ff be2f 	b.w	23fd7c8 <system_delay_ms>

023fdb6a <_ZNSt14__shared_countILN9__gnu_cxx12_Lock_policyE0EED1Ev>:
      ~__shared_count() noexcept
 23fdb6a:	b538      	push	{r3, r4, r5, lr}
	if (_M_pi != nullptr)
 23fdb6c:	6804      	ldr	r4, [r0, #0]
      ~__shared_count() noexcept
 23fdb6e:	4605      	mov	r5, r0
	if (_M_pi != nullptr)
 23fdb70:	b17c      	cbz	r4, 23fdb92 <_ZNSt14__shared_countILN9__gnu_cxx12_Lock_policyE0EED1Ev+0x28>
      if (--_M_use_count == 0)
 23fdb72:	6863      	ldr	r3, [r4, #4]
 23fdb74:	3b01      	subs	r3, #1
 23fdb76:	6063      	str	r3, [r4, #4]
 23fdb78:	b95b      	cbnz	r3, 23fdb92 <_ZNSt14__shared_countILN9__gnu_cxx12_Lock_policyE0EED1Ev+0x28>
          _M_dispose();
 23fdb7a:	6823      	ldr	r3, [r4, #0]
 23fdb7c:	4620      	mov	r0, r4
 23fdb7e:	689b      	ldr	r3, [r3, #8]
 23fdb80:	4798      	blx	r3
          if (--_M_weak_count == 0)
 23fdb82:	68a3      	ldr	r3, [r4, #8]
 23fdb84:	3b01      	subs	r3, #1
 23fdb86:	60a3      	str	r3, [r4, #8]
 23fdb88:	b91b      	cbnz	r3, 23fdb92 <_ZNSt14__shared_countILN9__gnu_cxx12_Lock_policyE0EED1Ev+0x28>
            _M_destroy();
 23fdb8a:	6823      	ldr	r3, [r4, #0]
 23fdb8c:	4620      	mov	r0, r4
 23fdb8e:	68db      	ldr	r3, [r3, #12]
 23fdb90:	4798      	blx	r3
	  _M_pi->_M_release();
      }
 23fdb92:	4628      	mov	r0, r5
 23fdb94:	bd38      	pop	{r3, r4, r5, pc}

023fdb96 <_ZN8particle6detail21futureCallbackWrapperEPv>:
 * License along with this library; if not, see <http://www.gnu.org/licenses/>.
 */

#include "spark_wiring_async.h"

void particle::detail::futureCallbackWrapper(void* data) {
 23fdb96:	b510      	push	{r4, lr}
  template<typename _Res, typename... _ArgTypes>
    _Res
    function<_Res(_ArgTypes...)>::
    operator()(_ArgTypes... __args) const
    {
      if (_M_empty())
 23fdb98:	6883      	ldr	r3, [r0, #8]
 23fdb9a:	4604      	mov	r4, r0
 23fdb9c:	b90b      	cbnz	r3, 23fdba2 <_ZN8particle6detail21futureCallbackWrapperEPv+0xc>
	__throw_bad_function_call();
 23fdb9e:	f001 fa21 	bl	23fefe4 <_ZSt25__throw_bad_function_callv>
      return _M_invoker(_M_functor, std::forward<_ArgTypes>(__args)...);
 23fdba2:	68c3      	ldr	r3, [r0, #12]
 23fdba4:	4798      	blx	r3
      if (_M_manager)
 23fdba6:	68a3      	ldr	r3, [r4, #8]
 23fdba8:	b11b      	cbz	r3, 23fdbb2 <_ZN8particle6detail21futureCallbackWrapperEPv+0x1c>
	_M_manager(_M_functor, _M_functor, __destroy_functor);
 23fdbaa:	2203      	movs	r2, #3
 23fdbac:	4621      	mov	r1, r4
 23fdbae:	4620      	mov	r0, r4
 23fdbb0:	4798      	blx	r3
    auto callbackPtr = static_cast<const std::function<void()>*>(data);
    (*callbackPtr)();
    delete callbackPtr;
 23fdbb2:	4620      	mov	r0, r4
}
 23fdbb4:	e8bd 4010 	ldmia.w	sp!, {r4, lr}
    delete callbackPtr;
 23fdbb8:	2110      	movs	r1, #16
 23fdbba:	f7fd bd9e 	b.w	23fb6fa <_ZdlPvj>

023fdbbe <_ZNSt14_Function_baseD1Ev>:
    ~_Function_base()
 23fdbbe:	b510      	push	{r4, lr}
      if (_M_manager)
 23fdbc0:	6883      	ldr	r3, [r0, #8]
    ~_Function_base()
 23fdbc2:	4604      	mov	r4, r0
      if (_M_manager)
 23fdbc4:	b113      	cbz	r3, 23fdbcc <_ZNSt14_Function_baseD1Ev+0xe>
	_M_manager(_M_functor, _M_functor, __destroy_functor);
 23fdbc6:	2203      	movs	r2, #3
 23fdbc8:	4601      	mov	r1, r0
 23fdbca:	4798      	blx	r3
    }
 23fdbcc:	4620      	mov	r0, r4
 23fdbce:	bd10      	pop	{r4, pc}

023fdbd0 <_ZSt4swapISt9_Any_dataENSt9enable_ifIXsrSt6__and_IJSt6__not_ISt15__is_tuple_likeIT_EESt21is_move_constructibleIS5_ESt18is_move_assignableIS5_EEE5valueEvE4typeERS5_SF_>:
			      is_move_constructible<_Tp>,
			      is_move_assignable<_Tp>>::value>::type
#else
    void
#endif
    swap(_Tp& __a, _Tp& __b)
 23fdbd0:	b513      	push	{r0, r1, r4, lr}
    {
#if __cplusplus < 201103L
      // concept requirements
      __glibcxx_function_requires(_SGIAssignableConcept<_Tp>)
#endif
      _Tp __tmp = _GLIBCXX_MOVE(__a);
 23fdbd2:	466c      	mov	r4, sp
    swap(_Tp& __a, _Tp& __b)
 23fdbd4:	460b      	mov	r3, r1
 23fdbd6:	4602      	mov	r2, r0
      _Tp __tmp = _GLIBCXX_MOVE(__a);
 23fdbd8:	e9d0 0100 	ldrd	r0, r1, [r0]
 23fdbdc:	e884 0003 	stmia.w	r4, {r0, r1}
      __a = _GLIBCXX_MOVE(__b);
 23fdbe0:	e893 0003 	ldmia.w	r3, {r0, r1}
 23fdbe4:	e882 0003 	stmia.w	r2, {r0, r1}
      __b = _GLIBCXX_MOVE(__tmp);
 23fdbe8:	e894 0003 	ldmia.w	r4, {r0, r1}
 23fdbec:	e883 0003 	stmia.w	r3, {r0, r1}
    }
 23fdbf0:	b002      	add	sp, #8
 23fdbf2:	bd10      	pop	{r4, pc}

023fdbf4 <_GLOBAL__sub_I__ZN8particle3ble13WiringBleLock6mutex_E>:
    /**
     * Creates a shared mutex.
     */
    RecursiveMutex(os_mutex_recursive_t handle) : handle_(handle) {}

    RecursiveMutex() : handle_(nullptr)
 23fdbf4:	2300      	movs	r3, #0
 23fdbf6:	4802      	ldr	r0, [pc, #8]	; (23fdc00 <_GLOBAL__sub_I__ZN8particle3ble13WiringBleLock6mutex_E+0xc>)
 23fdbf8:	6003      	str	r3, [r0, #0]
    {
        os_mutex_recursive_create(&handle_);
 23fdbfa:	f7ff bad5 	b.w	23fd1a8 <os_mutex_recursive_create>
 23fdbfe:	bf00      	nop
 23fdc00:	1007af14 	.word	0x1007af14

023fdc04 <_ZNSt15_Sp_counted_ptrIPN8particle6detail10FutureImplIbNS1_13FutureContextEEELN9__gnu_cxx12_Lock_policyE0EED1Ev>:
    class _Sp_counted_ptr final : public _Sp_counted_base<_Lp>
 23fdc04:	4770      	bx	lr

023fdc06 <_ZNSt15_Sp_counted_ptrIPN8particle6detail10FutureImplIbNS1_13FutureContextEEELN9__gnu_cxx12_Lock_policyE0EE14_M_get_deleterERKSt9type_info>:
      { return nullptr; }
 23fdc06:	2000      	movs	r0, #0
 23fdc08:	4770      	bx	lr

023fdc0a <_ZNSt15_Sp_counted_ptrIPN8particle6detail10FutureImplIbNS1_13FutureContextEEELN9__gnu_cxx12_Lock_policyE0EED0Ev>:
    class _Sp_counted_ptr final : public _Sp_counted_base<_Lp>
 23fdc0a:	b510      	push	{r4, lr}
 23fdc0c:	4604      	mov	r4, r0
 23fdc0e:	2110      	movs	r1, #16
 23fdc10:	f7fd fd73 	bl	23fb6fa <_ZdlPvj>
 23fdc14:	4620      	mov	r0, r4
 23fdc16:	bd10      	pop	{r4, pc}

023fdc18 <_ZNSt15_Sp_counted_ptrIPN8particle6detail10FutureImplIbNS1_13FutureContextEEELN9__gnu_cxx12_Lock_policyE0EE10_M_destroyEv>:
      _M_destroy() noexcept
 23fdc18:	b508      	push	{r3, lr}
      { delete this; }
 23fdc1a:	f7ff fff6 	bl	23fdc0a <_ZNSt15_Sp_counted_ptrIPN8particle6detail10FutureImplIbNS1_13FutureContextEEELN9__gnu_cxx12_Lock_policyE0EED0Ev>
 23fdc1e:	bd08      	pop	{r3, pc}

023fdc20 <_ZN8particle5ErrorC1EOS0_>:

} // namespace particle

inline particle::Error::Error(Type type) :
        msg_(nullptr),
        type_(type) {
 23fdc20:	2200      	movs	r2, #0

inline particle::Error::Error(const Error& error) :
        Error(error.type_, error.msg_) {
}

inline particle::Error::Error(Error&& error) :
 23fdc22:	b530      	push	{r4, r5, lr}
        type_(type) {
 23fdc24:	f64f 749c 	movw	r4, #65436	; 0xff9c
 23fdc28:	6002      	str	r2, [r0, #0]
 23fdc2a:	8084      	strh	r4, [r0, #4]
      __a = _GLIBCXX_MOVE(__b);
 23fdc2c:	888d      	ldrh	r5, [r1, #4]
      __b = _GLIBCXX_MOVE(__tmp);
 23fdc2e:	808c      	strh	r4, [r1, #4]
      __a = _GLIBCXX_MOVE(__b);
 23fdc30:	680c      	ldr	r4, [r1, #0]
 23fdc32:	8085      	strh	r5, [r0, #4]
 23fdc34:	6004      	str	r4, [r0, #0]
      __b = _GLIBCXX_MOVE(__tmp);
 23fdc36:	600a      	str	r2, [r1, #0]
        Error() {
    swap(*this, error);
}
 23fdc38:	bd30      	pop	{r4, r5, pc}

023fdc3a <_ZN8particle5ErrorD1Ev>:

inline particle::Error::~Error() {
 23fdc3a:	b510      	push	{r4, lr}
 23fdc3c:	4604      	mov	r4, r0
    free((void*)msg_);
 23fdc3e:	6800      	ldr	r0, [r0, #0]
 23fdc40:	f7ff ff20 	bl	23fda84 <free>
}
 23fdc44:	4620      	mov	r0, r4
 23fdc46:	bd10      	pop	{r4, pc}

023fdc48 <_ZNSt15_Sp_counted_ptrIPN8particle6detail10FutureImplIbNS1_13FutureContextEEELN9__gnu_cxx12_Lock_policyE0EE10_M_disposeEv>:
      _M_dispose() noexcept
 23fdc48:	b538      	push	{r3, r4, r5, lr}
      { delete _M_ptr; }
 23fdc4a:	68c4      	ldr	r4, [r0, #12]
 23fdc4c:	b314      	cbz	r4, 23fdc94 <_ZNSt15_Sp_counted_ptrIPN8particle6detail10FutureImplIbNS1_13FutureContextEEELN9__gnu_cxx12_Lock_policyE0EE10_M_disposeEv+0x4c>
      _Tp
      load(memory_order __m = memory_order_seq_cst) const noexcept
      {
	alignas(_Tp) unsigned char __buf[sizeof(_Tp)];
	_Tp* __ptr = reinterpret_cast<_Tp*>(__buf);
	__atomic_load(std::__addressof(_M_i), __ptr, int(__m));
 23fdc4e:	7823      	ldrb	r3, [r4, #0]
 23fdc50:	b2db      	uxtb	r3, r3
    ~FutureImpl() {
        // Call destructor of the appropriate unnamed enum's field
        const State s = this->state();
        if (s == State::SUCCEEDED) {
            result_.~ResultT();
        } else if (s == State::FAILED) {
 23fdc52:	2b02      	cmp	r3, #2
 23fdc54:	d103      	bne.n	23fdc5e <_ZNSt15_Sp_counted_ptrIPN8particle6detail10FutureImplIbNS1_13FutureContextEEELN9__gnu_cxx12_Lock_policyE0EE10_M_disposeEv+0x16>
            error_.~Error();
 23fdc56:	f104 000c 	add.w	r0, r4, #12
 23fdc5a:	f7ff ffee 	bl	23fdc3a <_ZN8particle5ErrorD1Ev>
      {
	memory_order __b = __m & __memory_order_mask;
	__glibcxx_assert(__b != memory_order_release);
	__glibcxx_assert(__b != memory_order_acq_rel);

	return __atomic_load_n(&_M_p, int(__m));
 23fdc5e:	1d23      	adds	r3, r4, #4
 23fdc60:	681d      	ldr	r5, [r3, #0]
        delete onSuccess_.load(std::memory_order_relaxed);
 23fdc62:	b135      	cbz	r5, 23fdc72 <_ZNSt15_Sp_counted_ptrIPN8particle6detail10FutureImplIbNS1_13FutureContextEEELN9__gnu_cxx12_Lock_policyE0EE10_M_disposeEv+0x2a>
    class function<_Res(_ArgTypes...)>
 23fdc64:	4628      	mov	r0, r5
 23fdc66:	f7ff ffaa 	bl	23fdbbe <_ZNSt14_Function_baseD1Ev>
 23fdc6a:	2110      	movs	r1, #16
 23fdc6c:	4628      	mov	r0, r5
 23fdc6e:	f7fd fd44 	bl	23fb6fa <_ZdlPvj>
 23fdc72:	f104 0308 	add.w	r3, r4, #8
 23fdc76:	681d      	ldr	r5, [r3, #0]
        delete onError_.load(std::memory_order_relaxed);
 23fdc78:	b135      	cbz	r5, 23fdc88 <_ZNSt15_Sp_counted_ptrIPN8particle6detail10FutureImplIbNS1_13FutureContextEEELN9__gnu_cxx12_Lock_policyE0EE10_M_disposeEv+0x40>
 23fdc7a:	4628      	mov	r0, r5
 23fdc7c:	f7ff ff9f 	bl	23fdbbe <_ZNSt14_Function_baseD1Ev>
 23fdc80:	2110      	movs	r1, #16
 23fdc82:	4628      	mov	r0, r5
 23fdc84:	f7fd fd39 	bl	23fb6fa <_ZdlPvj>
 23fdc88:	4620      	mov	r0, r4
 23fdc8a:	e8bd 4038 	ldmia.w	sp!, {r3, r4, r5, lr}
 23fdc8e:	2114      	movs	r1, #20
 23fdc90:	f7fd bd33 	b.w	23fb6fa <_ZdlPvj>
 23fdc94:	bd38      	pop	{r3, r4, r5, pc}

023fdc96 <_ZNSt12__shared_ptrIN8particle6detail10FutureImplIbNS1_13FutureContextEEELN9__gnu_cxx12_Lock_policyE0EEC1ERKS7_>:
	{
	  _M_refcount._M_swap(__r._M_refcount);
	  __r._M_ptr = 0;
	}

      __shared_ptr(const __shared_ptr&) noexcept = default;
 23fdc96:	680b      	ldr	r3, [r1, #0]
 23fdc98:	6003      	str	r3, [r0, #0]
      : _M_pi(__r._M_pi)
 23fdc9a:	684b      	ldr	r3, [r1, #4]
 23fdc9c:	6043      	str	r3, [r0, #4]
	if (_M_pi != 0)
 23fdc9e:	b113      	cbz	r3, 23fdca6 <_ZNSt12__shared_ptrIN8particle6detail10FutureImplIbNS1_13FutureContextEEELN9__gnu_cxx12_Lock_policyE0EEC1ERKS7_+0x10>
    { ++_M_use_count; }
 23fdca0:	685a      	ldr	r2, [r3, #4]
 23fdca2:	3201      	adds	r2, #1
 23fdca4:	605a      	str	r2, [r3, #4]
      __shared_ptr(const __shared_ptr&) noexcept = default;
 23fdca6:	4770      	bx	lr

023fdca8 <_ZN8particle11PromiseBaseIbNS_6detail13FutureContextEE11fromDataPtrEPv>:
        // TODO: Use custom reference counting object to avoid unnecessary memory allocation
        return new detail::FutureImplPtr<ResultT, ContextT>(p_);
    }

    // Unwraps promise from an object pointer created via dataPtr() method
    static Promise<ResultT, ContextT> fromDataPtr(void* data) {
 23fdca8:	b537      	push	{r0, r1, r2, r4, r5, lr}
 23fdcaa:	4604      	mov	r4, r0
       *  @brief  Construct an empty %shared_ptr.
       *  @post   use_count()==0 && get()==0
       */
      constexpr shared_ptr() noexcept : __shared_ptr<_Tp>() { }

      shared_ptr(const shared_ptr&) noexcept = default; ///< Copy constructor
 23fdcac:	4668      	mov	r0, sp
 23fdcae:	460d      	mov	r5, r1
 23fdcb0:	f7ff fff1 	bl	23fdc96 <_ZNSt12__shared_ptrIN8particle6detail10FutureImplIbNS1_13FutureContextEEELN9__gnu_cxx12_Lock_policyE0EEC1ERKS7_>
	__shared_ptr(const __shared_ptr<_Yp, _Lp>& __r) noexcept
	: _M_ptr(__r._M_ptr), _M_refcount(__r._M_refcount)
	{ }

      __shared_ptr(__shared_ptr&& __r) noexcept
      : _M_ptr(__r._M_ptr), _M_refcount()
 23fdcb4:	9b00      	ldr	r3, [sp, #0]
	_Sp_counted_base<_Lp>* __tmp = __r._M_pi;
 23fdcb6:	9a01      	ldr	r2, [sp, #4]
      : _M_ptr(__r._M_ptr), _M_refcount()
 23fdcb8:	6023      	str	r3, [r4, #0]
	__r._M_pi = _M_pi;
 23fdcba:	2300      	movs	r3, #0
	_M_pi = __tmp;
 23fdcbc:	6062      	str	r2, [r4, #4]
      ~__shared_ptr() = default;
 23fdcbe:	a801      	add	r0, sp, #4
	__r._M_pi = _M_pi;
 23fdcc0:	9301      	str	r3, [sp, #4]
      {
	_M_refcount._M_swap(__r._M_refcount);
	__r._M_ptr = 0;
 23fdcc2:	9300      	str	r3, [sp, #0]
      ~__shared_ptr() = default;
 23fdcc4:	f7ff ff51 	bl	23fdb6a <_ZNSt14__shared_countILN9__gnu_cxx12_Lock_policyE0EED1Ev>
        auto d = static_cast<detail::FutureImplPtr<ResultT, ContextT>*>(data);
        const Promise<ResultT, ContextT> p(*d);
        delete d;
 23fdcc8:	b135      	cbz	r5, 23fdcd8 <_ZN8particle11PromiseBaseIbNS_6detail13FutureContextEE11fromDataPtrEPv+0x30>
 23fdcca:	1d28      	adds	r0, r5, #4
 23fdccc:	f7ff ff4d 	bl	23fdb6a <_ZNSt14__shared_countILN9__gnu_cxx12_Lock_policyE0EED1Ev>
 23fdcd0:	2108      	movs	r1, #8
 23fdcd2:	4628      	mov	r0, r5
 23fdcd4:	f7fd fd11 	bl	23fb6fa <_ZdlPvj>
        return p;
    }
 23fdcd8:	4620      	mov	r0, r4
 23fdcda:	b003      	add	sp, #12
 23fdcdc:	bd30      	pop	{r4, r5, pc}

023fdcde <_ZNKSt8functionIFvRKN8particle5ErrorEEEclES3_>:
      if (_M_empty())
 23fdcde:	6882      	ldr	r2, [r0, #8]
    function<_Res(_ArgTypes...)>::
 23fdce0:	b510      	push	{r4, lr}
      if (_M_empty())
 23fdce2:	b90a      	cbnz	r2, 23fdce8 <_ZNKSt8functionIFvRKN8particle5ErrorEEEclES3_+0xa>
	__throw_bad_function_call();
 23fdce4:	f001 f97e 	bl	23fefe4 <_ZSt25__throw_bad_function_callv>
      return _M_invoker(_M_functor, std::forward<_ArgTypes>(__args)...);
 23fdce8:	68c3      	ldr	r3, [r0, #12]
    }
 23fdcea:	e8bd 4010 	ldmia.w	sp!, {r4, lr}
      return _M_invoker(_M_functor, std::forward<_ArgTypes>(__args)...);
 23fdcee:	4718      	bx	r3

023fdcf0 <_ZNSt17_Function_handlerIFvvESt5_BindIFSt8functionIFvRKN8particle5ErrorEEES4_EEE9_M_invokeERKSt9_Any_data>:
      _M_invoke(const _Any_data& __functor, _ArgTypes&&... __args)
 23fdcf0:	b508      	push	{r3, lr}
	    return __source._M_access<_Functor*>();
 23fdcf2:	6800      	ldr	r0, [r0, #0]
    { return static_cast<_Up&&>(__t); }

  template<typename _Res, typename _Fn, typename... _Args>
    constexpr _Res
    __invoke_impl(__invoke_other, _Fn&& __f, _Args&&... __args)
    { return std::forward<_Fn>(__f)(std::forward<_Args>(__args)...); }
 23fdcf4:	f100 0110 	add.w	r1, r0, #16
 23fdcf8:	f7ff fff1 	bl	23fdcde <_ZNKSt8functionIFvRKN8particle5ErrorEEEclES3_>
      }
 23fdcfc:	bd08      	pop	{r3, pc}

023fdcfe <_ZNKSt8functionIFvRKbEEclES1_>:
      if (_M_empty())
 23fdcfe:	6882      	ldr	r2, [r0, #8]
    function<_Res(_ArgTypes...)>::
 23fdd00:	b510      	push	{r4, lr}
      if (_M_empty())
 23fdd02:	b90a      	cbnz	r2, 23fdd08 <_ZNKSt8functionIFvRKbEEclES1_+0xa>
	__throw_bad_function_call();
 23fdd04:	f001 f96e 	bl	23fefe4 <_ZSt25__throw_bad_function_callv>
      return _M_invoker(_M_functor, std::forward<_ArgTypes>(__args)...);
 23fdd08:	68c3      	ldr	r3, [r0, #12]
    }
 23fdd0a:	e8bd 4010 	ldmia.w	sp!, {r4, lr}
      return _M_invoker(_M_functor, std::forward<_ArgTypes>(__args)...);
 23fdd0e:	4718      	bx	r3

023fdd10 <_ZNSt17_Function_handlerIFvvESt5_BindIFSt8functionIFvRKbEEbEEE9_M_invokeERKSt9_Any_data>:
      _M_invoke(const _Any_data& __functor, _ArgTypes&&... __args)
 23fdd10:	b508      	push	{r3, lr}
	    return __source._M_access<_Functor*>();
 23fdd12:	6800      	ldr	r0, [r0, #0]
 23fdd14:	f100 0110 	add.w	r1, r0, #16
 23fdd18:	f7ff fff1 	bl	23fdcfe <_ZNKSt8functionIFvRKbEEclES1_>
      }
 23fdd1c:	bd08      	pop	{r3, pc}
	...

023fdd20 <_ZNSt14__shared_countILN9__gnu_cxx12_Lock_policyE0EEC1IPN8particle6detail10FutureImplIbNS5_13FutureContextEEEEET_>:
	__shared_count(_Ptr __p) : _M_pi(0)
 23fdd20:	b538      	push	{r3, r4, r5, lr}
 23fdd22:	2300      	movs	r3, #0
 23fdd24:	4604      	mov	r4, r0
 23fdd26:	6003      	str	r3, [r0, #0]
	      _M_pi = new _Sp_counted_ptr<_Ptr, _Lp>(__p);
 23fdd28:	2010      	movs	r0, #16
	__shared_count(_Ptr __p) : _M_pi(0)
 23fdd2a:	460d      	mov	r5, r1
	      _M_pi = new _Sp_counted_ptr<_Ptr, _Lp>(__p);
 23fdd2c:	f7fd fce1 	bl	23fb6f2 <_Znwj>
 23fdd30:	b128      	cbz	r0, 23fdd3e <_ZNSt14__shared_countILN9__gnu_cxx12_Lock_policyE0EEC1IPN8particle6detail10FutureImplIbNS5_13FutureContextEEEEET_+0x1e>
      : _M_use_count(1), _M_weak_count(1) { }
 23fdd32:	2301      	movs	r3, #1
 23fdd34:	e9c0 3301 	strd	r3, r3, [r0, #4]
      : _M_ptr(__p) { }
 23fdd38:	4b02      	ldr	r3, [pc, #8]	; (23fdd44 <_ZNSt14__shared_countILN9__gnu_cxx12_Lock_policyE0EEC1IPN8particle6detail10FutureImplIbNS5_13FutureContextEEEEET_+0x24>)
 23fdd3a:	60c5      	str	r5, [r0, #12]
 23fdd3c:	6003      	str	r3, [r0, #0]
	      _M_pi = new _Sp_counted_ptr<_Ptr, _Lp>(__p);
 23fdd3e:	6020      	str	r0, [r4, #0]
	}
 23fdd40:	4620      	mov	r0, r4
 23fdd42:	bd38      	pop	{r3, r4, r5, pc}
 23fdd44:	023ffd94 	.word	0x023ffd94

023fdd48 <_ZN8particle10FutureBaseIbNS_6detail13FutureContextEEC1ENS_5Error4TypeE>:
    // Construct failed future
    explicit FutureBase(Error error) :
            p_(new detail::FutureImpl<ResultT, ContextT>(std::move(error))) {
    }

    explicit FutureBase(Error::Type error) :
 23fdd48:	b57f      	push	{r0, r1, r2, r3, r4, r5, r6, lr}
        type_(type) {
 23fdd4a:	2600      	movs	r6, #0
 23fdd4c:	f8ad 1004 	strh.w	r1, [sp, #4]
 23fdd50:	4605      	mov	r5, r0
            p_(new detail::FutureImpl<ResultT, ContextT>(std::move(error))) {
 23fdd52:	4669      	mov	r1, sp
 23fdd54:	a802      	add	r0, sp, #8
 23fdd56:	9600      	str	r6, [sp, #0]
 23fdd58:	f7ff ff62 	bl	23fdc20 <_ZN8particle5ErrorC1EOS0_>
 23fdd5c:	2014      	movs	r0, #20
 23fdd5e:	f7fd fcc8 	bl	23fb6f2 <_Znwj>
 23fdd62:	4604      	mov	r4, r0
 23fdd64:	b148      	cbz	r0, 23fdd7a <_ZN8particle10FutureBaseIbNS_6detail13FutureContextEEC1ENS_5Error4TypeE+0x32>
      constexpr atomic(_Tp __i) noexcept : _M_i(__i) { }
 23fdd66:	2302      	movs	r3, #2
 23fdd68:	7003      	strb	r3, [r0, #0]
      constexpr __atomic_base(__int_type __i) noexcept : _M_i (__i) { }
 23fdd6a:	2301      	movs	r3, #1
      constexpr __atomic_base(__pointer_type __p) noexcept : _M_p (__p) { }
 23fdd6c:	e9c0 6601 	strd	r6, r6, [r0, #4]
      constexpr __atomic_base(__int_type __i) noexcept : _M_i (__i) { }
 23fdd70:	7043      	strb	r3, [r0, #1]
            error_(std::move(error)) {
 23fdd72:	a902      	add	r1, sp, #8
 23fdd74:	300c      	adds	r0, #12
 23fdd76:	f7ff ff53 	bl	23fdc20 <_ZN8particle5ErrorC1EOS0_>
	: _M_ptr(__p), _M_refcount(__p, typename is_array<_Tp>::type())
 23fdd7a:	4628      	mov	r0, r5
	: __shared_count(__p)
 23fdd7c:	4621      	mov	r1, r4
	: _M_ptr(__p), _M_refcount(__p, typename is_array<_Tp>::type())
 23fdd7e:	f840 4b04 	str.w	r4, [r0], #4
	: __shared_count(__p)
 23fdd82:	f7ff ffcd 	bl	23fdd20 <_ZNSt14__shared_countILN9__gnu_cxx12_Lock_policyE0EEC1IPN8particle6detail10FutureImplIbNS5_13FutureContextEEEEET_>
            p_(new detail::FutureImpl<ResultT, ContextT>(std::move(error))) {
 23fdd86:	a802      	add	r0, sp, #8
 23fdd88:	f7ff ff57 	bl	23fdc3a <_ZN8particle5ErrorD1Ev>
            FutureBase(Error(error)) {
 23fdd8c:	4668      	mov	r0, sp
 23fdd8e:	f7ff ff54 	bl	23fdc3a <_ZN8particle5ErrorD1Ev>
    }
 23fdd92:	4628      	mov	r0, r5
 23fdd94:	b004      	add	sp, #16
 23fdd96:	bd70      	pop	{r4, r5, r6, pc}

023fdd98 <_ZNSt8functionIFvRKN8particle5ErrorEEEC1ERKS5_>:
    function<_Res(_ArgTypes...)>::
 23fdd98:	b538      	push	{r3, r4, r5, lr}
    _Function_base() : _M_manager(nullptr) { }
 23fdd9a:	2300      	movs	r3, #0
 23fdd9c:	6083      	str	r3, [r0, #8]
    bool _M_empty() const { return !_M_manager; }
 23fdd9e:	688b      	ldr	r3, [r1, #8]
    function<_Res(_ArgTypes...)>::
 23fdda0:	4604      	mov	r4, r0
 23fdda2:	460d      	mov	r5, r1
      if (static_cast<bool>(__x))
 23fdda4:	b12b      	cbz	r3, 23fddb2 <_ZNSt8functionIFvRKN8particle5ErrorEEEC1ERKS5_+0x1a>
	  __x._M_manager(_M_functor, __x._M_functor, __clone_functor);
 23fdda6:	2202      	movs	r2, #2
 23fdda8:	4798      	blx	r3
	  _M_invoker = __x._M_invoker;
 23fddaa:	68eb      	ldr	r3, [r5, #12]
 23fddac:	60e3      	str	r3, [r4, #12]
	  _M_manager = __x._M_manager;
 23fddae:	68ab      	ldr	r3, [r5, #8]
 23fddb0:	60a3      	str	r3, [r4, #8]
    }
 23fddb2:	4620      	mov	r0, r4
 23fddb4:	bd38      	pop	{r3, r4, r5, pc}
	...

023fddb8 <_ZN8particle11PromiseBaseIbNS_6detail13FutureContextEE8setErrorENS_5ErrorE>:
    void setError(Error error) {
 23fddb8:	b5f0      	push	{r4, r5, r6, r7, lr}
 23fddba:	b089      	sub	sp, #36	; 0x24
        { __shared_ptr(__p, std::move(__d), std::move(__a)).swap(*this); }

      /// Return the stored pointer.
      element_type*
      get() const noexcept
      { return _M_ptr; }
 23fddbc:	6804      	ldr	r4, [r0, #0]
        p_->setError(std::move(error));
 23fddbe:	4668      	mov	r0, sp
 23fddc0:	f7ff ff2e 	bl	23fdc20 <_ZN8particle5ErrorC1EOS0_>

      bool
      compare_exchange_strong(_Tp& __e, _Tp __i, memory_order __s,
			      memory_order __f) noexcept
      {
	return __atomic_compare_exchange(std::__addressof(_M_i),
 23fddc4:	f04f 0302 	mov.w	r3, #2
 23fddc8:	e8d4 2f4f 	ldrexb	r2, [r4]
 23fddcc:	2a00      	cmp	r2, #0
 23fddce:	d103      	bne.n	23fddd8 <_ZN8particle11PromiseBaseIbNS_6detail13FutureContextEE8setErrorENS_5ErrorE+0x20>
 23fddd0:	e8c4 3f41 	strexb	r1, r3, [r4]
 23fddd4:	2900      	cmp	r1, #0
 23fddd6:	d1f7      	bne.n	23fddc8 <_ZN8particle11PromiseBaseIbNS_6detail13FutureContextEE8setErrorENS_5ErrorE+0x10>
        if (this->changeState(State::FAILED)) {
 23fddd8:	d121      	bne.n	23fde1e <_ZN8particle11PromiseBaseIbNS_6detail13FutureContextEE8setErrorENS_5ErrorE+0x66>
            new(&error_) Error(std::move(error));
 23fddda:	f104 050c 	add.w	r5, r4, #12
 23fddde:	4669      	mov	r1, sp
 23fdde0:	4628      	mov	r0, r5
 23fdde2:	f7ff ff1d 	bl	23fdc20 <_ZN8particle5ErrorC1EOS0_>
	__atomic_store_n(&_M_i, __i, int(__m));
 23fdde6:	2201      	movs	r2, #1
 23fdde8:	1c63      	adds	r3, r4, #1
 23fddea:	e8c3 2f8f 	stlb	r2, [r3]

      _GLIBCXX_ALWAYS_INLINE __pointer_type
      exchange(__pointer_type __p,
	       memory_order __m = memory_order_seq_cst) noexcept
      {
	return __atomic_exchange_n(&_M_p, __p, int(__m));
 23fddee:	2000      	movs	r0, #0
 23fddf0:	f104 0308 	add.w	r3, r4, #8
 23fddf4:	e8d3 6fef 	ldaex	r6, [r3]
 23fddf8:	e8c3 0fe2 	stlex	r2, r0, [r3]
 23fddfc:	2a00      	cmp	r2, #0
 23fddfe:	d1f9      	bne.n	23fddf4 <_ZN8particle11PromiseBaseIbNS_6detail13FutureContextEE8setErrorENS_5ErrorE+0x3c>
        if (callbackPtr) {
 23fde00:	b16e      	cbz	r6, 23fde1e <_ZN8particle11PromiseBaseIbNS_6detail13FutureContextEE8setErrorENS_5ErrorE+0x66>
        return (application_thread_current(nullptr) != 0);
 23fde02:	f7ff fcfd 	bl	23fd800 <application_thread_current>
        if (ContextT::isApplicationThreadCurrent()) {
 23fde06:	b178      	cbz	r0, 23fde28 <_ZN8particle11PromiseBaseIbNS_6detail13FutureContextEE8setErrorENS_5ErrorE+0x70>
            callback(std::forward<ArgsT>(args)...); // Synchronous call
 23fde08:	4629      	mov	r1, r5
 23fde0a:	4630      	mov	r0, r6
 23fde0c:	f7ff ff67 	bl	23fdcde <_ZNKSt8functionIFvRKN8particle5ErrorEEEclES3_>
    class function<_Res(_ArgTypes...)>
 23fde10:	4630      	mov	r0, r6
 23fde12:	f7ff fed4 	bl	23fdbbe <_ZNSt14_Function_baseD1Ev>
            delete callbackPtr;
 23fde16:	2110      	movs	r1, #16
 23fde18:	4630      	mov	r0, r6
 23fde1a:	f7fd fc6e 	bl	23fb6fa <_ZdlPvj>
        p_->setError(std::move(error));
 23fde1e:	4668      	mov	r0, sp
 23fde20:	f7ff ff0b 	bl	23fdc3a <_ZN8particle5ErrorD1Ev>
    }
 23fde24:	b009      	add	sp, #36	; 0x24
 23fde26:	bdf0      	pop	{r4, r5, r6, r7, pc}

     public:
      template<typename... _Args>
	explicit _GLIBCXX20_CONSTEXPR
	_Bind(const _Functor& __f, _Args&&... __args)
	: _M_f(__f), _M_bound_args(std::forward<_Args>(__args)...)
 23fde28:	4631      	mov	r1, r6
 23fde2a:	a802      	add	r0, sp, #8
 23fde2c:	f7ff ffb4 	bl	23fdd98 <_ZNSt8functionIFvRKN8particle5ErrorEEEC1ERKS5_>
        Error(error.type_, error.msg_) {
 23fde30:	68e0      	ldr	r0, [r4, #12]
 23fde32:	f9b4 5010 	ldrsh.w	r5, [r4, #16]
        msg_(msg ? (const char*)strdup(msg) : nullptr),
 23fde36:	b108      	cbz	r0, 23fde3c <_ZN8particle11PromiseBaseIbNS_6detail13FutureContextEE8setErrorENS_5ErrorE+0x84>
 23fde38:	f001 f920 	bl	23ff07c <strdup>
        type_(type) {
 23fde3c:	9006      	str	r0, [sp, #24]
            auto callbackPtr = new std::function<void()>(std::bind(callback, std::forward<ArgsT>(args)...));
 23fde3e:	2010      	movs	r0, #16
 23fde40:	f8ad 501c 	strh.w	r5, [sp, #28]
 23fde44:	f7fd fc55 	bl	23fb6f2 <_Znwj>
 23fde48:	4605      	mov	r5, r0
 23fde4a:	b1e8      	cbz	r0, 23fde88 <_ZN8particle11PromiseBaseIbNS_6detail13FutureContextEE8setErrorENS_5ErrorE+0xd0>
    _Function_base() : _M_manager(nullptr) { }
 23fde4c:	2700      	movs	r7, #0
 23fde4e:	6087      	str	r7, [r0, #8]
	{ __functor._M_access<_Functor*>() = new _Functor(std::move(__f)); }
 23fde50:	2018      	movs	r0, #24
 23fde52:	f7fd fc4e 	bl	23fb6f2 <_Znwj>
 23fde56:	4604      	mov	r4, r0
 23fde58:	b188      	cbz	r0, 23fde7e <_ZN8particle11PromiseBaseIbNS_6detail13FutureContextEE8setErrorENS_5ErrorE+0xc6>
	std::swap(_M_functor, __x._M_functor);
 23fde5a:	4601      	mov	r1, r0
    _Function_base() : _M_manager(nullptr) { }
 23fde5c:	6087      	str	r7, [r0, #8]
	std::swap(_M_functor, __x._M_functor);
 23fde5e:	a802      	add	r0, sp, #8
 23fde60:	f7ff feb6 	bl	23fdbd0 <_ZSt4swapISt9_Any_dataENSt9enable_ifIXsrSt6__and_IJSt6__not_ISt15__is_tuple_likeIT_EESt21is_move_constructibleIS5_ESt18is_move_assignableIS5_EEE5valueEvE4typeERS5_SF_>
      _Tp __tmp = _GLIBCXX_MOVE(__a);
 23fde64:	9b04      	ldr	r3, [sp, #16]
      __a = _GLIBCXX_MOVE(__b);
 23fde66:	68a2      	ldr	r2, [r4, #8]
      __b = _GLIBCXX_MOVE(__tmp);
 23fde68:	60a3      	str	r3, [r4, #8]
      _Tp __tmp = _GLIBCXX_MOVE(__a);
 23fde6a:	9b05      	ldr	r3, [sp, #20]
      __a = _GLIBCXX_MOVE(__b);
 23fde6c:	9204      	str	r2, [sp, #16]
 23fde6e:	68e2      	ldr	r2, [r4, #12]
      constexpr _Head_base(const _Head_base&) = default;
      constexpr _Head_base(_Head_base&&) = default;

      template<typename _UHead>
        constexpr _Head_base(_UHead&& __h)
	: _M_head_impl(std::forward<_UHead>(__h)) { }
 23fde70:	a906      	add	r1, sp, #24
      __b = _GLIBCXX_MOVE(__tmp);
 23fde72:	60e3      	str	r3, [r4, #12]
 23fde74:	f104 0010 	add.w	r0, r4, #16
      __a = _GLIBCXX_MOVE(__b);
 23fde78:	9205      	str	r2, [sp, #20]
 23fde7a:	f7ff fed1 	bl	23fdc20 <_ZN8particle5ErrorC1EOS0_>
	    _M_invoker = &_My_handler::_M_invoke;
 23fde7e:	4b08      	ldr	r3, [pc, #32]	; (23fdea0 <_ZN8particle11PromiseBaseIbNS_6detail13FutureContextEE8setErrorENS_5ErrorE+0xe8>)
	{ __functor._M_access<_Functor*>() = new _Functor(std::move(__f)); }
 23fde80:	602c      	str	r4, [r5, #0]
	    _M_invoker = &_My_handler::_M_invoke;
 23fde82:	60eb      	str	r3, [r5, #12]
	    _M_manager = &_My_handler::_M_manager;
 23fde84:	4b07      	ldr	r3, [pc, #28]	; (23fdea4 <_ZN8particle11PromiseBaseIbNS_6detail13FutureContextEE8setErrorENS_5ErrorE+0xec>)
 23fde86:	60ab      	str	r3, [r5, #8]
    struct _Head_base<_Idx, _Head, false>
 23fde88:	a806      	add	r0, sp, #24
 23fde8a:	f7ff fed6 	bl	23fdc3a <_ZN8particle5ErrorD1Ev>
    class function<_Res(_ArgTypes...)>
 23fde8e:	a802      	add	r0, sp, #8
 23fde90:	f7ff fe95 	bl	23fdbbe <_ZNSt14_Function_baseD1Ev>
        return (application_thread_invoke(callback, data, nullptr) == 0);
 23fde94:	2200      	movs	r2, #0
 23fde96:	4629      	mov	r1, r5
 23fde98:	4803      	ldr	r0, [pc, #12]	; (23fdea8 <_ZN8particle11PromiseBaseIbNS_6detail13FutureContextEE8setErrorENS_5ErrorE+0xf0>)
 23fde9a:	f7ff fcbf 	bl	23fd81c <application_thread_invoke>
 23fde9e:	e7b7      	b.n	23fde10 <_ZN8particle11PromiseBaseIbNS_6detail13FutureContextEE8setErrorENS_5ErrorE+0x58>
 23fdea0:	023fdcf1 	.word	0x023fdcf1
 23fdea4:	023fdf85 	.word	0x023fdf85
 23fdea8:	023fdb97 	.word	0x023fdb97

023fdeac <_ZN10CloudClass13publish_eventEPKcS1_jiiN8particle5FlagsI15PublishFlagTypehEE>:
    desc.funcKey = funcKey;
    return spark_function(NULL, (user_function_int_str_t*)&desc, NULL);
}

Future<bool> CloudClass::publish_event(const char* name, const char* data, size_t size, int type, int ttl,
        PublishFlags flags) {
 23fdeac:	e92d 43f0 	stmdb	sp!, {r4, r5, r6, r7, r8, r9, lr}
 23fdeb0:	b08d      	sub	sp, #52	; 0x34
 23fdeb2:	4604      	mov	r4, r0
 23fdeb4:	460e      	mov	r6, r1
 23fdeb6:	4617      	mov	r7, r2
 23fdeb8:	4699      	mov	r9, r3
 23fdeba:	f89d 8058 	ldrb.w	r8, [sp, #88]	; 0x58
    static void sleep(Spark_Sleep_TypeDef sleepMode, long seconds=0) __attribute__ ((deprecated("Please use System.sleep() instead.")))
    { SystemClass::sleep(sleepMode, seconds); }
    static void sleep(uint16_t wakeUpPin, InterruptMode edgeTriggerMode, long seconds=0) __attribute__ ((deprecated("Please use System.sleep() instead.")))
    { SystemClass::sleep(wakeUpPin, edgeTriggerMode, seconds); }

    static bool connected(void) { return spark_cloud_flag_connected(); }
 23fdebe:	f7ff fce5 	bl	23fd88c <spark_cloud_flag_connected>
    if (!connected()) {
 23fdec2:	b940      	cbnz	r0, 23fded6 <_ZN10CloudClass13publish_eventEPKcS1_jiiN8particle5FlagsI15PublishFlagTypehEE+0x2a>
};

template<typename ResultT, typename ContextT = detail::FutureContext>
class Future: public FutureBase<ResultT, ContextT> {
public:
    using FutureBase<ResultT, ContextT>::FutureBase;
 23fdec4:	f06f 01d1 	mvn.w	r1, #209	; 0xd1
 23fdec8:	4620      	mov	r0, r4
 23fdeca:	f7ff ff3d 	bl	23fdd48 <_ZN8particle10FutureBaseIbNS_6detail13FutureContextEEC1ENS_5Error4TypeE>
        p.setError(Error::UNKNOWN);
        p.fromDataPtr(d.handler_data); // Free wrapper object
    }

    return p.future();
}
 23fdece:	4620      	mov	r0, r4
 23fded0:	b00d      	add	sp, #52	; 0x34
 23fded2:	e8bd 83f0 	ldmia.w	sp!, {r4, r5, r6, r7, r8, r9, pc}
    d.size = sizeof(spark_send_event_data);
 23fded6:	2014      	movs	r0, #20
    spark_send_event_data d = {};
 23fded8:	2500      	movs	r5, #0
    d.content_type = static_cast<int>(type);
 23fdeda:	9b14      	ldr	r3, [sp, #80]	; 0x50
    spark_send_event_data d = {};
 23fdedc:	e9cd 5508 	strd	r5, r5, [sp, #32]
    d.size = sizeof(spark_send_event_data);
 23fdee0:	9007      	str	r0, [sp, #28]
    d.data_size = size;
 23fdee2:	f8cd 9028 	str.w	r9, [sp, #40]	; 0x28
    d.content_type = static_cast<int>(type);
 23fdee6:	930b      	str	r3, [sp, #44]	; 0x2c
            p_(new detail::FutureImpl<ResultT, ContextT>(State::RUNNING)) {
 23fdee8:	f7fd fc03 	bl	23fb6f2 <_Znwj>
 23fdeec:	4601      	mov	r1, r0
 23fdeee:	b118      	cbz	r0, 23fdef8 <_ZN10CloudClass13publish_eventEPKcS1_jiiN8particle5FlagsI15PublishFlagTypehEE+0x4c>
      constexpr __atomic_base(__pointer_type __p) noexcept : _M_p (__p) { }
 23fdef0:	e9c0 5501 	strd	r5, r5, [r0, #4]
      constexpr atomic(_Tp __i) noexcept : _M_i(__i) { }
 23fdef4:	7005      	strb	r5, [r0, #0]
      constexpr __atomic_base(__int_type __i) noexcept : _M_i (__i) { }
 23fdef6:	7045      	strb	r5, [r0, #1]
	: __shared_count(__p)
 23fdef8:	a804      	add	r0, sp, #16
	: _M_ptr(__p), _M_refcount(__p, typename is_array<_Tp>::type())
 23fdefa:	9103      	str	r1, [sp, #12]
	: __shared_count(__p)
 23fdefc:	f7ff ff10 	bl	23fdd20 <_ZNSt14__shared_countILN9__gnu_cxx12_Lock_policyE0EEC1IPN8particle6detail10FutureImplIbNS5_13FutureContextEEEEET_>
    d.handler_callback = publishCompletionCallback;
 23fdf00:	4b1f      	ldr	r3, [pc, #124]	; (23fdf80 <_ZN10CloudClass13publish_eventEPKcS1_jiiN8particle5FlagsI15PublishFlagTypehEE+0xd4>)
        return new detail::FutureImplPtr<ResultT, ContextT>(p_);
 23fdf02:	2008      	movs	r0, #8
 23fdf04:	9308      	str	r3, [sp, #32]
 23fdf06:	f7fd fbf4 	bl	23fb6f2 <_Znwj>
 23fdf0a:	4605      	mov	r5, r0
 23fdf0c:	b110      	cbz	r0, 23fdf14 <_ZN10CloudClass13publish_eventEPKcS1_jiiN8particle5FlagsI15PublishFlagTypehEE+0x68>
 23fdf0e:	a903      	add	r1, sp, #12
 23fdf10:	f7ff fec1 	bl	23fdc96 <_ZNSt12__shared_ptrIN8particle6detail10FutureImplIbNS1_13FutureContextEEELN9__gnu_cxx12_Lock_policyE0EEC1ERKS7_>
    if (!spark_send_event(name, data, ttl, flags.value(), &d) && !p.isDone()) {
 23fdf14:	ab07      	add	r3, sp, #28
 23fdf16:	9300      	str	r3, [sp, #0]
 23fdf18:	4639      	mov	r1, r7
 23fdf1a:	4630      	mov	r0, r6
 23fdf1c:	9a15      	ldr	r2, [sp, #84]	; 0x54
 23fdf1e:	fa5f f388 	uxtb.w	r3, r8
    d.handler_data = p.dataPtr();
 23fdf22:	9509      	str	r5, [sp, #36]	; 0x24
    if (!spark_send_event(name, data, ttl, flags.value(), &d) && !p.isDone()) {
 23fdf24:	f7ff fcc0 	bl	23fd8a8 <spark_send_event>
 23fdf28:	b9b8      	cbnz	r0, 23fdf5a <_ZN10CloudClass13publish_eventEPKcS1_jiiN8particle5FlagsI15PublishFlagTypehEE+0xae>
	return __atomic_load_n(&_M_i, int(__m));
 23fdf2a:	9b03      	ldr	r3, [sp, #12]
 23fdf2c:	3301      	adds	r3, #1
 23fdf2e:	781b      	ldrb	r3, [r3, #0]
 23fdf30:	b2db      	uxtb	r3, r3
 23fdf32:	b993      	cbnz	r3, 23fdf5a <_ZN10CloudClass13publish_eventEPKcS1_jiiN8particle5FlagsI15PublishFlagTypehEE+0xae>
        type_(type) {
 23fdf34:	9305      	str	r3, [sp, #20]
 23fdf36:	f64f 739c 	movw	r3, #65436	; 0xff9c
        p.setError(Error::UNKNOWN);
 23fdf3a:	a905      	add	r1, sp, #20
 23fdf3c:	a803      	add	r0, sp, #12
 23fdf3e:	f8ad 3018 	strh.w	r3, [sp, #24]
 23fdf42:	f7ff ff39 	bl	23fddb8 <_ZN8particle11PromiseBaseIbNS_6detail13FutureContextEE8setErrorENS_5ErrorE>
 23fdf46:	a805      	add	r0, sp, #20
 23fdf48:	f7ff fe77 	bl	23fdc3a <_ZN8particle5ErrorD1Ev>
        p.fromDataPtr(d.handler_data); // Free wrapper object
 23fdf4c:	a805      	add	r0, sp, #20
 23fdf4e:	9909      	ldr	r1, [sp, #36]	; 0x24
 23fdf50:	f7ff feaa 	bl	23fdca8 <_ZN8particle11PromiseBaseIbNS_6detail13FutureContextEE11fromDataPtrEPv>
      ~__shared_ptr() = default;
 23fdf54:	a806      	add	r0, sp, #24
 23fdf56:	f7ff fe08 	bl	23fdb6a <_ZNSt14__shared_countILN9__gnu_cxx12_Lock_policyE0EED1Ev>
 23fdf5a:	a903      	add	r1, sp, #12
 23fdf5c:	a805      	add	r0, sp, #20
 23fdf5e:	f7ff fe9a 	bl	23fdc96 <_ZNSt12__shared_ptrIN8particle6detail10FutureImplIbNS1_13FutureContextEEELN9__gnu_cxx12_Lock_policyE0EEC1ERKS7_>
      : _M_ptr(__r._M_ptr), _M_refcount()
 23fdf62:	9b05      	ldr	r3, [sp, #20]
	_Sp_counted_base<_Lp>* __tmp = __r._M_pi;
 23fdf64:	9a06      	ldr	r2, [sp, #24]
      : _M_ptr(__r._M_ptr), _M_refcount()
 23fdf66:	6023      	str	r3, [r4, #0]
	__r._M_pi = _M_pi;
 23fdf68:	2300      	movs	r3, #0
	_M_pi = __tmp;
 23fdf6a:	6062      	str	r2, [r4, #4]
      ~__shared_ptr() = default;
 23fdf6c:	a806      	add	r0, sp, #24
	__r._M_pi = _M_pi;
 23fdf6e:	9306      	str	r3, [sp, #24]
	__r._M_ptr = 0;
 23fdf70:	9305      	str	r3, [sp, #20]
      ~__shared_ptr() = default;
 23fdf72:	f7ff fdfa 	bl	23fdb6a <_ZNSt14__shared_countILN9__gnu_cxx12_Lock_policyE0EED1Ev>
 23fdf76:	a804      	add	r0, sp, #16
 23fdf78:	f7ff fdf7 	bl	23fdb6a <_ZNSt14__shared_countILN9__gnu_cxx12_Lock_policyE0EED1Ev>
class Promise: public PromiseBase<ResultT, ContextT> {
 23fdf7c:	e7a7      	b.n	23fdece <_ZN10CloudClass13publish_eventEPKcS1_jiiN8particle5FlagsI15PublishFlagTypehEE+0x22>
 23fdf7e:	bf00      	nop
 23fdf80:	023fe049 	.word	0x023fe049

023fdf84 <_ZNSt17_Function_handlerIFvvESt5_BindIFSt8functionIFvRKN8particle5ErrorEEES4_EEE10_M_managerERSt9_Any_dataRKSC_St18_Manager_operation>:
	switch (__op)
 23fdf84:	2a01      	cmp	r2, #1
      _M_manager(_Any_data& __dest, const _Any_data& __source,
 23fdf86:	b5f8      	push	{r3, r4, r5, r6, r7, lr}
 23fdf88:	4605      	mov	r5, r0
	switch (__op)
 23fdf8a:	d103      	bne.n	23fdf94 <_ZNSt17_Function_handlerIFvvESt5_BindIFSt8functionIFvRKN8particle5ErrorEEES4_EEE10_M_managerERSt9_Any_dataRKSC_St18_Manager_operation+0x10>
	    return __source._M_access<_Functor*>();
 23fdf8c:	680b      	ldr	r3, [r1, #0]
	    __dest._M_access<_Functor*>() = _Base::_M_get_pointer(__source);
 23fdf8e:	6003      	str	r3, [r0, #0]
      }
 23fdf90:	2000      	movs	r0, #0
 23fdf92:	bdf8      	pop	{r3, r4, r5, r6, r7, pc}
	  switch (__op)
 23fdf94:	2a02      	cmp	r2, #2
 23fdf96:	d010      	beq.n	23fdfba <_ZNSt17_Function_handlerIFvvESt5_BindIFSt8functionIFvRKN8particle5ErrorEEES4_EEE10_M_managerERSt9_Any_dataRKSC_St18_Manager_operation+0x36>
 23fdf98:	2a03      	cmp	r2, #3
 23fdf9a:	d1f9      	bne.n	23fdf90 <_ZNSt17_Function_handlerIFvvESt5_BindIFSt8functionIFvRKN8particle5ErrorEEES4_EEE10_M_managerERSt9_Any_dataRKSC_St18_Manager_operation+0xc>
	  delete __victim._M_access<_Functor*>();
 23fdf9c:	6804      	ldr	r4, [r0, #0]
 23fdf9e:	2c00      	cmp	r4, #0
 23fdfa0:	d0f6      	beq.n	23fdf90 <_ZNSt17_Function_handlerIFvvESt5_BindIFSt8functionIFvRKN8particle5ErrorEEES4_EEE10_M_managerERSt9_Any_dataRKSC_St18_Manager_operation+0xc>
 23fdfa2:	f104 0010 	add.w	r0, r4, #16
 23fdfa6:	f7ff fe48 	bl	23fdc3a <_ZN8particle5ErrorD1Ev>
    class function<_Res(_ArgTypes...)>
 23fdfaa:	4620      	mov	r0, r4
 23fdfac:	f7ff fe07 	bl	23fdbbe <_ZNSt14_Function_baseD1Ev>
	  delete __victim._M_access<_Functor*>();
 23fdfb0:	2118      	movs	r1, #24
 23fdfb2:	4620      	mov	r0, r4
 23fdfb4:	f7fd fba1 	bl	23fb6fa <_ZdlPvj>
 23fdfb8:	e7ea      	b.n	23fdf90 <_ZNSt17_Function_handlerIFvvESt5_BindIFSt8functionIFvRKN8particle5ErrorEEES4_EEE10_M_managerERSt9_Any_dataRKSC_St18_Manager_operation+0xc>
	    new _Functor(*__source._M_access<const _Functor*>());
 23fdfba:	2018      	movs	r0, #24
	  __dest._M_access<_Functor*>() =
 23fdfbc:	680e      	ldr	r6, [r1, #0]
	    new _Functor(*__source._M_access<const _Functor*>());
 23fdfbe:	f7fd fb98 	bl	23fb6f2 <_Znwj>
 23fdfc2:	4604      	mov	r4, r0
 23fdfc4:	b150      	cbz	r0, 23fdfdc <_ZNSt17_Function_handlerIFvvESt5_BindIFSt8functionIFvRKN8particle5ErrorEEES4_EEE10_M_managerERSt9_Any_dataRKSC_St18_Manager_operation+0x58>
	explicit _GLIBCXX20_CONSTEXPR
	_Bind(_Functor&& __f, _Args&&... __args)
	: _M_f(std::move(__f)), _M_bound_args(std::forward<_Args>(__args)...)
	{ }

      _Bind(const _Bind&) = default;
 23fdfc6:	4631      	mov	r1, r6
 23fdfc8:	f7ff fee6 	bl	23fdd98 <_ZNSt8functionIFvRKN8particle5ErrorEEEC1ERKS5_>
        Error(error.type_, error.msg_) {
 23fdfcc:	6930      	ldr	r0, [r6, #16]
 23fdfce:	f9b6 7014 	ldrsh.w	r7, [r6, #20]
        msg_(msg ? (const char*)strdup(msg) : nullptr),
 23fdfd2:	b108      	cbz	r0, 23fdfd8 <_ZNSt17_Function_handlerIFvvESt5_BindIFSt8functionIFvRKN8particle5ErrorEEES4_EEE10_M_managerERSt9_Any_dataRKSC_St18_Manager_operation+0x54>
 23fdfd4:	f001 f852 	bl	23ff07c <strdup>
        type_(type) {
 23fdfd8:	6120      	str	r0, [r4, #16]
 23fdfda:	82a7      	strh	r7, [r4, #20]
	  __dest._M_access<_Functor*>() =
 23fdfdc:	602c      	str	r4, [r5, #0]
	}
 23fdfde:	e7d7      	b.n	23fdf90 <_ZNSt17_Function_handlerIFvvESt5_BindIFSt8functionIFvRKN8particle5ErrorEEES4_EEE10_M_managerERSt9_Any_dataRKSC_St18_Manager_operation+0xc>

023fdfe0 <_ZNSt8functionIFvRKbEEC1ERKS3_>:
    function<_Res(_ArgTypes...)>::
 23fdfe0:	b538      	push	{r3, r4, r5, lr}
    _Function_base() : _M_manager(nullptr) { }
 23fdfe2:	2300      	movs	r3, #0
 23fdfe4:	6083      	str	r3, [r0, #8]
    bool _M_empty() const { return !_M_manager; }
 23fdfe6:	688b      	ldr	r3, [r1, #8]
    function<_Res(_ArgTypes...)>::
 23fdfe8:	4604      	mov	r4, r0
 23fdfea:	460d      	mov	r5, r1
      if (static_cast<bool>(__x))
 23fdfec:	b12b      	cbz	r3, 23fdffa <_ZNSt8functionIFvRKbEEC1ERKS3_+0x1a>
	  __x._M_manager(_M_functor, __x._M_functor, __clone_functor);
 23fdfee:	2202      	movs	r2, #2
 23fdff0:	4798      	blx	r3
	  _M_invoker = __x._M_invoker;
 23fdff2:	68eb      	ldr	r3, [r5, #12]
 23fdff4:	60e3      	str	r3, [r4, #12]
	  _M_manager = __x._M_manager;
 23fdff6:	68ab      	ldr	r3, [r5, #8]
 23fdff8:	60a3      	str	r3, [r4, #8]
    }
 23fdffa:	4620      	mov	r0, r4
 23fdffc:	bd38      	pop	{r3, r4, r5, pc}

023fdffe <_ZNSt17_Function_handlerIFvvESt5_BindIFSt8functionIFvRKbEEbEEE10_M_managerERSt9_Any_dataRKSA_St18_Manager_operation>:
	switch (__op)
 23fdffe:	2a01      	cmp	r2, #1
      _M_manager(_Any_data& __dest, const _Any_data& __source,
 23fe000:	b570      	push	{r4, r5, r6, lr}
 23fe002:	4604      	mov	r4, r0
	switch (__op)
 23fe004:	d103      	bne.n	23fe00e <_ZNSt17_Function_handlerIFvvESt5_BindIFSt8functionIFvRKbEEbEEE10_M_managerERSt9_Any_dataRKSA_St18_Manager_operation+0x10>
	    return __source._M_access<_Functor*>();
 23fe006:	680b      	ldr	r3, [r1, #0]
	    __dest._M_access<_Functor*>() = _Base::_M_get_pointer(__source);
 23fe008:	6003      	str	r3, [r0, #0]
      }
 23fe00a:	2000      	movs	r0, #0
 23fe00c:	bd70      	pop	{r4, r5, r6, pc}
	  switch (__op)
 23fe00e:	2a02      	cmp	r2, #2
 23fe010:	d00c      	beq.n	23fe02c <_ZNSt17_Function_handlerIFvvESt5_BindIFSt8functionIFvRKbEEbEEE10_M_managerERSt9_Any_dataRKSA_St18_Manager_operation+0x2e>
 23fe012:	2a03      	cmp	r2, #3
 23fe014:	d1f9      	bne.n	23fe00a <_ZNSt17_Function_handlerIFvvESt5_BindIFSt8functionIFvRKbEEbEEE10_M_managerERSt9_Any_dataRKSA_St18_Manager_operation+0xc>
	  delete __victim._M_access<_Functor*>();
 23fe016:	6804      	ldr	r4, [r0, #0]
 23fe018:	2c00      	cmp	r4, #0
 23fe01a:	d0f6      	beq.n	23fe00a <_ZNSt17_Function_handlerIFvvESt5_BindIFSt8functionIFvRKbEEbEEE10_M_managerERSt9_Any_dataRKSA_St18_Manager_operation+0xc>
    class function<_Res(_ArgTypes...)>
 23fe01c:	4620      	mov	r0, r4
 23fe01e:	f7ff fdce 	bl	23fdbbe <_ZNSt14_Function_baseD1Ev>
	  delete __victim._M_access<_Functor*>();
 23fe022:	2114      	movs	r1, #20
 23fe024:	4620      	mov	r0, r4
 23fe026:	f7fd fb68 	bl	23fb6fa <_ZdlPvj>
 23fe02a:	e7ee      	b.n	23fe00a <_ZNSt17_Function_handlerIFvvESt5_BindIFSt8functionIFvRKbEEbEEE10_M_managerERSt9_Any_dataRKSA_St18_Manager_operation+0xc>
	    new _Functor(*__source._M_access<const _Functor*>());
 23fe02c:	2014      	movs	r0, #20
	  __dest._M_access<_Functor*>() =
 23fe02e:	680e      	ldr	r6, [r1, #0]
	    new _Functor(*__source._M_access<const _Functor*>());
 23fe030:	f7fd fb5f 	bl	23fb6f2 <_Znwj>
 23fe034:	4605      	mov	r5, r0
 23fe036:	b120      	cbz	r0, 23fe042 <_ZNSt17_Function_handlerIFvvESt5_BindIFSt8functionIFvRKbEEbEEE10_M_managerERSt9_Any_dataRKSA_St18_Manager_operation+0x44>
 23fe038:	4631      	mov	r1, r6
 23fe03a:	f7ff ffd1 	bl	23fdfe0 <_ZNSt8functionIFvRKbEEC1ERKS3_>
 23fe03e:	7c33      	ldrb	r3, [r6, #16]
 23fe040:	742b      	strb	r3, [r5, #16]
	  __dest._M_access<_Functor*>() =
 23fe042:	6025      	str	r5, [r4, #0]
	}
 23fe044:	e7e1      	b.n	23fe00a <_ZNSt17_Function_handlerIFvvESt5_BindIFSt8functionIFvRKbEEbEEE10_M_managerERSt9_Any_dataRKSA_St18_Manager_operation+0xc>
	...

023fe048 <_ZN12_GLOBAL__N_125publishCompletionCallbackEiPKvPvS2_>:
void publishCompletionCallback(int error, const void* data, void* callbackData, void* reserved) {
 23fe048:	b5f0      	push	{r4, r5, r6, r7, lr}
 23fe04a:	4604      	mov	r4, r0
 23fe04c:	b089      	sub	sp, #36	; 0x24
 23fe04e:	460d      	mov	r5, r1
    auto p = Promise<bool>::fromDataPtr(callbackData);
 23fe050:	a801      	add	r0, sp, #4
 23fe052:	4611      	mov	r1, r2
 23fe054:	f7ff fe28 	bl	23fdca8 <_ZN8particle11PromiseBaseIbNS_6detail13FutureContextEE11fromDataPtrEPv>
    if (error != Error::NONE) {
 23fe058:	b1a4      	cbz	r4, 23fe084 <_ZN12_GLOBAL__N_125publishCompletionCallbackEiPKvPvS2_+0x3c>
        p.setError(Error((Error::Type)error, (const char*)data));
 23fe05a:	b224      	sxth	r4, r4
        msg_(msg ? (const char*)strdup(msg) : nullptr),
 23fe05c:	b11d      	cbz	r5, 23fe066 <_ZN12_GLOBAL__N_125publishCompletionCallbackEiPKvPvS2_+0x1e>
 23fe05e:	4628      	mov	r0, r5
 23fe060:	f001 f80c 	bl	23ff07c <strdup>
 23fe064:	4605      	mov	r5, r0
 23fe066:	a801      	add	r0, sp, #4
 23fe068:	a903      	add	r1, sp, #12
        type_(type) {
 23fe06a:	9503      	str	r5, [sp, #12]
 23fe06c:	f8ad 4010 	strh.w	r4, [sp, #16]
 23fe070:	f7ff fea2 	bl	23fddb8 <_ZN8particle11PromiseBaseIbNS_6detail13FutureContextEE8setErrorENS_5ErrorE>
 23fe074:	a803      	add	r0, sp, #12
 23fe076:	f7ff fde0 	bl	23fdc3a <_ZN8particle5ErrorD1Ev>
 23fe07a:	a802      	add	r0, sp, #8
 23fe07c:	f7ff fd75 	bl	23fdb6a <_ZNSt14__shared_countILN9__gnu_cxx12_Lock_policyE0EED1Ev>
}
 23fe080:	b009      	add	sp, #36	; 0x24
 23fe082:	bdf0      	pop	{r4, r5, r6, r7, pc}
	return __atomic_compare_exchange(std::__addressof(_M_i),
 23fe084:	2301      	movs	r3, #1
      { return _M_ptr; }
 23fe086:	9d01      	ldr	r5, [sp, #4]
 23fe088:	e8d5 2f4f 	ldrexb	r2, [r5]
 23fe08c:	2a00      	cmp	r2, #0
 23fe08e:	d103      	bne.n	23fe098 <_ZN12_GLOBAL__N_125publishCompletionCallbackEiPKvPvS2_+0x50>
 23fe090:	e8c5 3f41 	strexb	r1, r3, [r5]
 23fe094:	2900      	cmp	r1, #0
 23fe096:	d1f7      	bne.n	23fe088 <_ZN12_GLOBAL__N_125publishCompletionCallbackEiPKvPvS2_+0x40>
        if (this->changeState(State::SUCCEEDED)) {
 23fe098:	d1ef      	bne.n	23fe07a <_ZN12_GLOBAL__N_125publishCompletionCallbackEiPKvPvS2_+0x32>
            new(&result_) ResultT(std::move(result));
 23fe09a:	732b      	strb	r3, [r5, #12]
	__atomic_store_n(&_M_i, __i, int(__m));
 23fe09c:	2201      	movs	r2, #1
 23fe09e:	18eb      	adds	r3, r5, r3
 23fe0a0:	e8c3 2f8f 	stlb	r2, [r3]
	return __atomic_exchange_n(&_M_p, __p, int(__m));
 23fe0a4:	1d2b      	adds	r3, r5, #4
 23fe0a6:	e8d3 6fef 	ldaex	r6, [r3]
 23fe0aa:	e8c3 4fe2 	stlex	r2, r4, [r3]
 23fe0ae:	2a00      	cmp	r2, #0
 23fe0b0:	d1f9      	bne.n	23fe0a6 <_ZN12_GLOBAL__N_125publishCompletionCallbackEiPKvPvS2_+0x5e>
        if (callbackPtr) {
 23fe0b2:	2e00      	cmp	r6, #0
 23fe0b4:	d0e1      	beq.n	23fe07a <_ZN12_GLOBAL__N_125publishCompletionCallbackEiPKvPvS2_+0x32>
        return (application_thread_current(nullptr) != 0);
 23fe0b6:	4620      	mov	r0, r4
 23fe0b8:	f7ff fba2 	bl	23fd800 <application_thread_current>
        if (ContextT::isApplicationThreadCurrent()) {
 23fe0bc:	4607      	mov	r7, r0
 23fe0be:	b160      	cbz	r0, 23fe0da <_ZN12_GLOBAL__N_125publishCompletionCallbackEiPKvPvS2_+0x92>
            callback(std::forward<ArgsT>(args)...); // Synchronous call
 23fe0c0:	4630      	mov	r0, r6
 23fe0c2:	f105 010c 	add.w	r1, r5, #12
 23fe0c6:	f7ff fe1a 	bl	23fdcfe <_ZNKSt8functionIFvRKbEEclES1_>
    class function<_Res(_ArgTypes...)>
 23fe0ca:	4630      	mov	r0, r6
 23fe0cc:	f7ff fd77 	bl	23fdbbe <_ZNSt14_Function_baseD1Ev>
            delete callbackPtr;
 23fe0d0:	2110      	movs	r1, #16
 23fe0d2:	4630      	mov	r0, r6
 23fe0d4:	f7fd fb11 	bl	23fb6fa <_ZdlPvj>
 23fe0d8:	e7cf      	b.n	23fe07a <_ZN12_GLOBAL__N_125publishCompletionCallbackEiPKvPvS2_+0x32>
	: _M_f(__f), _M_bound_args(std::forward<_Args>(__args)...)
 23fe0da:	4631      	mov	r1, r6
 23fe0dc:	a803      	add	r0, sp, #12
 23fe0de:	f7ff ff7f 	bl	23fdfe0 <_ZNSt8functionIFvRKbEEC1ERKS3_>
	: _M_head_impl(std::forward<_UHead>(__h)) { }
 23fe0e2:	7b2b      	ldrb	r3, [r5, #12]
            auto callbackPtr = new std::function<void()>(std::bind(callback, std::forward<ArgsT>(args)...));
 23fe0e4:	2010      	movs	r0, #16
 23fe0e6:	f88d 301c 	strb.w	r3, [sp, #28]
 23fe0ea:	f7fd fb02 	bl	23fb6f2 <_Znwj>
 23fe0ee:	4605      	mov	r5, r0
 23fe0f0:	b1d0      	cbz	r0, 23fe128 <_ZN12_GLOBAL__N_125publishCompletionCallbackEiPKvPvS2_+0xe0>
    _Function_base() : _M_manager(nullptr) { }
 23fe0f2:	6087      	str	r7, [r0, #8]
	{ __functor._M_access<_Functor*>() = new _Functor(std::move(__f)); }
 23fe0f4:	2014      	movs	r0, #20
 23fe0f6:	f7fd fafc 	bl	23fb6f2 <_Znwj>
 23fe0fa:	4604      	mov	r4, r0
 23fe0fc:	b178      	cbz	r0, 23fe11e <_ZN12_GLOBAL__N_125publishCompletionCallbackEiPKvPvS2_+0xd6>
	std::swap(_M_functor, __x._M_functor);
 23fe0fe:	4601      	mov	r1, r0
    _Function_base() : _M_manager(nullptr) { }
 23fe100:	6087      	str	r7, [r0, #8]
	std::swap(_M_functor, __x._M_functor);
 23fe102:	a803      	add	r0, sp, #12
 23fe104:	f7ff fd64 	bl	23fdbd0 <_ZSt4swapISt9_Any_dataENSt9enable_ifIXsrSt6__and_IJSt6__not_ISt15__is_tuple_likeIT_EESt21is_move_constructibleIS5_ESt18is_move_assignableIS5_EEE5valueEvE4typeERS5_SF_>
      _Tp __tmp = _GLIBCXX_MOVE(__a);
 23fe108:	9b05      	ldr	r3, [sp, #20]
      __a = _GLIBCXX_MOVE(__b);
 23fe10a:	68a2      	ldr	r2, [r4, #8]
      __b = _GLIBCXX_MOVE(__tmp);
 23fe10c:	60a3      	str	r3, [r4, #8]
      _Tp __tmp = _GLIBCXX_MOVE(__a);
 23fe10e:	9b06      	ldr	r3, [sp, #24]
      __a = _GLIBCXX_MOVE(__b);
 23fe110:	9205      	str	r2, [sp, #20]
 23fe112:	68e2      	ldr	r2, [r4, #12]
      __b = _GLIBCXX_MOVE(__tmp);
 23fe114:	60e3      	str	r3, [r4, #12]
 23fe116:	f89d 301c 	ldrb.w	r3, [sp, #28]
      __a = _GLIBCXX_MOVE(__b);
 23fe11a:	9206      	str	r2, [sp, #24]
 23fe11c:	7423      	strb	r3, [r4, #16]
	    _M_invoker = &_My_handler::_M_invoke;
 23fe11e:	4b07      	ldr	r3, [pc, #28]	; (23fe13c <_ZN12_GLOBAL__N_125publishCompletionCallbackEiPKvPvS2_+0xf4>)
	{ __functor._M_access<_Functor*>() = new _Functor(std::move(__f)); }
 23fe120:	602c      	str	r4, [r5, #0]
	    _M_invoker = &_My_handler::_M_invoke;
 23fe122:	60eb      	str	r3, [r5, #12]
	    _M_manager = &_My_handler::_M_manager;
 23fe124:	4b06      	ldr	r3, [pc, #24]	; (23fe140 <_ZN12_GLOBAL__N_125publishCompletionCallbackEiPKvPvS2_+0xf8>)
 23fe126:	60ab      	str	r3, [r5, #8]
    class function<_Res(_ArgTypes...)>
 23fe128:	a803      	add	r0, sp, #12
 23fe12a:	f7ff fd48 	bl	23fdbbe <_ZNSt14_Function_baseD1Ev>
        return (application_thread_invoke(callback, data, nullptr) == 0);
 23fe12e:	2200      	movs	r2, #0
 23fe130:	4629      	mov	r1, r5
 23fe132:	4804      	ldr	r0, [pc, #16]	; (23fe144 <_ZN12_GLOBAL__N_125publishCompletionCallbackEiPKvPvS2_+0xfc>)
 23fe134:	f7ff fb72 	bl	23fd81c <application_thread_invoke>
 23fe138:	e7c7      	b.n	23fe0ca <_ZN12_GLOBAL__N_125publishCompletionCallbackEiPKvPvS2_+0x82>
 23fe13a:	bf00      	nop
 23fe13c:	023fdd11 	.word	0x023fdd11
 23fe140:	023fdfff 	.word	0x023fdfff
 23fe144:	023fdb97 	.word	0x023fdb97

023fe148 <_GLOBAL__sub_I__ZN8particle10CloudEvent15s_subscriptionsE>:
// spark::Vector
template<typename T, typename AllocatorT>
inline spark::Vector<T, AllocatorT>::Vector() :
        data_(nullptr),
        size_(0),
        capacity_(0) {
 23fe148:	2200      	movs	r2, #0
 23fe14a:	4b02      	ldr	r3, [pc, #8]	; (23fe154 <_GLOBAL__sub_I__ZN8particle10CloudEvent15s_subscriptionsE+0xc>)
 23fe14c:	e9c3 2200 	strd	r2, r2, [r3]
 23fe150:	609a      	str	r2, [r3, #8]
        // Keep the reference around until the application callback is called
        d.unwrap();
    }
}

} // namespace particle
 23fe152:	4770      	bx	lr
 23fe154:	1007af18 	.word	0x1007af18

023fe158 <_ZN5spark13EthernetClass9listeningEv>:
    uint16_t getListenTimeout(void) {
        return network_get_listen_timeout(*this, 0, NULL);
    }

    bool listening(void) {
        return network_listening(*this, 0, NULL);
 23fe158:	2200      	movs	r2, #0
 23fe15a:	6840      	ldr	r0, [r0, #4]
 23fe15c:	4611      	mov	r1, r2
 23fe15e:	f7ff bc21 	b.w	23fd9a4 <network_listening>

023fe162 <_ZN5spark13EthernetClass16getListenTimeoutEv>:
        return network_get_listen_timeout(*this, 0, NULL);
 23fe162:	2200      	movs	r2, #0
 23fe164:	6840      	ldr	r0, [r0, #4]
 23fe166:	4611      	mov	r1, r2
 23fe168:	f7ff bc38 	b.w	23fd9dc <network_get_listen_timeout>

023fe16c <_ZN5spark13EthernetClass16setListenTimeoutEt>:
        network_set_listen_timeout(*this, timeout, NULL);
 23fe16c:	2200      	movs	r2, #0
 23fe16e:	6840      	ldr	r0, [r0, #4]
 23fe170:	f7ff bc26 	b.w	23fd9c0 <network_set_listen_timeout>

023fe174 <_ZN5spark13EthernetClass6listenEb>:
        network_listen(*this, begin ? 0 : 1, NULL);
 23fe174:	2200      	movs	r2, #0
 23fe176:	6840      	ldr	r0, [r0, #4]
 23fe178:	f081 0101 	eor.w	r1, r1, #1
 23fe17c:	f7ff bc04 	b.w	23fd988 <network_listen>

023fe180 <_ZN5spark13EthernetClass3offEv>:
        network_off(*this, 0, 0, NULL);
 23fe180:	2300      	movs	r3, #0
 23fe182:	6840      	ldr	r0, [r0, #4]
 23fe184:	461a      	mov	r2, r3
 23fe186:	4619      	mov	r1, r3
 23fe188:	f7ff bbf0 	b.w	23fd96c <network_off>

023fe18c <_ZN5spark13EthernetClass2onEv>:
        network_on(*this, 0, 0, NULL);
 23fe18c:	2300      	movs	r3, #0
 23fe18e:	6840      	ldr	r0, [r0, #4]
 23fe190:	461a      	mov	r2, r3
 23fe192:	4619      	mov	r1, r3
 23fe194:	f7ff bbdc 	b.w	23fd950 <network_on>

023fe198 <_ZN5spark13EthernetClass5readyEv>:
    }

    bool ready() {
        return network_ready(*this, 0,  NULL);
 23fe198:	2200      	movs	r2, #0
 23fe19a:	6840      	ldr	r0, [r0, #4]
 23fe19c:	4611      	mov	r1, r2
 23fe19e:	f7ff bbc9 	b.w	23fd934 <network_ready>

023fe1a2 <_ZN5spark13EthernetClass10connectingEv>:
        return network_connecting(*this, 0, NULL);
 23fe1a2:	2200      	movs	r2, #0
 23fe1a4:	6840      	ldr	r0, [r0, #4]
 23fe1a6:	4611      	mov	r1, r2
 23fe1a8:	f7ff bba8 	b.w	23fd8fc <network_connecting>

023fe1ac <_ZN5spark13EthernetClass10disconnectEv>:
        network_disconnect(*this, NETWORK_DISCONNECT_REASON_USER, NULL);
 23fe1ac:	2200      	movs	r2, #0
 23fe1ae:	2102      	movs	r1, #2
 23fe1b0:	6840      	ldr	r0, [r0, #4]
 23fe1b2:	f7ff bbb1 	b.w	23fd918 <network_disconnect>

023fe1b6 <_ZN5spark13EthernetClass7connectEj>:
        network_connect(*this, flags, 0, NULL);
 23fe1b6:	2300      	movs	r3, #0
 23fe1b8:	6840      	ldr	r0, [r0, #4]
 23fe1ba:	461a      	mov	r2, r3
 23fe1bc:	f7ff bb90 	b.w	23fd8e0 <network_connect>

023fe1c0 <_GLOBAL__sub_I__ZN5spark8EthernetE>:
    static NetworkClass& from(network_interface_t nif);

    virtual IPAddress resolve(const char* name, bool flushCache = false);

    explicit NetworkClass(network_interface_t iface)
            : iface_(iface) {
 23fe1c0:	2203      	movs	r2, #3
 23fe1c2:	4b02      	ldr	r3, [pc, #8]	; (23fe1cc <_GLOBAL__sub_I__ZN5spark8EthernetE+0xc>)
 23fe1c4:	605a      	str	r2, [r3, #4]
            NetworkClass(NETWORK_INTERFACE_ETHERNET) {
 23fe1c6:	4a02      	ldr	r2, [pc, #8]	; (23fe1d0 <_GLOBAL__sub_I__ZN5spark8EthernetE+0x10>)
 23fe1c8:	601a      	str	r2, [r3, #0]

namespace spark {

EthernetClass Ethernet;

} // spark
 23fe1ca:	4770      	bx	lr
 23fe1cc:	1007af24 	.word	0x1007af24
 23fe1d0:	023ffdb0 	.word	0x023ffdb0

023fe1d4 <_ZN7TwoWireD1Ev>:
private:
  hal_i2c_interface_t _i2c;

public:
  TwoWire(hal_i2c_interface_t i2c, const hal_i2c_config_t& config);
  virtual ~TwoWire() {};
 23fe1d4:	4770      	bx	lr

023fe1d6 <_ZN7TwoWire5writeEPKhj>:

// must be called in:
// slave tx event callback
// or after beginTransmission(address)
size_t TwoWire::write(const uint8_t *data, size_t quantity)
{
 23fe1d6:	b5f8      	push	{r3, r4, r5, r6, r7, lr}
 23fe1d8:	4606      	mov	r6, r0
 23fe1da:	4615      	mov	r5, r2
 23fe1dc:	460c      	mov	r4, r1
 23fe1de:	188f      	adds	r7, r1, r2
  // in master/slave transmitter mode
  for(size_t i = 0; i < quantity; ++i)
 23fe1e0:	42bc      	cmp	r4, r7
 23fe1e2:	d006      	beq.n	23fe1f2 <_ZN7TwoWire5writeEPKhj+0x1c>
  {
    write(data[i]);
 23fe1e4:	6833      	ldr	r3, [r6, #0]
 23fe1e6:	4630      	mov	r0, r6
 23fe1e8:	689b      	ldr	r3, [r3, #8]
 23fe1ea:	f814 1b01 	ldrb.w	r1, [r4], #1
 23fe1ee:	4798      	blx	r3
  for(size_t i = 0; i < quantity; ++i)
 23fe1f0:	e7f6      	b.n	23fe1e0 <_ZN7TwoWire5writeEPKhj+0xa>
  }

  return quantity;
}
 23fe1f2:	4628      	mov	r0, r5
 23fe1f4:	bdf8      	pop	{r3, r4, r5, r6, r7, pc}

023fe1f6 <_ZN7TwoWire5writeEh>:
  return hal_i2c_write(_i2c, data, NULL);
 23fe1f6:	2200      	movs	r2, #0
 23fe1f8:	7c00      	ldrb	r0, [r0, #16]
 23fe1fa:	f7ff b88b 	b.w	23fd314 <hal_i2c_write>

023fe1fe <_ZN7TwoWire9availableEv>:
// must be called in:
// slave rx event callback
// or after requestFrom(address, numBytes)
int TwoWire::available(void)
{
  return hal_i2c_available(_i2c, NULL);
 23fe1fe:	2100      	movs	r1, #0
 23fe200:	7c00      	ldrb	r0, [r0, #16]
 23fe202:	f7ff b895 	b.w	23fd330 <hal_i2c_available>

023fe206 <_ZN7TwoWire4readEv>:
// must be called in:
// slave rx event callback
// or after requestFrom(address, numBytes)
int TwoWire::read(void)
{
  return hal_i2c_read(_i2c, NULL);
 23fe206:	2100      	movs	r1, #0
 23fe208:	7c00      	ldrb	r0, [r0, #16]
 23fe20a:	f7ff b89f 	b.w	23fd34c <hal_i2c_read>

023fe20e <_ZN7TwoWire4peekEv>:
// must be called in:
// slave rx event callback
// or after requestFrom(address, numBytes)
int TwoWire::peek(void)
{
  return hal_i2c_peek(_i2c, NULL);
 23fe20e:	2100      	movs	r1, #0
 23fe210:	7c00      	ldrb	r0, [r0, #16]
 23fe212:	f7ff b8a9 	b.w	23fd368 <hal_i2c_peek>

023fe216 <_ZN7TwoWire5flushEv>:
}

void TwoWire::flush(void)
{
  hal_i2c_flush(_i2c, NULL);
 23fe216:	2100      	movs	r1, #0
 23fe218:	7c00      	ldrb	r0, [r0, #16]
 23fe21a:	f7ff b8b3 	b.w	23fd384 <hal_i2c_flush>

023fe21e <_ZN7TwoWireD0Ev>:
 23fe21e:	b510      	push	{r4, lr}
 23fe220:	4604      	mov	r4, r0
 23fe222:	2114      	movs	r1, #20
 23fe224:	f7fd fa69 	bl	23fb6fa <_ZdlPvj>
 23fe228:	4620      	mov	r0, r4
 23fe22a:	bd10      	pop	{r4, pc}

023fe22c <_ZNK16WireTransmission9halConfigEv>:
    hal_i2c_transmission_config_t conf = {
 23fe22c:	2200      	movs	r2, #0
 23fe22e:	e9c0 2200 	strd	r2, r2, [r0]
 23fe232:	2218      	movs	r2, #24
 23fe234:	8002      	strh	r2, [r0, #0]
    };
 23fe236:	780a      	ldrb	r2, [r1, #0]
 23fe238:	7102      	strb	r2, [r0, #4]
 23fe23a:	684a      	ldr	r2, [r1, #4]
 23fe23c:	6082      	str	r2, [r0, #8]
 23fe23e:	68ca      	ldr	r2, [r1, #12]
 23fe240:	60c2      	str	r2, [r0, #12]
      .flags = (uint32_t)(stop_ ? HAL_I2C_TRANSMISSION_FLAG_STOP : 0),
 23fe242:	7a0a      	ldrb	r2, [r1, #8]
 23fe244:	6102      	str	r2, [r0, #16]
    };
 23fe246:	690a      	ldr	r2, [r1, #16]
 23fe248:	6142      	str	r2, [r0, #20]
  }
 23fe24a:	4770      	bx	lr

023fe24c <_ZN7TwoWireC1E19hal_i2c_interface_tRK16hal_i2c_config_t>:
TwoWire::TwoWire(hal_i2c_interface_t i2c, const hal_i2c_config_t& conf)
 23fe24c:	b538      	push	{r3, r4, r5, lr}
 23fe24e:	4604      	mov	r4, r0
 23fe250:	4615      	mov	r5, r2
    virtual int available() = 0;
    virtual int read() = 0;
    virtual int peek() = 0;
    virtual void flush() = 0;

    Stream() {_timeout=1000;}
 23fe252:	f44f 737a 	mov.w	r3, #1000	; 0x3e8
 23fe256:	2200      	movs	r2, #0
 23fe258:	e9c4 2301 	strd	r2, r3, [r4, #4]
 23fe25c:	4b09      	ldr	r3, [pc, #36]	; (23fe284 <_ZN7TwoWireC1E19hal_i2c_interface_tRK16hal_i2c_config_t+0x38>)
 23fe25e:	4608      	mov	r0, r1
  _i2c = i2c;
 23fe260:	7421      	strb	r1, [r4, #16]
TwoWire::TwoWire(hal_i2c_interface_t i2c, const hal_i2c_config_t& conf)
 23fe262:	6023      	str	r3, [r4, #0]
  int result = hal_i2c_init(_i2c, &conf);
 23fe264:	4629      	mov	r1, r5
 23fe266:	f7ff f8a9 	bl	23fd3bc <hal_i2c_init>
  if (result == SYSTEM_ERROR_NOT_ENOUGH_DATA && 
 23fe26a:	30bf      	adds	r0, #191	; 0xbf
 23fe26c:	d108      	bne.n	23fe280 <_ZN7TwoWireC1E19hal_i2c_interface_tRK16hal_i2c_config_t+0x34>
      (conf.flags & HAL_I2C_CONFIG_FLAG_FREEABLE)) {
 23fe26e:	696b      	ldr	r3, [r5, #20]
  if (result == SYSTEM_ERROR_NOT_ENOUGH_DATA && 
 23fe270:	07db      	lsls	r3, r3, #31
 23fe272:	d505      	bpl.n	23fe280 <_ZN7TwoWireC1E19hal_i2c_interface_tRK16hal_i2c_config_t+0x34>
    free(conf.rx_buffer);
 23fe274:	6868      	ldr	r0, [r5, #4]
 23fe276:	f7ff fc05 	bl	23fda84 <free>
    free(conf.tx_buffer);
 23fe27a:	68e8      	ldr	r0, [r5, #12]
 23fe27c:	f7ff fc02 	bl	23fda84 <free>
}
 23fe280:	4620      	mov	r0, r4
 23fe282:	bd38      	pop	{r3, r4, r5, pc}
 23fe284:	023ffdf4 	.word	0x023ffdf4

023fe288 <_ZN7TwoWire8setSpeedEm>:
  hal_i2c_set_speed(_i2c, clockSpeed, NULL);
 23fe288:	2200      	movs	r2, #0
 23fe28a:	7c00      	ldrb	r0, [r0, #16]
 23fe28c:	f7ff b80a 	b.w	23fd2a4 <hal_i2c_set_speed>

023fe290 <_ZN7TwoWire5beginEv>:
	hal_i2c_begin(_i2c, I2C_MODE_MASTER, 0x00, NULL);
 23fe290:	2300      	movs	r3, #0
 23fe292:	7c00      	ldrb	r0, [r0, #16]
 23fe294:	461a      	mov	r2, r3
 23fe296:	4619      	mov	r1, r3
 23fe298:	f7ff b812 	b.w	23fd2c0 <hal_i2c_begin>

023fe29c <_ZN7TwoWire11requestFromERK16WireTransmission>:
size_t TwoWire::requestFrom(const WireTransmission& transfer) {
 23fe29c:	b510      	push	{r4, lr}
 23fe29e:	4604      	mov	r4, r0
 23fe2a0:	b086      	sub	sp, #24
  auto conf = transfer.halConfig();
 23fe2a2:	4668      	mov	r0, sp
 23fe2a4:	f7ff ffc2 	bl	23fe22c <_ZNK16WireTransmission9halConfigEv>
  return hal_i2c_request_ex(_i2c, &conf, nullptr);
 23fe2a8:	2200      	movs	r2, #0
 23fe2aa:	4669      	mov	r1, sp
 23fe2ac:	7c20      	ldrb	r0, [r4, #16]
 23fe2ae:	f7ff f893 	bl	23fd3d8 <hal_i2c_request_ex>
}
 23fe2b2:	b006      	add	sp, #24
 23fe2b4:	bd10      	pop	{r4, pc}

023fe2b6 <_ZN7TwoWire11requestFromEhjh>:
{
 23fe2b6:	b57f      	push	{r0, r1, r2, r3, r4, r5, r6, lr}
        buffer_(nullptr) {
 23fe2b8:	f88d 1004 	strb.w	r1, [sp, #4]
 23fe2bc:	2100      	movs	r1, #0
 23fe2be:	f04f 0c64 	mov.w	ip, #100	; 0x64
  return requestFrom(WireTransmission(address).quantity(quantity).stop(sendStop));
 23fe2c2:	1a5b      	subs	r3, r3, r1
 23fe2c4:	bf18      	it	ne
 23fe2c6:	2301      	movne	r3, #1
 23fe2c8:	e9cd c104 	strd	ip, r1, [sp, #16]
 23fe2cc:	a901      	add	r1, sp, #4
    size_ = size;
 23fe2ce:	9202      	str	r2, [sp, #8]
 23fe2d0:	f88d 300c 	strb.w	r3, [sp, #12]
 23fe2d4:	f7ff ffe2 	bl	23fe29c <_ZN7TwoWire11requestFromERK16WireTransmission>
}
 23fe2d8:	b007      	add	sp, #28
 23fe2da:	f85d fb04 	ldr.w	pc, [sp], #4

023fe2de <_ZN7TwoWire11requestFromEhj>:
  return requestFrom(address, quantity, (uint8_t)true);
 23fe2de:	2301      	movs	r3, #1
 23fe2e0:	f7ff bfe9 	b.w	23fe2b6 <_ZN7TwoWire11requestFromEhjh>

023fe2e4 <_ZN7TwoWire17beginTransmissionEh>:
	hal_i2c_begin_transmission(_i2c, address, NULL);
 23fe2e4:	2200      	movs	r2, #0
 23fe2e6:	7c00      	ldrb	r0, [r0, #16]
 23fe2e8:	f7fe bff8 	b.w	23fd2dc <hal_i2c_begin_transmission>

023fe2ec <_ZN7TwoWire17beginTransmissionEi>:
  beginTransmission((uint8_t)address);
 23fe2ec:	b2c9      	uxtb	r1, r1
 23fe2ee:	f7ff bff9 	b.w	23fe2e4 <_ZN7TwoWire17beginTransmissionEh>

023fe2f2 <_ZN7TwoWire15endTransmissionEh>:
	return hal_i2c_end_transmission(_i2c, sendStop, NULL);
 23fe2f2:	2200      	movs	r2, #0
 23fe2f4:	7c00      	ldrb	r0, [r0, #16]
 23fe2f6:	f7fe bfff 	b.w	23fd2f8 <hal_i2c_end_transmission>

023fe2fa <_ZN7TwoWire15endTransmissionEv>:
  return endTransmission(true);
 23fe2fa:	2101      	movs	r1, #1
 23fe2fc:	f7ff bff9 	b.w	23fe2f2 <_ZN7TwoWire15endTransmissionEh>

023fe300 <_GLOBAL__sub_I__ZN7TwoWireC2E19hal_i2c_interface_tRK16hal_i2c_config_t>:
        buffer_(nullptr) {
 23fe300:	21ff      	movs	r1, #255	; 0xff
 23fe302:	2200      	movs	r2, #0
      : address_{address},
 23fe304:	4b04      	ldr	r3, [pc, #16]	; (23fe318 <_GLOBAL__sub_I__ZN7TwoWireC2E19hal_i2c_interface_tRK16hal_i2c_config_t+0x18>)
        buffer_(nullptr) {
 23fe306:	2001      	movs	r0, #1
 23fe308:	e9c3 1200 	strd	r1, r2, [r3]
 23fe30c:	2164      	movs	r1, #100	; 0x64
 23fe30e:	611a      	str	r2, [r3, #16]
 23fe310:	e9c3 0102 	strd	r0, r1, [r3, #8]

namespace particle {
namespace detail {
const WireTransmission WIRE_INVALID_TRANSMISSION(0xff);
} // detail
} // particle
 23fe314:	4770      	bx	lr
 23fe316:	bf00      	nop
 23fe318:	1007af2c 	.word	0x1007af2c

023fe31c <_ZN9IPAddressD1Ev>:
    IPAddress(uint32_t address);
    // 4 bytes defining the IP address in network order
    IPAddress(const uint8_t* address);
    IPAddress(const HAL_IPAddress& address);

    virtual ~IPAddress() {}
 23fe31c:	4770      	bx	lr

023fe31e <_ZN9IPAddressD0Ev>:
 23fe31e:	b510      	push	{r4, lr}
 23fe320:	4604      	mov	r4, r0
 23fe322:	2118      	movs	r1, #24
 23fe324:	f7fd f9e9 	bl	23fb6fa <_ZdlPvj>
 23fe328:	4620      	mov	r0, r4
 23fe32a:	bd10      	pop	{r4, pc}

023fe32c <_ZNK9IPAddress7printToER5Print>:
#endif // Wiring_IPv6
	return address.ipv4==that.address.ipv4;
}

size_t IPAddress::printTo(Print& p) const
{
 23fe32c:	b5f0      	push	{r4, r5, r6, r7, lr}
#if Wiring_IPv6
#if HAL_USE_INET_HAL_POSIX
	if (address.v==6) {
 23fe32e:	7d03      	ldrb	r3, [r0, #20]
{
 23fe330:	460e      	mov	r6, r1
	if (address.v==6) {
 23fe332:	2b06      	cmp	r3, #6
 23fe334:	f04f 0400 	mov.w	r4, #0
{
 23fe338:	b08d      	sub	sp, #52	; 0x34
		char buf[INET6_ADDRSTRLEN+1];
		buf[0] = 0;
		inet_inet_ntop(AF_INET6, address.ipv6, buf, sizeof(buf));
 23fe33a:	f100 0704 	add.w	r7, r0, #4
	if (address.v==6) {
 23fe33e:	d012      	beq.n	23fe366 <_ZNK9IPAddress7printToER5Print+0x3a>
 23fe340:	f100 0508 	add.w	r5, r0, #8
            val = n;
        }
#if __GNUC__ >= 9
#pragma GCC diagnostic pop
#endif // __GNUC__ >= 9
        return printNumber(val, base) + t;
 23fe344:	f815 1d01 	ldrb.w	r1, [r5, #-1]!
 23fe348:	220a      	movs	r2, #10
 23fe34a:	4630      	mov	r0, r6
 23fe34c:	f000 f989 	bl	23fe662 <_ZN5Print11printNumberEmh>
#else
#pragma message "HAL_USE_INET_HAL_POSIX is required for IPv6 support in IPAddress::printTo()"
#endif // HAL_USE_INET_HAL_POSIX
#endif // Wiring_IPv6
    size_t n = 0;
    for (int i = 0; i < 4; i++)
 23fe350:	42af      	cmp	r7, r5
    {
        if (n)
            n += p.print('.');
        n += p.print((*this)[i], DEC);
 23fe352:	4404      	add	r4, r0
    for (int i = 0; i < 4; i++)
 23fe354:	d019      	beq.n	23fe38a <_ZNK9IPAddress7printToER5Print+0x5e>
        if (n)
 23fe356:	2c00      	cmp	r4, #0
 23fe358:	d0f4      	beq.n	23fe344 <_ZNK9IPAddress7printToER5Print+0x18>
            n += p.print('.');
 23fe35a:	212e      	movs	r1, #46	; 0x2e
 23fe35c:	4630      	mov	r0, r6
 23fe35e:	f000 f967 	bl	23fe630 <_ZN5Print5printEc>
 23fe362:	4404      	add	r4, r0
 23fe364:	e7ee      	b.n	23fe344 <_ZNK9IPAddress7printToER5Print+0x18>
		inet_inet_ntop(AF_INET6, address.ipv6, buf, sizeof(buf));
 23fe366:	232f      	movs	r3, #47	; 0x2f
 23fe368:	466a      	mov	r2, sp
 23fe36a:	4639      	mov	r1, r7
 23fe36c:	200a      	movs	r0, #10
		buf[0] = 0;
 23fe36e:	f88d 4000 	strb.w	r4, [sp]
		inet_inet_ntop(AF_INET6, address.ipv6, buf, sizeof(buf));
 23fe372:	f7ff f84d 	bl	23fd410 <inet_inet_ntop>
      return write((const uint8_t *)str, strlen(str));
 23fe376:	4668      	mov	r0, sp
 23fe378:	f7fd f996 	bl	23fb6a8 <strlen>
 23fe37c:	6833      	ldr	r3, [r6, #0]
 23fe37e:	4602      	mov	r2, r0
 23fe380:	4669      	mov	r1, sp
 23fe382:	4630      	mov	r0, r6
 23fe384:	68db      	ldr	r3, [r3, #12]
 23fe386:	4798      	blx	r3
 23fe388:	4604      	mov	r4, r0
    }
    return n;
}
 23fe38a:	4620      	mov	r0, r4
 23fe38c:	b00d      	add	sp, #52	; 0x34
 23fe38e:	bdf0      	pop	{r4, r5, r6, r7, pc}

023fe390 <_ZN9IPAddressC1Ev>:
IPAddress::IPAddress()
 23fe390:	b510      	push	{r4, lr}
 23fe392:	4604      	mov	r4, r0
 23fe394:	4b04      	ldr	r3, [pc, #16]	; (23fe3a8 <_ZN9IPAddressC1Ev+0x18>)
        return address;
    }

    virtual size_t printTo(Print& p) const;

    void clear() { memset(&address, 0, sizeof (address)); }
 23fe396:	2211      	movs	r2, #17
 23fe398:	2100      	movs	r1, #0
 23fe39a:	f840 3b04 	str.w	r3, [r0], #4
 23fe39e:	f000 fe37 	bl	23ff010 <memset>
}
 23fe3a2:	4620      	mov	r0, r4
 23fe3a4:	bd10      	pop	{r4, pc}
 23fe3a6:	bf00      	nop
 23fe3a8:	023ffe20 	.word	0x023ffe20

023fe3ac <_ZN9IPAddressC1ERK16_HAL_IPAddress_t>:
IPAddress::IPAddress(const HAL_IPAddress& address)
 23fe3ac:	4603      	mov	r3, r0
 23fe3ae:	4a07      	ldr	r2, [pc, #28]	; (23fe3cc <_ZN9IPAddressC1ERK16_HAL_IPAddress_t+0x20>)
 23fe3b0:	b510      	push	{r4, lr}
 23fe3b2:	f843 2b04 	str.w	r2, [r3], #4
    memcpy(&this->address, &address, sizeof(address));
 23fe3b6:	f101 0210 	add.w	r2, r1, #16
 23fe3ba:	f851 4b04 	ldr.w	r4, [r1], #4
 23fe3be:	4291      	cmp	r1, r2
 23fe3c0:	f843 4b04 	str.w	r4, [r3], #4
 23fe3c4:	d1f9      	bne.n	23fe3ba <_ZN9IPAddressC1ERK16_HAL_IPAddress_t+0xe>
 23fe3c6:	780a      	ldrb	r2, [r1, #0]
 23fe3c8:	701a      	strb	r2, [r3, #0]
}
 23fe3ca:	bd10      	pop	{r4, pc}
 23fe3cc:	023ffe20 	.word	0x023ffe20

023fe3d0 <_ZN9IPAddress8set_ipv4Ehhhh>:
{
 23fe3d0:	b510      	push	{r4, lr}
    address.ipv4 = b0<<24 | b1 << 16 | b2 << 8 | b3;
 23fe3d2:	f89d 4008 	ldrb.w	r4, [sp, #8]
 23fe3d6:	ea44 2303 	orr.w	r3, r4, r3, lsl #8
 23fe3da:	ea43 4202 	orr.w	r2, r3, r2, lsl #16
        address.v = version;
 23fe3de:	2304      	movs	r3, #4
 23fe3e0:	ea42 6101 	orr.w	r1, r2, r1, lsl #24
 23fe3e4:	6041      	str	r1, [r0, #4]
 23fe3e6:	7503      	strb	r3, [r0, #20]
}
 23fe3e8:	bd10      	pop	{r4, pc}
	...

023fe3ec <_ZN9IPAddressC1EPKh>:
IPAddress::IPAddress(const uint8_t* addr)
 23fe3ec:	b507      	push	{r0, r1, r2, lr}
 23fe3ee:	4b06      	ldr	r3, [pc, #24]	; (23fe408 <_ZN9IPAddressC1EPKh+0x1c>)
 23fe3f0:	6003      	str	r3, [r0, #0]
    set_ipv4(addr[0], addr[1], addr[2], addr[3]);
 23fe3f2:	78cb      	ldrb	r3, [r1, #3]
 23fe3f4:	9300      	str	r3, [sp, #0]
 23fe3f6:	788b      	ldrb	r3, [r1, #2]
 23fe3f8:	784a      	ldrb	r2, [r1, #1]
 23fe3fa:	7809      	ldrb	r1, [r1, #0]
 23fe3fc:	f7ff ffe8 	bl	23fe3d0 <_ZN9IPAddress8set_ipv4Ehhhh>
}
 23fe400:	b003      	add	sp, #12
 23fe402:	f85d fb04 	ldr.w	pc, [sp], #4
 23fe406:	bf00      	nop
 23fe408:	023ffe20 	.word	0x023ffe20

023fe40c <_GLOBAL__sub_I__ZN5spark3LogE>:
    // This handler doesn't support direct logging
}

// spark::Logger
inline spark::Logger::Logger(const char *name) :
        name_(name) {
 23fe40c:	4b01      	ldr	r3, [pc, #4]	; (23fe414 <_GLOBAL__sub_I__ZN5spark3LogE+0x8>)
 23fe40e:	4a02      	ldr	r2, [pc, #8]	; (23fe418 <_GLOBAL__sub_I__ZN5spark3LogE+0xc>)
 23fe410:	601a      	str	r2, [r3, #0]
#if Wiring_LogConfig

// spark::
void spark::logProcessControlRequest(ctrl_request* req) {
    JSONRequestHandler::process(req);
}
 23fe412:	4770      	bx	lr
 23fe414:	1007af40 	.word	0x1007af40
 23fe418:	023ffe2c 	.word	0x023ffe2c

023fe41c <_ZN5spark12NetworkClass7connectEj>:
        return Network;
    }
}

void NetworkClass::connect(unsigned flags) {
    network_connect(*this, flags, 0, nullptr);
 23fe41c:	2300      	movs	r3, #0
 23fe41e:	6840      	ldr	r0, [r0, #4]
 23fe420:	461a      	mov	r2, r3
 23fe422:	f7ff ba5d 	b.w	23fd8e0 <network_connect>

023fe426 <_ZN5spark12NetworkClass10disconnectEv>:
}

void NetworkClass::disconnect() {
    network_disconnect(*this, NETWORK_DISCONNECT_REASON_USER, nullptr);
 23fe426:	2200      	movs	r2, #0
 23fe428:	2102      	movs	r1, #2
 23fe42a:	6840      	ldr	r0, [r0, #4]
 23fe42c:	f7ff ba74 	b.w	23fd918 <network_disconnect>

023fe430 <_ZN5spark12NetworkClass10connectingEv>:
}

bool NetworkClass::connecting() {
    return network_connecting(*this, 0, nullptr);
 23fe430:	2200      	movs	r2, #0
 23fe432:	6840      	ldr	r0, [r0, #4]
 23fe434:	4611      	mov	r1, r2
 23fe436:	f7ff ba61 	b.w	23fd8fc <network_connecting>

023fe43a <_ZN5spark12NetworkClass5readyEv>:
}

bool NetworkClass::ready() {
    return network_ready(*this, 0, nullptr);
 23fe43a:	2200      	movs	r2, #0
 23fe43c:	6840      	ldr	r0, [r0, #4]
 23fe43e:	4611      	mov	r1, r2
 23fe440:	f7ff ba78 	b.w	23fd934 <network_ready>

023fe444 <_ZN5spark12NetworkClass2onEv>:
}

void NetworkClass::on() {
    network_on(*this, 0, 0, nullptr);
 23fe444:	2300      	movs	r3, #0
 23fe446:	6840      	ldr	r0, [r0, #4]
 23fe448:	461a      	mov	r2, r3
 23fe44a:	4619      	mov	r1, r3
 23fe44c:	f7ff ba80 	b.w	23fd950 <network_on>

023fe450 <_ZN5spark12NetworkClass3offEv>:
}

void NetworkClass::off() {
    network_off(*this, 0, 0, nullptr);
 23fe450:	2300      	movs	r3, #0
 23fe452:	6840      	ldr	r0, [r0, #4]
 23fe454:	461a      	mov	r2, r3
 23fe456:	4619      	mov	r1, r3
 23fe458:	f7ff ba88 	b.w	23fd96c <network_off>

023fe45c <_ZN5spark12NetworkClass4isOnEv>:
}

bool NetworkClass::isOn() {
    return network_is_on(*this, nullptr);
 23fe45c:	2100      	movs	r1, #0
 23fe45e:	6840      	ldr	r0, [r0, #4]
 23fe460:	f7ff baca 	b.w	23fd9f8 <network_is_on>

023fe464 <_ZN5spark12NetworkClass5isOffEv>:
}

bool NetworkClass::isOff() {
    return network_is_off(*this, nullptr);
 23fe464:	2100      	movs	r1, #0
 23fe466:	6840      	ldr	r0, [r0, #4]
 23fe468:	f7ff bad4 	b.w	23fda14 <network_is_off>

023fe46c <_ZN5spark12NetworkClass6listenEb>:
}

void NetworkClass::listen(bool begin) {
    network_listen(*this, begin ? 0 : 1, nullptr);
 23fe46c:	2200      	movs	r2, #0
 23fe46e:	6840      	ldr	r0, [r0, #4]
 23fe470:	f081 0101 	eor.w	r1, r1, #1
 23fe474:	f7ff ba88 	b.w	23fd988 <network_listen>

023fe478 <_ZN5spark12NetworkClass16setListenTimeoutEt>:
}

void NetworkClass::setListenTimeout(uint16_t timeout) {
    network_set_listen_timeout(*this, timeout, nullptr);
 23fe478:	2200      	movs	r2, #0
 23fe47a:	6840      	ldr	r0, [r0, #4]
 23fe47c:	f7ff baa0 	b.w	23fd9c0 <network_set_listen_timeout>

023fe480 <_ZN5spark12NetworkClass16getListenTimeoutEv>:
}

uint16_t NetworkClass::getListenTimeout() {
    return network_get_listen_timeout(*this, 0, nullptr);
 23fe480:	2200      	movs	r2, #0
 23fe482:	6840      	ldr	r0, [r0, #4]
 23fe484:	4611      	mov	r1, r2
 23fe486:	f7ff baa9 	b.w	23fd9dc <network_get_listen_timeout>

023fe48a <_ZN5spark12NetworkClass9listeningEv>:
}

bool NetworkClass::listening() {
    return network_listening(*this, 0, nullptr);
 23fe48a:	2200      	movs	r2, #0
 23fe48c:	6840      	ldr	r0, [r0, #4]
 23fe48e:	4611      	mov	r1, r2
 23fe490:	f7ff ba88 	b.w	23fd9a4 <network_listening>

023fe494 <_ZN5spark12NetworkClass11isPreferredEv>:
    network_handle_t network = network_prefer(*this, prefer, nullptr);
    return Network.from(network);
}

bool NetworkClass::isPreferred() {
    return network_is_preferred(*this, nullptr);
 23fe494:	2100      	movs	r1, #0
 23fe496:	6840      	ldr	r0, [r0, #4]
 23fe498:	f7ff bad8 	b.w	23fda4c <network_is_preferred>

023fe49c <_ZN5spark12NetworkClass7resolveEPKcb>:
}

IPAddress NetworkClass::resolve(const char* name, bool flushCache) {
 23fe49c:	e92d 43f0 	stmdb	sp!, {r4, r5, r6, r7, r8, r9, lr}
    IPAddress addr;
#if HAL_USE_INET_HAL_POSIX
    struct addrinfo *ai = nullptr;
 23fe4a0:	2600      	movs	r6, #0
IPAddress NetworkClass::resolve(const char* name, bool flushCache) {
 23fe4a2:	4698      	mov	r8, r3
 23fe4a4:	b099      	sub	sp, #100	; 0x64
 23fe4a6:	460d      	mov	r5, r1
 23fe4a8:	4614      	mov	r4, r2
 23fe4aa:	4607      	mov	r7, r0
    IPAddress addr;
 23fe4ac:	f7ff ff70 	bl	23fe390 <_ZN9IPAddressC1Ev>
    struct addrinfo hints = {};
 23fe4b0:	221c      	movs	r2, #28
 23fe4b2:	4631      	mov	r1, r6
 23fe4b4:	a811      	add	r0, sp, #68	; 0x44
    struct addrinfo *ai = nullptr;
 23fe4b6:	9603      	str	r6, [sp, #12]
    struct addrinfo hints = {};
 23fe4b8:	f000 fdaa 	bl	23ff010 <memset>
    hints.ai_flags = AI_ADDRCONFIG;
    if (flushCache) {
 23fe4bc:	f1b8 0f00 	cmp.w	r8, #0
 23fe4c0:	d12c      	bne.n	23fe51c <_ZN5spark12NetworkClass7resolveEPKcb+0x80>
    hints.ai_flags = AI_ADDRCONFIG;
 23fe4c2:	2340      	movs	r3, #64	; 0x40
        return iface_;
 23fe4c4:	6868      	ldr	r0, [r5, #4]
        hints.ai_flags |= AI_FLUSHCACHE;
 23fe4c6:	9310      	str	r3, [sp, #64]	; 0x40
    }
    hints.ai_family = AF_UNSPEC;
    if_t iface = nullptr;
 23fe4c8:	9604      	str	r6, [sp, #16]
    if ((network_interface_t)*this != NETWORK_INTERFACE_ALL) {
 23fe4ca:	b118      	cbz	r0, 23fe4d4 <_ZN5spark12NetworkClass7resolveEPKcb+0x38>
        if_get_by_index((network_interface_t)*this, &iface);
 23fe4cc:	a904      	add	r1, sp, #16
 23fe4ce:	b2c0      	uxtb	r0, r0
 23fe4d0:	f7fe ff90 	bl	23fd3f4 <if_get_by_index>
    }
    const int r = netdb_getaddrinfo_ex(name, nullptr, &hints, &ai, iface);
 23fe4d4:	9b04      	ldr	r3, [sp, #16]
 23fe4d6:	4620      	mov	r0, r4
 23fe4d8:	9300      	str	r3, [sp, #0]
 23fe4da:	2100      	movs	r1, #0
 23fe4dc:	ab03      	add	r3, sp, #12
 23fe4de:	aa10      	add	r2, sp, #64	; 0x40
 23fe4e0:	f7fe ffb2 	bl	23fd448 <netdb_getaddrinfo_ex>
    if (!r) {
 23fe4e4:	4604      	mov	r4, r0
 23fe4e6:	2800      	cmp	r0, #0
 23fe4e8:	d14d      	bne.n	23fe586 <_ZN5spark12NetworkClass7resolveEPKcb+0xea>
        bool ok = false;
        // This is not really needed if AI_ADDRCONFIG is properly supported
        bool ipv4 = network_ready(*this, NETWORK_READY_TYPE_IPV4, nullptr);
 23fe4ea:	4602      	mov	r2, r0
 23fe4ec:	2101      	movs	r1, #1
 23fe4ee:	6868      	ldr	r0, [r5, #4]
 23fe4f0:	f7ff fa20 	bl	23fd934 <network_ready>
        bool ipv6 = network_ready(*this, NETWORK_READY_TYPE_IPV6, nullptr);
 23fe4f4:	2102      	movs	r1, #2
        bool ipv4 = network_ready(*this, NETWORK_READY_TYPE_IPV4, nullptr);
 23fe4f6:	4680      	mov	r8, r0
        bool ipv6 = network_ready(*this, NETWORK_READY_TYPE_IPV6, nullptr);
 23fe4f8:	4622      	mov	r2, r4
 23fe4fa:	6868      	ldr	r0, [r5, #4]
 23fe4fc:	f7ff fa1a 	bl	23fd934 <network_ready>
        bool ok = false;
 23fe500:	4621      	mov	r1, r4
        bool ipv6 = network_ready(*this, NETWORK_READY_TYPE_IPV6, nullptr);
 23fe502:	4681      	mov	r9, r0
        for (auto cur = ai; cur != nullptr && !ok; cur = cur->ai_next) {
 23fe504:	9e03      	ldr	r6, [sp, #12]
 23fe506:	2e00      	cmp	r6, #0
 23fe508:	d03d      	beq.n	23fe586 <_ZN5spark12NetworkClass7resolveEPKcb+0xea>
 23fe50a:	2900      	cmp	r1, #0
 23fe50c:	d13b      	bne.n	23fe586 <_ZN5spark12NetworkClass7resolveEPKcb+0xea>
            // NOTE: using only the first entry that matches the current state of IPv4/IPv6 connectivity
            switch (cur->ai_family) {
 23fe50e:	6873      	ldr	r3, [r6, #4]
 23fe510:	2b02      	cmp	r3, #2
 23fe512:	d005      	beq.n	23fe520 <_ZN5spark12NetworkClass7resolveEPKcb+0x84>
 23fe514:	2b0a      	cmp	r3, #10
 23fe516:	d013      	beq.n	23fe540 <_ZN5spark12NetworkClass7resolveEPKcb+0xa4>
        for (auto cur = ai; cur != nullptr && !ok; cur = cur->ai_next) {
 23fe518:	69f6      	ldr	r6, [r6, #28]
 23fe51a:	e7f4      	b.n	23fe506 <_ZN5spark12NetworkClass7resolveEPKcb+0x6a>
        hints.ai_flags |= AI_FLUSHCACHE;
 23fe51c:	4b1d      	ldr	r3, [pc, #116]	; (23fe594 <_ZN5spark12NetworkClass7resolveEPKcb+0xf8>)
 23fe51e:	e7d1      	b.n	23fe4c4 <_ZN5spark12NetworkClass7resolveEPKcb+0x28>
                case AF_INET: {
                    if (!ipv4) {
 23fe520:	f1b8 0f00 	cmp.w	r8, #0
 23fe524:	d0f8      	beq.n	23fe518 <_ZN5spark12NetworkClass7resolveEPKcb+0x7c>
                        continue;
                    }
                    // NOTE: HAL_IPAddress is little-endian
                    auto in = (struct sockaddr_in*)cur->ai_addr;
                    addr = (const uint8_t*)(&in->sin_addr.s_addr);
 23fe526:	6971      	ldr	r1, [r6, #20]
        return *this = IPAddress(address);
 23fe528:	a80a      	add	r0, sp, #40	; 0x28
 23fe52a:	3104      	adds	r1, #4
class IPAddress : public Printable {
 23fe52c:	1d3c      	adds	r4, r7, #4
 23fe52e:	ad0b      	add	r5, sp, #44	; 0x2c
        return *this = IPAddress(address);
 23fe530:	f7ff ff5c 	bl	23fe3ec <_ZN9IPAddressC1EPKh>
class IPAddress : public Printable {
 23fe534:	cd0f      	ldmia	r5!, {r0, r1, r2, r3}
 23fe536:	c40f      	stmia	r4!, {r0, r1, r2, r3}
 23fe538:	682b      	ldr	r3, [r5, #0]
                    ok = true;
 23fe53a:	4641      	mov	r1, r8
 23fe53c:	7023      	strb	r3, [r4, #0]
        return *this = IPAddress(address);
 23fe53e:	e7eb      	b.n	23fe518 <_ZN5spark12NetworkClass7resolveEPKcb+0x7c>
                    break;
                }
                case AF_INET6: {
                    if (!ipv6) {
 23fe540:	f1b9 0f00 	cmp.w	r9, #0
 23fe544:	d0e8      	beq.n	23fe518 <_ZN5spark12NetworkClass7resolveEPKcb+0x7c>
                        continue;
                    }
                    auto in6 = (struct sockaddr_in6*)cur->ai_addr;
                    HAL_IPAddress a = {};
 23fe546:	2210      	movs	r2, #16
 23fe548:	a805      	add	r0, sp, #20
                    auto in6 = (struct sockaddr_in6*)cur->ai_addr;
 23fe54a:	6974      	ldr	r4, [r6, #20]
                    HAL_IPAddress a = {};
 23fe54c:	f000 fd60 	bl	23ff010 <memset>
                    a.v = 6;
 23fe550:	2306      	movs	r3, #6
                    memcpy(a.ipv6, in6->sin6_addr.s6_addr, sizeof(a.ipv6));
 23fe552:	ad05      	add	r5, sp, #20
                    a.v = 6;
 23fe554:	f88d 3024 	strb.w	r3, [sp, #36]	; 0x24
                    memcpy(a.ipv6, in6->sin6_addr.s6_addr, sizeof(a.ipv6));
 23fe558:	f104 0308 	add.w	r3, r4, #8
 23fe55c:	3418      	adds	r4, #24
 23fe55e:	462a      	mov	r2, r5
 23fe560:	6818      	ldr	r0, [r3, #0]
 23fe562:	6859      	ldr	r1, [r3, #4]
 23fe564:	3308      	adds	r3, #8
 23fe566:	c203      	stmia	r2!, {r0, r1}
 23fe568:	42a3      	cmp	r3, r4
 23fe56a:	4615      	mov	r5, r2
 23fe56c:	d1f7      	bne.n	23fe55e <_ZN5spark12NetworkClass7resolveEPKcb+0xc2>
                    addr = IPAddress(a);
 23fe56e:	a905      	add	r1, sp, #20
 23fe570:	a80a      	add	r0, sp, #40	; 0x28
class IPAddress : public Printable {
 23fe572:	1d3c      	adds	r4, r7, #4
 23fe574:	ad0b      	add	r5, sp, #44	; 0x2c
 23fe576:	f7ff ff19 	bl	23fe3ac <_ZN9IPAddressC1ERK16_HAL_IPAddress_t>
 23fe57a:	cd0f      	ldmia	r5!, {r0, r1, r2, r3}
 23fe57c:	c40f      	stmia	r4!, {r0, r1, r2, r3}
 23fe57e:	682b      	ldr	r3, [r5, #0]
                    ok = true;
 23fe580:	4649      	mov	r1, r9
 23fe582:	7023      	strb	r3, [r4, #0]
                    break;
 23fe584:	e7c8      	b.n	23fe518 <_ZN5spark12NetworkClass7resolveEPKcb+0x7c>
                }
            }
        }
    }
    freeaddrinfo(ai);
 23fe586:	9803      	ldr	r0, [sp, #12]
 23fe588:	f7fe ff50 	bl	23fd42c <netdb_freeaddrinfo>
    return Cellular.resolve(name);
#endif // Wiring_Cellular

#endif // HAL_USE_INET_HAL_POSIX
    return addr;
}
 23fe58c:	4638      	mov	r0, r7
 23fe58e:	b019      	add	sp, #100	; 0x64
 23fe590:	e8bd 83f0 	ldmia.w	sp!, {r4, r5, r6, r7, r8, r9, pc}
 23fe594:	40000040 	.word	0x40000040

023fe598 <_ZN5spark12NetworkClass4fromEm>:
    switch (nif) {
 23fe598:	3803      	subs	r0, #3
 23fe59a:	2802      	cmp	r0, #2
 23fe59c:	bf9a      	itte	ls
 23fe59e:	4b02      	ldrls	r3, [pc, #8]	; (23fe5a8 <_ZN5spark12NetworkClass4fromEm+0x10>)
 23fe5a0:	f853 0020 	ldrls.w	r0, [r3, r0, lsl #2]
NetworkClass& NetworkClass::from(network_interface_t nif) {
 23fe5a4:	4801      	ldrhi	r0, [pc, #4]	; (23fe5ac <_ZN5spark12NetworkClass4fromEm+0x14>)
}
 23fe5a6:	4770      	bx	lr
 23fe5a8:	023ffe30 	.word	0x023ffe30
 23fe5ac:	1007af44 	.word	0x1007af44

023fe5b0 <_ZN5spark12NetworkClass6preferEb>:
NetworkClass& NetworkClass::prefer(bool prefer) {
 23fe5b0:	b508      	push	{r3, lr}
    network_handle_t network = network_prefer(*this, prefer, nullptr);
 23fe5b2:	2200      	movs	r2, #0
 23fe5b4:	6840      	ldr	r0, [r0, #4]
 23fe5b6:	f7ff fa3b 	bl	23fda30 <network_prefer>
}
 23fe5ba:	e8bd 4008 	ldmia.w	sp!, {r3, lr}
    return Network.from(network);
 23fe5be:	f7ff bfeb 	b.w	23fe598 <_ZN5spark12NetworkClass4fromEm>
	...

023fe5c4 <_GLOBAL__sub_I__ZN5spark7NetworkE>:
            : iface_(iface) {
 23fe5c4:	4b02      	ldr	r3, [pc, #8]	; (23fe5d0 <_GLOBAL__sub_I__ZN5spark7NetworkE+0xc>)
 23fe5c6:	4a03      	ldr	r2, [pc, #12]	; (23fe5d4 <_GLOBAL__sub_I__ZN5spark7NetworkE+0x10>)
 23fe5c8:	601a      	str	r2, [r3, #0]
 23fe5ca:	2200      	movs	r2, #0
 23fe5cc:	605a      	str	r2, [r3, #4]
    network_free_configuration(c, count, nullptr);
    return res;
}
#endif // HAL_USE_SOCKET_HAL_POSIX

} // spark
 23fe5ce:	4770      	bx	lr
 23fe5d0:	1007af44 	.word	0x1007af44
 23fe5d4:	023ffe44 	.word	0x023ffe44

023fe5d8 <_ZN5Print5writeEPKhj>:

// Public Methods //////////////////////////////////////////////////////////////

/* default implementation: may be overridden */
size_t Print::write(const uint8_t *buffer, size_t size)
{
 23fe5d8:	b5f8      	push	{r3, r4, r5, r6, r7, lr}
 23fe5da:	4606      	mov	r6, r0
 23fe5dc:	460d      	mov	r5, r1
  size_t n = 0;
 23fe5de:	2400      	movs	r4, #0
 23fe5e0:	188f      	adds	r7, r1, r2
  while (size--) {
 23fe5e2:	42bd      	cmp	r5, r7
 23fe5e4:	d00c      	beq.n	23fe600 <_ZN5Print5writeEPKhj+0x28>
     int chunk = write(*buffer++);
 23fe5e6:	6833      	ldr	r3, [r6, #0]
 23fe5e8:	4630      	mov	r0, r6
 23fe5ea:	689b      	ldr	r3, [r3, #8]
 23fe5ec:	f815 1b01 	ldrb.w	r1, [r5], #1
 23fe5f0:	4798      	blx	r3
     if (chunk>=0)
 23fe5f2:	1e03      	subs	r3, r0, #0
 23fe5f4:	db01      	blt.n	23fe5fa <_ZN5Print5writeEPKhj+0x22>
         n += chunk;
 23fe5f6:	441c      	add	r4, r3
  while (size--) {
 23fe5f8:	e7f3      	b.n	23fe5e2 <_ZN5Print5writeEPKhj+0xa>
     int chunk = write(*buffer++);
 23fe5fa:	2c00      	cmp	r4, #0
 23fe5fc:	bf08      	it	eq
 23fe5fe:	461c      	moveq	r4, r3
             n = chunk;
         break;
     }
  }
  return n;
}
 23fe600:	4620      	mov	r0, r4
 23fe602:	bdf8      	pop	{r3, r4, r5, r6, r7, pc}

023fe604 <_ZN5Print5writeEPKc>:
    size_t write(const char *str) {
 23fe604:	b513      	push	{r0, r1, r4, lr}
 23fe606:	4604      	mov	r4, r0
    }
 23fe608:	4608      	mov	r0, r1
      if (str == NULL) return 0;
 23fe60a:	b159      	cbz	r1, 23fe624 <_ZN5Print5writeEPKc+0x20>
      return write((const uint8_t *)str, strlen(str));
 23fe60c:	9101      	str	r1, [sp, #4]
 23fe60e:	f7fd f84b 	bl	23fb6a8 <strlen>
 23fe612:	4602      	mov	r2, r0
 23fe614:	4620      	mov	r0, r4
 23fe616:	6823      	ldr	r3, [r4, #0]
 23fe618:	9901      	ldr	r1, [sp, #4]
 23fe61a:	68db      	ldr	r3, [r3, #12]
    }
 23fe61c:	b002      	add	sp, #8
 23fe61e:	e8bd 4010 	ldmia.w	sp!, {r4, lr}
      return write((const uint8_t *)str, strlen(str));
 23fe622:	4718      	bx	r3
    }
 23fe624:	b002      	add	sp, #8
 23fe626:	bd10      	pop	{r4, pc}

023fe628 <_ZN5Print5printEPKc>:

size_t Print::print(const char str[])
{
 23fe628:	b508      	push	{r3, lr}
  return write(str);
 23fe62a:	f7ff ffeb 	bl	23fe604 <_ZN5Print5writeEPKc>
}
 23fe62e:	bd08      	pop	{r3, pc}

023fe630 <_ZN5Print5printEc>:

size_t Print::print(char c)
{
  return write(c);
 23fe630:	6803      	ldr	r3, [r0, #0]
 23fe632:	689b      	ldr	r3, [r3, #8]
 23fe634:	4718      	bx	r3

023fe636 <_ZN5Print7printlnEv>:
{
  return print(reinterpret_cast<const char*>(str));
}

size_t Print::println(void)
{
 23fe636:	b538      	push	{r3, r4, r5, lr}
  size_t n = print('\r');
 23fe638:	210d      	movs	r1, #13
{
 23fe63a:	4605      	mov	r5, r0
  size_t n = print('\r');
 23fe63c:	f7ff fff8 	bl	23fe630 <_ZN5Print5printEc>
  n += print('\n');
 23fe640:	210a      	movs	r1, #10
  size_t n = print('\r');
 23fe642:	4604      	mov	r4, r0
  n += print('\n');
 23fe644:	4628      	mov	r0, r5
 23fe646:	f7ff fff3 	bl	23fe630 <_ZN5Print5printEc>
  return n;
}
 23fe64a:	4420      	add	r0, r4
 23fe64c:	bd38      	pop	{r3, r4, r5, pc}

023fe64e <_ZN5Print7printlnEPKc>:

size_t Print::println(const char c[])
{
 23fe64e:	b538      	push	{r3, r4, r5, lr}
 23fe650:	4605      	mov	r5, r0
  return write(str);
 23fe652:	f7ff ffd7 	bl	23fe604 <_ZN5Print5writeEPKc>
 23fe656:	4604      	mov	r4, r0
  size_t n = print(c);
  n += println();
 23fe658:	4628      	mov	r0, r5
 23fe65a:	f7ff ffec 	bl	23fe636 <_ZN5Print7printlnEv>
  return n;
}
 23fe65e:	4420      	add	r0, r4
 23fe660:	bd38      	pop	{r3, r4, r5, pc}

023fe662 <_ZN5Print11printNumberEmh>:

size_t Print::printNumber(unsigned long n, uint8_t base) {
  char buf[8 * sizeof(n) + 1]; // Assumes 8-bit chars plus zero byte.
  char *str = &buf[sizeof(buf) - 1];

  *str = '\0';
 23fe662:	2300      	movs	r3, #0

  // prevent crash if called with base == 1
  if (base < 2) base = 10;
 23fe664:	2a01      	cmp	r2, #1
 23fe666:	bf98      	it	ls
 23fe668:	220a      	movls	r2, #10
size_t Print::printNumber(unsigned long n, uint8_t base) {
 23fe66a:	b530      	push	{r4, r5, lr}
 23fe66c:	b08b      	sub	sp, #44	; 0x2c
  *str = '\0';
 23fe66e:	f88d 3024 	strb.w	r3, [sp, #36]	; 0x24
  if (base < 2) base = 10;
 23fe672:	ac09      	add	r4, sp, #36	; 0x24

  do {
   decltype(n) m = n;
   n /= base;
 23fe674:	460d      	mov	r5, r1
 23fe676:	fbb1 f1f2 	udiv	r1, r1, r2
   char c = m - base * n;
 23fe67a:	fb01 5312 	mls	r3, r1, r2, r5
 23fe67e:	f003 03ff 	and.w	r3, r3, #255	; 0xff
   *--str = c < 10 ? c + '0' : c + 'A' - 10;
 23fe682:	2b09      	cmp	r3, #9
 23fe684:	bf94      	ite	ls
 23fe686:	3330      	addls	r3, #48	; 0x30
 23fe688:	3337      	addhi	r3, #55	; 0x37
 23fe68a:	b2db      	uxtb	r3, r3
  } while(n);
 23fe68c:	42aa      	cmp	r2, r5
   *--str = c < 10 ? c + '0' : c + 'A' - 10;
 23fe68e:	f804 3d01 	strb.w	r3, [r4, #-1]!
  } while(n);
 23fe692:	d9ef      	bls.n	23fe674 <_ZN5Print11printNumberEmh+0x12>

  return write(str);
 23fe694:	4621      	mov	r1, r4
 23fe696:	f7ff ffb5 	bl	23fe604 <_ZN5Print5writeEPKc>
}
 23fe69a:	b00b      	add	sp, #44	; 0x2c
 23fe69c:	bd30      	pop	{r4, r5, pc}

023fe69e <_ZN5Print7vprintfEbPKcSt9__va_list>:
    writeVariant(var, writer);
    return writer.bytesWritten();
}

size_t Print::vprintf(bool newline, const char* format, va_list args)
{
 23fe69e:	e92d 41f0 	stmdb	sp!, {r4, r5, r6, r7, r8, lr}
 23fe6a2:	b086      	sub	sp, #24
 23fe6a4:	af00      	add	r7, sp, #0
 23fe6a6:	4605      	mov	r5, r0
 23fe6a8:	460e      	mov	r6, r1
    const int bufsize = 20;
    char test[bufsize];
    va_list args2;
    va_copy(args2, args);
    size_t n = vsnprintf(test, bufsize, format, args);
 23fe6aa:	1d38      	adds	r0, r7, #4
 23fe6ac:	2114      	movs	r1, #20
{
 23fe6ae:	4614      	mov	r4, r2
    va_copy(args2, args);
 23fe6b0:	603b      	str	r3, [r7, #0]
    size_t n = vsnprintf(test, bufsize, format, args);
 23fe6b2:	f7ff f9f5 	bl	23fdaa0 <vsnprintf>

    if (n<bufsize)
 23fe6b6:	2813      	cmp	r0, #19
 23fe6b8:	d80e      	bhi.n	23fe6d8 <_ZN5Print7vprintfEbPKcSt9__va_list+0x3a>
  return write(str);
 23fe6ba:	4628      	mov	r0, r5
 23fe6bc:	1d39      	adds	r1, r7, #4
 23fe6be:	f7ff ffa1 	bl	23fe604 <_ZN5Print5writeEPKc>
 23fe6c2:	4604      	mov	r4, r0
    {
        char bigger[n+1];
        n = vsnprintf(bigger, n+1, format, args2);
        n = print(bigger);
    }
    if (newline)
 23fe6c4:	b11e      	cbz	r6, 23fe6ce <_ZN5Print7vprintfEbPKcSt9__va_list+0x30>
        n += println();
 23fe6c6:	4628      	mov	r0, r5
 23fe6c8:	f7ff ffb5 	bl	23fe636 <_ZN5Print7printlnEv>
 23fe6cc:	4404      	add	r4, r0

    va_end(args2);
    return n;
}
 23fe6ce:	4620      	mov	r0, r4
 23fe6d0:	3718      	adds	r7, #24
 23fe6d2:	46bd      	mov	sp, r7
 23fe6d4:	e8bd 81f0 	ldmia.w	sp!, {r4, r5, r6, r7, r8, pc}
        char bigger[n+1];
 23fe6d8:	f100 0308 	add.w	r3, r0, #8
 23fe6dc:	f023 0307 	bic.w	r3, r3, #7
        n = print(bigger);
 23fe6e0:	46e8      	mov	r8, sp
        char bigger[n+1];
 23fe6e2:	ebad 0d03 	sub.w	sp, sp, r3
        n = vsnprintf(bigger, n+1, format, args2);
 23fe6e6:	4622      	mov	r2, r4
 23fe6e8:	1c41      	adds	r1, r0, #1
 23fe6ea:	683b      	ldr	r3, [r7, #0]
 23fe6ec:	4668      	mov	r0, sp
 23fe6ee:	f7ff f9d7 	bl	23fdaa0 <vsnprintf>
  return write(str);
 23fe6f2:	4669      	mov	r1, sp
 23fe6f4:	4628      	mov	r0, r5
 23fe6f6:	f7ff ff85 	bl	23fe604 <_ZN5Print5writeEPKc>
 23fe6fa:	4604      	mov	r4, r0
 23fe6fc:	46c5      	mov	sp, r8
 23fe6fe:	e7e1      	b.n	23fe6c4 <_ZN5Print7vprintfEbPKcSt9__va_list+0x26>

023fe700 <_ZN8RGBClass7controlEb>:
{
    return LED_RGB_IsOverRidden();
}

void RGBClass::control(bool override)
{
 23fe700:	b510      	push	{r4, lr}
 23fe702:	4604      	mov	r4, r0
    return LED_RGB_IsOverRidden();
 23fe704:	f7ff f828 	bl	23fd758 <LED_RGB_IsOverRidden>
    if (override == controlled()) {
 23fe708:	4284      	cmp	r4, r0
 23fe70a:	d008      	beq.n	23fe71e <_ZN8RGBClass7controlEb+0x1e>
        return;
    } else if (override) {
 23fe70c:	b11c      	cbz	r4, 23fe716 <_ZN8RGBClass7controlEb+0x16>
        LED_Signaling_Start();
    } else {
        LED_Signaling_Stop();
    }
}
 23fe70e:	e8bd 4010 	ldmia.w	sp!, {r4, lr}
        LED_Signaling_Start();
 23fe712:	f7ff b805 	b.w	23fd720 <LED_Signaling_Start>
}
 23fe716:	e8bd 4010 	ldmia.w	sp!, {r4, lr}
        LED_Signaling_Stop();
 23fe71a:	f7ff b80f 	b.w	23fd73c <LED_Signaling_Stop>
}
 23fe71e:	bd10      	pop	{r4, pc}

023fe720 <_ZN8RGBClass5colorEiii>:
void RGBClass::color(uint32_t rgb) {
    color((rgb>>16)&0xFF, (rgb>>8)&0xFF, (rgb)&0xFF);
}

void RGBClass::color(int red, int green, int blue)
{
 23fe720:	b570      	push	{r4, r5, r6, lr}
 23fe722:	4605      	mov	r5, r0
 23fe724:	460e      	mov	r6, r1
 23fe726:	4614      	mov	r4, r2
    return LED_RGB_IsOverRidden();
 23fe728:	f7ff f816 	bl	23fd758 <LED_RGB_IsOverRidden>
    if (!controlled()) {
 23fe72c:	b150      	cbz	r0, 23fe744 <_ZN8RGBClass5colorEiii+0x24>
        return;
    }
    LED_SetSignalingColor(red << 16 | green << 8 | blue);
 23fe72e:	ea44 2406 	orr.w	r4, r4, r6, lsl #8
 23fe732:	ea44 4005 	orr.w	r0, r4, r5, lsl #16
 23fe736:	f7fe ffe5 	bl	23fd704 <LED_SetSignalingColor>
    LED_On(PARTICLE_LED_RGB);
}
 23fe73a:	e8bd 4070 	ldmia.w	sp!, {r4, r5, r6, lr}
    LED_On(PARTICLE_LED_RGB);
 23fe73e:	20e7      	movs	r0, #231	; 0xe7
 23fe740:	f7ff b818 	b.w	23fd774 <LED_On>
}
 23fe744:	bd70      	pop	{r4, r5, r6, pc}
	...

023fe748 <_GLOBAL__sub_I_RGB>:
    _Function_base() : _M_manager(nullptr) { }
 23fe748:	2200      	movs	r2, #0
 23fe74a:	4b01      	ldr	r3, [pc, #4]	; (23fe750 <_GLOBAL__sub_I_RGB+0x8>)
 23fe74c:	609a      	str	r2, [r3, #8]
{
    RGBClass* const d = static_cast<RGBClass*>(data);
    if (d->changeHandler_) {
        d->changeHandler_(r, g, b);
    }
}
 23fe74e:	4770      	bx	lr
 23fe750:	1007af4c 	.word	0x1007af4c

023fe754 <_ZN8SPIClass6unlockEv.isra.0>:
  }

  void unlock()
  {
#if HAL_PLATFORM_SPI_HAL_THREAD_SAFETY
    hal_spi_release(_spi, nullptr);
 23fe754:	2100      	movs	r1, #0
 23fe756:	f7fe bef5 	b.w	23fd544 <hal_spi_release>

023fe75a <_ZN8SPIClass4lockEv.isra.0>:
    return hal_spi_acquire(_spi, nullptr);
 23fe75a:	2100      	movs	r1, #0
 23fe75c:	f7fe bee4 	b.w	23fd528 <hal_spi_acquire>

023fe760 <_ZN8SPIClassC1E19hal_spi_interface_t>:
    }
    return particle::SPISettings(info->clock, info->bit_order, info->data_mode);
}
} // namespace

SPIClass::SPIClass(hal_spi_interface_t spi)
 23fe760:	b510      	push	{r4, lr}
 23fe762:	4604      	mov	r4, r0
 23fe764:	4608      	mov	r0, r1
{
    _spi = spi;
 23fe766:	7021      	strb	r1, [r4, #0]
    hal_spi_init(_spi);
 23fe768:	f7fe fea6 	bl	23fd4b8 <hal_spi_init>
    _dividerReference = SPI_CLK_SYSTEM; // 0 indicates the system clock
 23fe76c:	2300      	movs	r3, #0
}
 23fe76e:	4620      	mov	r0, r4
    _dividerReference = SPI_CLK_SYSTEM; // 0 indicates the system clock
 23fe770:	6063      	str	r3, [r4, #4]
}
 23fe772:	bd10      	pop	{r4, pc}

023fe774 <_ZN8SPIClass5beginEv>:

void SPIClass::begin()
{
 23fe774:	b513      	push	{r0, r1, r4, lr}
 23fe776:	4604      	mov	r4, r0
    // TODO: Fetch default pin from HAL
    if (!lock())
 23fe778:	7800      	ldrb	r0, [r0, #0]
 23fe77a:	f7ff ffee 	bl	23fe75a <_ZN8SPIClass4lockEv.isra.0>
 23fe77e:	b958      	cbnz	r0, 23fe798 <_ZN8SPIClass5beginEv+0x24>
 23fe780:	7820      	ldrb	r0, [r4, #0]
    {
        hal_spi_begin(_spi, SPI_DEFAULT_SS);
 23fe782:	f64f 71ff 	movw	r1, #65535	; 0xffff
 23fe786:	9001      	str	r0, [sp, #4]
 23fe788:	f7fe fe7a 	bl	23fd480 <hal_spi_begin>
        unlock();
 23fe78c:	9801      	ldr	r0, [sp, #4]
    }
}
 23fe78e:	b002      	add	sp, #8
 23fe790:	e8bd 4010 	ldmia.w	sp!, {r4, lr}
 23fe794:	f7ff bfde 	b.w	23fe754 <_ZN8SPIClass6unlockEv.isra.0>
 23fe798:	b002      	add	sp, #8
 23fe79a:	bd10      	pop	{r4, pc}

023fe79c <_ZN8SPIClass14endTransactionEv>:
}

void SPIClass::endTransaction()
{
    // Release peripheral
    unlock();
 23fe79c:	7800      	ldrb	r0, [r0, #0]
 23fe79e:	f7ff bfd9 	b.w	23fe754 <_ZN8SPIClass6unlockEv.isra.0>
	...

023fe7a4 <_ZN8SPIClass19computeClockDividerEjjRhRj>:
    }
}

void SPIClass::computeClockDivider(unsigned reference, unsigned targetSpeed, uint8_t& divider,
                                   unsigned& clock)
{
 23fe7a4:	b530      	push	{r4, r5, lr}
    clock = reference;
    uint8_t scale = 0;
    clock >>= 1; // div2 is the first
 23fe7a6:	2400      	movs	r4, #0
 23fe7a8:	0840      	lsrs	r0, r0, #1
 23fe7aa:	6018      	str	r0, [r3, #0]
    while (clock > targetSpeed && scale < 7)
 23fe7ac:	6818      	ldr	r0, [r3, #0]
 23fe7ae:	b2e5      	uxtb	r5, r4
 23fe7b0:	4288      	cmp	r0, r1
 23fe7b2:	d906      	bls.n	23fe7c2 <_ZN8SPIClass19computeClockDividerEjjRhRj+0x1e>
 23fe7b4:	3401      	adds	r4, #1
 23fe7b6:	2c08      	cmp	r4, #8
 23fe7b8:	d002      	beq.n	23fe7c0 <_ZN8SPIClass19computeClockDividerEjjRhRj+0x1c>
    {
        clock >>= 1;
 23fe7ba:	0840      	lsrs	r0, r0, #1
 23fe7bc:	6018      	str	r0, [r3, #0]
    while (clock > targetSpeed && scale < 7)
 23fe7be:	e7f5      	b.n	23fe7ac <_ZN8SPIClass19computeClockDividerEjjRhRj+0x8>
 23fe7c0:	2507      	movs	r5, #7
        scale++;
    }
    divider = clock_divisors[scale];
 23fe7c2:	4b02      	ldr	r3, [pc, #8]	; (23fe7cc <_ZN8SPIClass19computeClockDividerEjjRhRj+0x28>)
 23fe7c4:	5d5b      	ldrb	r3, [r3, r5]
 23fe7c6:	7013      	strb	r3, [r2, #0]
}
 23fe7c8:	bd30      	pop	{r4, r5, pc}
 23fe7ca:	bf00      	nop
 23fe7cc:	023ffe80 	.word	0x023ffe80

023fe7d0 <_ZN8SPIClass16beginTransactionERKN8particle11SPISettingsE>:
{
 23fe7d0:	e92d 43f0 	stmdb	sp!, {r4, r5, r6, r7, r8, r9, lr}
 23fe7d4:	4606      	mov	r6, r0
 23fe7d6:	b08f      	sub	sp, #60	; 0x3c
    CHECK(lock());
 23fe7d8:	7800      	ldrb	r0, [r0, #0]
{
 23fe7da:	460c      	mov	r4, r1
    CHECK(lock());
 23fe7dc:	f7ff ffbd 	bl	23fe75a <_ZN8SPIClass4lockEv.isra.0>
 23fe7e0:	2800      	cmp	r0, #0
 23fe7e2:	db1b      	blt.n	23fe81c <_ZN8SPIClass16beginTransactionERKN8particle11SPISettingsE+0x4c>
    memset(info, 0, sizeof(hal_spi_info_t));
 23fe7e4:	2214      	movs	r2, #20
 23fe7e6:	2100      	movs	r1, #0
 23fe7e8:	a809      	add	r0, sp, #36	; 0x24
    querySpiInfo(_spi, &spi_info);
 23fe7ea:	7835      	ldrb	r5, [r6, #0]
    memset(info, 0, sizeof(hal_spi_info_t));
 23fe7ec:	f000 fc10 	bl	23ff010 <memset>
    info->version = HAL_SPI_INFO_VERSION_1;
 23fe7f0:	230b      	movs	r3, #11
    hal_spi_info(spi, info, nullptr);
 23fe7f2:	2200      	movs	r2, #0
 23fe7f4:	4628      	mov	r0, r5
 23fe7f6:	a909      	add	r1, sp, #36	; 0x24
    info->version = HAL_SPI_INFO_VERSION_1;
 23fe7f8:	f8ad 3024 	strh.w	r3, [sp, #36]	; 0x24
    hal_spi_info(spi, info, nullptr);
 23fe7fc:	f7fe fe78 	bl	23fd4f0 <hal_spi_info>
    if (!info || !info->enabled || info->default_settings)
 23fe800:	f89d 302d 	ldrb.w	r3, [sp, #45]	; 0x2d
 23fe804:	b113      	cbz	r3, 23fe80c <_ZN8SPIClass16beginTransactionERKN8particle11SPISettingsE+0x3c>
 23fe806:	f89d 502c 	ldrb.w	r5, [sp, #44]	; 0x2c
 23fe80a:	b155      	cbz	r5, 23fe822 <_ZN8SPIClass16beginTransactionERKN8particle11SPISettingsE+0x52>
  {
 23fe80c:	2700      	movs	r7, #0
 23fe80e:	2501      	movs	r5, #1
 23fe810:	46b9      	mov	r9, r7
 23fe812:	46b8      	mov	r8, r7
    if (default_ && other.default_)
 23fe814:	7923      	ldrb	r3, [r4, #4]
 23fe816:	b15d      	cbz	r5, 23fe830 <_ZN8SPIClass16beginTransactionERKN8particle11SPISettingsE+0x60>
 23fe818:	b1c3      	cbz	r3, 23fe84c <_ZN8SPIClass16beginTransactionERKN8particle11SPISettingsE+0x7c>
    return 0;
 23fe81a:	2000      	movs	r0, #0
}
 23fe81c:	b00f      	add	sp, #60	; 0x3c
 23fe81e:	e8bd 83f0 	ldmia.w	sp!, {r4, r5, r6, r7, r8, r9, pc}
    return particle::SPISettings(info->clock, info->bit_order, info->data_mode);
 23fe822:	f8dd 8030 	ldr.w	r8, [sp, #48]	; 0x30
 23fe826:	f89d 9034 	ldrb.w	r9, [sp, #52]	; 0x34
 23fe82a:	f89d 7035 	ldrb.w	r7, [sp, #53]	; 0x35
  }
 23fe82e:	e7f1      	b.n	23fe814 <_ZN8SPIClass16beginTransactionERKN8particle11SPISettingsE+0x44>
    if (default_ == other.default_ &&
 23fe830:	2b00      	cmp	r3, #0
 23fe832:	d135      	bne.n	23fe8a0 <_ZN8SPIClass16beginTransactionERKN8particle11SPISettingsE+0xd0>
 23fe834:	68a3      	ldr	r3, [r4, #8]
 23fe836:	4543      	cmp	r3, r8
 23fe838:	d108      	bne.n	23fe84c <_ZN8SPIClass16beginTransactionERKN8particle11SPISettingsE+0x7c>
        bitOrder_ == other.bitOrder_ &&
 23fe83a:	f88d 9020 	strb.w	r9, [sp, #32]
 23fe83e:	f88d 7021 	strb.w	r7, [sp, #33]	; 0x21
 23fe842:	f8bd 2020 	ldrh.w	r2, [sp, #32]
 23fe846:	89a3      	ldrh	r3, [r4, #12]
 23fe848:	429a      	cmp	r2, r3
 23fe84a:	d0e6      	beq.n	23fe81a <_ZN8SPIClass16beginTransactionERKN8particle11SPISettingsE+0x4a>
            uint8_t divisor = 0;
 23fe84c:	2300      	movs	r3, #0
            computeClockDivider((unsigned int)spi_info.system_clock, settings.clock_, divisor,
 23fe84e:	68a1      	ldr	r1, [r4, #8]
            uint8_t divisor = 0;
 23fe850:	f88d 300f 	strb.w	r3, [sp, #15]
            computeClockDivider((unsigned int)spi_info.system_clock, settings.clock_, divisor,
 23fe854:	980a      	ldr	r0, [sp, #40]	; 0x28
 23fe856:	ab04      	add	r3, sp, #16
 23fe858:	f10d 020f 	add.w	r2, sp, #15
 23fe85c:	f7ff ffa2 	bl	23fe7a4 <_ZN8SPIClass19computeClockDividerEjjRhRj>
    if (default_ && other.default_)
 23fe860:	7921      	ldrb	r1, [r4, #4]
 23fe862:	b985      	cbnz	r5, 23fe886 <_ZN8SPIClass16beginTransactionERKN8particle11SPISettingsE+0xb6>
    if (default_ == other.default_ &&
 23fe864:	b989      	cbnz	r1, 23fe88a <_ZN8SPIClass16beginTransactionERKN8particle11SPISettingsE+0xba>
 23fe866:	68a3      	ldr	r3, [r4, #8]
 23fe868:	4543      	cmp	r3, r8
 23fe86a:	d30e      	bcc.n	23fe88a <_ZN8SPIClass16beginTransactionERKN8particle11SPISettingsE+0xba>
        bitOrder_ == other.bitOrder_ &&
 23fe86c:	f88d 9020 	strb.w	r9, [sp, #32]
 23fe870:	f88d 7021 	strb.w	r7, [sp, #33]	; 0x21
 23fe874:	f8bd 2020 	ldrh.w	r2, [sp, #32]
 23fe878:	89a3      	ldrh	r3, [r4, #12]
 23fe87a:	429a      	cmp	r2, r3
 23fe87c:	d105      	bne.n	23fe88a <_ZN8SPIClass16beginTransactionERKN8particle11SPISettingsE+0xba>
            if (!(spi_settings <= settings && clock == spi_settings.clock_))
 23fe87e:	9b04      	ldr	r3, [sp, #16]
 23fe880:	4543      	cmp	r3, r8
 23fe882:	d102      	bne.n	23fe88a <_ZN8SPIClass16beginTransactionERKN8particle11SPISettingsE+0xba>
 23fe884:	e7c9      	b.n	23fe81a <_ZN8SPIClass16beginTransactionERKN8particle11SPISettingsE+0x4a>
    if (default_ && other.default_)
 23fe886:	2900      	cmp	r1, #0
 23fe888:	d1f9      	bne.n	23fe87e <_ZN8SPIClass16beginTransactionERKN8particle11SPISettingsE+0xae>
                hal_spi_set_settings(_spi, settings.default_, divisor, settings.bitOrder_,
 23fe88a:	2300      	movs	r3, #0
 23fe88c:	9301      	str	r3, [sp, #4]
 23fe88e:	7b63      	ldrb	r3, [r4, #13]
 23fe890:	f89d 200f 	ldrb.w	r2, [sp, #15]
 23fe894:	9300      	str	r3, [sp, #0]
 23fe896:	7b23      	ldrb	r3, [r4, #12]
            hal_spi_set_settings(_spi, settings.default_, 0, 0, 0, nullptr);
 23fe898:	7830      	ldrb	r0, [r6, #0]
 23fe89a:	f7fe fe37 	bl	23fd50c <hal_spi_set_settings>
 23fe89e:	e7bc      	b.n	23fe81a <_ZN8SPIClass16beginTransactionERKN8particle11SPISettingsE+0x4a>
 23fe8a0:	462b      	mov	r3, r5
 23fe8a2:	462a      	mov	r2, r5
 23fe8a4:	2101      	movs	r1, #1
 23fe8a6:	e9cd 5500 	strd	r5, r5, [sp]
 23fe8aa:	e7f5      	b.n	23fe898 <_ZN8SPIClass16beginTransactionERKN8particle11SPISettingsE+0xc8>

023fe8ac <_ZN8SPIClass8transferEh>:

    return clock;
}

byte SPIClass::transfer(byte _data)
{
 23fe8ac:	b508      	push	{r3, lr}
    return static_cast<byte>(hal_spi_transfer(_spi, _data));
 23fe8ae:	7800      	ldrb	r0, [r0, #0]
 23fe8b0:	f7fe fdf4 	bl	23fd49c <hal_spi_transfer>
}
 23fe8b4:	b2c0      	uxtb	r0, r0
 23fe8b6:	bd08      	pop	{r3, pc}

023fe8b8 <_ZN6Stream9timedReadEv>:
#define PARSE_TIMEOUT 1000  // default number of milli-seconds to wait
#define NO_SKIP_CHAR  1  // a magic char not found in a valid ASCII numeric field

// private method to read stream with timeout
int Stream::timedRead()
{
 23fe8b8:	b510      	push	{r4, lr}
 23fe8ba:	4604      	mov	r4, r0

#ifdef __cplusplus
extern "C" {
#endif

inline system_tick_t millis(void) { return HAL_Timer_Get_Milli_Seconds(); }
 23fe8bc:	f7fe fc90 	bl	23fd1e0 <HAL_Timer_Get_Milli_Seconds>
  int c;
  _startMillis = millis();
 23fe8c0:	60e0      	str	r0, [r4, #12]
  do {
    c = read();
 23fe8c2:	6823      	ldr	r3, [r4, #0]
 23fe8c4:	4620      	mov	r0, r4
 23fe8c6:	695b      	ldr	r3, [r3, #20]
 23fe8c8:	4798      	blx	r3
    if (c >= 0) return c;
 23fe8ca:	2800      	cmp	r0, #0
 23fe8cc:	da08      	bge.n	23fe8e0 <_ZN6Stream9timedReadEv+0x28>
 23fe8ce:	f7fe fc87 	bl	23fd1e0 <HAL_Timer_Get_Milli_Seconds>
  } while(millis() - _startMillis < _timeout);
 23fe8d2:	68e3      	ldr	r3, [r4, #12]
 23fe8d4:	1ac0      	subs	r0, r0, r3
 23fe8d6:	68a3      	ldr	r3, [r4, #8]
 23fe8d8:	4298      	cmp	r0, r3
 23fe8da:	d3f2      	bcc.n	23fe8c2 <_ZN6Stream9timedReadEv+0xa>
  return -1;     // -1 indicates timeout
 23fe8dc:	f04f 30ff 	mov.w	r0, #4294967295	; 0xffffffff
}
 23fe8e0:	bd10      	pop	{r4, pc}

023fe8e2 <_ZN6Stream9readBytesEPcj>:
// terminates if length characters have been read, or timeout (see setTimeout)
// returns the number of characters placed in the buffer
// the buffer is NOT null terminated.
//
size_t Stream::readBytes(char *buffer, size_t length)
{
 23fe8e2:	e92d 41f0 	stmdb	sp!, {r4, r5, r6, r7, r8, lr}
 23fe8e6:	4607      	mov	r7, r0
 23fe8e8:	460c      	mov	r4, r1
 23fe8ea:	460d      	mov	r5, r1
 23fe8ec:	188e      	adds	r6, r1, r2
  size_t count = 0;
  while (count < length) {
 23fe8ee:	42b5      	cmp	r5, r6
 23fe8f0:	eba5 0804 	sub.w	r8, r5, r4
 23fe8f4:	d007      	beq.n	23fe906 <_ZN6Stream9readBytesEPcj+0x24>
    int c = timedRead();
 23fe8f6:	4638      	mov	r0, r7
 23fe8f8:	f7ff ffde 	bl	23fe8b8 <_ZN6Stream9timedReadEv>
    if (c < 0) break;
 23fe8fc:	1e03      	subs	r3, r0, #0
 23fe8fe:	db02      	blt.n	23fe906 <_ZN6Stream9readBytesEPcj+0x24>
    *buffer++ = (char)c;
 23fe900:	f805 3b01 	strb.w	r3, [r5], #1
  while (count < length) {
 23fe904:	e7f3      	b.n	23fe8ee <_ZN6Stream9readBytesEPcj+0xc>
    count++;
  }
  return count;
}
 23fe906:	4640      	mov	r0, r8
 23fe908:	e8bd 81f0 	ldmia.w	sp!, {r4, r5, r6, r7, r8, pc}

023fe90c <_GLOBAL__sub_I_System>:
} // namespace particle

// particle::Flag<TagT, ValueT>
template<typename TagT, typename ValueT>
inline particle::Flag<TagT, ValueT>::Flag(ValueT val) :
        val_(val) {
 23fe90c:	2202      	movs	r2, #2

class SystemSleepResult {
public:
    SystemSleepResult()
            : wakeupSource_(nullptr),
              error_(SYSTEM_ERROR_NONE) {
 23fe90e:	2000      	movs	r0, #0
 23fe910:	4b04      	ldr	r3, [pc, #16]	; (23fe924 <_GLOBAL__sub_I_System+0x18>)
 23fe912:	601a      	str	r2, [r3, #0]
 23fe914:	4b04      	ldr	r3, [pc, #16]	; (23fe928 <_GLOBAL__sub_I_System+0x1c>)
    SleepResult() {}
 23fe916:	4a05      	ldr	r2, [pc, #20]	; (23fe92c <_GLOBAL__sub_I_System+0x20>)
              error_(SYSTEM_ERROR_NONE) {
 23fe918:	e9c3 0000 	strd	r0, r0, [r3]
    SleepResult() {}
 23fe91c:	609a      	str	r2, [r3, #8]

class SystemClass {
public:

    SystemClass(System_Mode_TypeDef mode = DEFAULT) {
        set_system_mode(mode);
 23fe91e:	f7fe bf45 	b.w	23fd7ac <set_system_mode>
 23fe922:	bf00      	nop
 23fe924:	1007af68 	.word	0x1007af68
 23fe928:	1007af5c 	.word	0x1007af5c
 23fe92c:	ffff0000 	.word	0xffff0000

023fe930 <_GLOBAL__sub_I_TIME_FORMAT_DEFAULT>:
            calendar_time_cache = Convert_UnixTime_To_CalendarTime(unix_time);
            unix_time_cache = unix_time;
    }
}

const char* TimeClass::format_spec = TIME_FORMAT_DEFAULT;
 23fe930:	4b02      	ldr	r3, [pc, #8]	; (23fe93c <_GLOBAL__sub_I_TIME_FORMAT_DEFAULT+0xc>)
 23fe932:	681a      	ldr	r2, [r3, #0]
 23fe934:	4b02      	ldr	r3, [pc, #8]	; (23fe940 <_GLOBAL__sub_I_TIME_FORMAT_DEFAULT+0x10>)
 23fe936:	601a      	str	r2, [r3, #0]
{
  return isValid();
}


TimeClass Time;
 23fe938:	4770      	bx	lr
 23fe93a:	bf00      	nop
 23fe93c:	1007adb4 	.word	0x1007adb4
 23fe940:	1007af6c 	.word	0x1007af6c

023fe944 <tone>:

#include "spark_wiring_tone.h"
#include "tone_hal.h"

void tone(uint8_t pin, unsigned int frequency, unsigned long duration)
{
 23fe944:	b5f8      	push	{r3, r4, r5, r6, r7, lr}
    if (pinAvailable(pin) && hal_pin_validate_function(pin, PF_TIMER)==PF_TIMER) {
 23fe946:	b287      	uxth	r7, r0
{
 23fe948:	4604      	mov	r4, r0
    if (pinAvailable(pin) && hal_pin_validate_function(pin, PF_TIMER)==PF_TIMER) {
 23fe94a:	4638      	mov	r0, r7
{
 23fe94c:	460d      	mov	r5, r1
 23fe94e:	4616      	mov	r6, r2
    if (pinAvailable(pin) && hal_pin_validate_function(pin, PF_TIMER)==PF_TIMER) {
 23fe950:	f000 f9cc 	bl	23fecec <pinAvailable>
 23fe954:	b160      	cbz	r0, 23fe970 <tone+0x2c>
 23fe956:	2102      	movs	r1, #2
 23fe958:	4638      	mov	r0, r7
 23fe95a:	f7fe fc5d 	bl	23fd218 <hal_pin_validate_function>
 23fe95e:	2802      	cmp	r0, #2
 23fe960:	d106      	bne.n	23fe970 <tone+0x2c>
        HAL_Tone_Start(pin, frequency, duration);
 23fe962:	4632      	mov	r2, r6
 23fe964:	4629      	mov	r1, r5
 23fe966:	4620      	mov	r0, r4
    }
}
 23fe968:	e8bd 40f8 	ldmia.w	sp!, {r3, r4, r5, r6, r7, lr}
        HAL_Tone_Start(pin, frequency, duration);
 23fe96c:	f7fe bd7a 	b.w	23fd464 <HAL_Tone_Start>
}
 23fe970:	bdf8      	pop	{r3, r4, r5, r6, r7, pc}

023fe972 <_ZN11USARTSerialD1Ev>:
private:
  hal_usart_interface_t _serial;
  bool _blocking;
public:
  USARTSerial(hal_usart_interface_t serial, const hal_usart_buffer_config_t& config);
  virtual ~USARTSerial() {};
 23fe972:	4770      	bx	lr

023fe974 <_ZN11USARTSerial14blockOnOverrunEb>:
    hal_usart_half_duplex(_serial, Enable);
}

void USARTSerial::blockOnOverrun(bool block)
{
  _blocking = block;
 23fe974:	7441      	strb	r1, [r0, #17]
}
 23fe976:	4770      	bx	lr

023fe978 <_ZN11USARTSerial17availableForWriteEv>:


int USARTSerial::availableForWrite(void)
{
 23fe978:	b508      	push	{r3, lr}
  return std::max(0, (int)hal_usart_available_data_for_write(_serial));
 23fe97a:	7c00      	ldrb	r0, [r0, #16]
 23fe97c:	f7fe fe44 	bl	23fd608 <hal_usart_available_data_for_write>
}
 23fe980:	ea20 70e0 	bic.w	r0, r0, r0, asr #31
 23fe984:	bd08      	pop	{r3, pc}

023fe986 <_ZN11USARTSerial9availableEv>:

int USARTSerial::available(void)
{
 23fe986:	b508      	push	{r3, lr}
  return std::max(0, (int)hal_usart_available(_serial));
 23fe988:	7c00      	ldrb	r0, [r0, #16]
 23fe98a:	f7fe fdf7 	bl	23fd57c <hal_usart_available>
}
 23fe98e:	ea20 70e0 	bic.w	r0, r0, r0, asr #31
 23fe992:	bd08      	pop	{r3, pc}

023fe994 <_ZN11USARTSerial4peekEv>:

int USARTSerial::peek(void)
{
 23fe994:	b508      	push	{r3, lr}
  return std::max(-1, (int)hal_usart_peek(_serial));
 23fe996:	7c00      	ldrb	r0, [r0, #16]
 23fe998:	f7fe fe0c 	bl	23fd5b4 <hal_usart_peek>
}
 23fe99c:	ea40 70e0 	orr.w	r0, r0, r0, asr #31
 23fe9a0:	bd08      	pop	{r3, pc}

023fe9a2 <_ZN11USARTSerial4readEv>:

int USARTSerial::read(void)
{
 23fe9a2:	b508      	push	{r3, lr}
  return std::max(-1, (int)hal_usart_read(_serial));
 23fe9a4:	7c00      	ldrb	r0, [r0, #16]
 23fe9a6:	f7fe fdf7 	bl	23fd598 <hal_usart_read>
}
 23fe9aa:	ea40 70e0 	orr.w	r0, r0, r0, asr #31
 23fe9ae:	bd08      	pop	{r3, pc}

023fe9b0 <_ZN11USARTSerial5flushEv>:

void USARTSerial::flush()
{
  hal_usart_flush(_serial);
 23fe9b0:	7c00      	ldrb	r0, [r0, #16]
 23fe9b2:	f7fe be0d 	b.w	23fd5d0 <hal_usart_flush>

023fe9b6 <_ZN11USARTSerial5writeEh>:
}

size_t USARTSerial::write(uint8_t c)
{
 23fe9b6:	b537      	push	{r0, r1, r2, r4, r5, lr}
  // attempt a write if blocking, or for non-blocking if there is room.
  if (_blocking || hal_usart_available_data_for_write(_serial) > 0) {
 23fe9b8:	7c45      	ldrb	r5, [r0, #17]
{
 23fe9ba:	4604      	mov	r4, r0
  if (_blocking || hal_usart_available_data_for_write(_serial) > 0) {
 23fe9bc:	b12d      	cbz	r5, 23fe9ca <_ZN11USARTSerial5writeEh+0x14>
    // the HAL always blocks.
	  return hal_usart_write(_serial, c);
 23fe9be:	7c20      	ldrb	r0, [r4, #16]
  }
  return 0;
}
 23fe9c0:	b003      	add	sp, #12
 23fe9c2:	e8bd 4030 	ldmia.w	sp!, {r4, r5, lr}
	  return hal_usart_write(_serial, c);
 23fe9c6:	f7fe bdcb 	b.w	23fd560 <hal_usart_write>
  if (_blocking || hal_usart_available_data_for_write(_serial) > 0) {
 23fe9ca:	7c00      	ldrb	r0, [r0, #16]
 23fe9cc:	9101      	str	r1, [sp, #4]
 23fe9ce:	f7fe fe1b 	bl	23fd608 <hal_usart_available_data_for_write>
 23fe9d2:	2800      	cmp	r0, #0
 23fe9d4:	9901      	ldr	r1, [sp, #4]
 23fe9d6:	dcf2      	bgt.n	23fe9be <_ZN11USARTSerial5writeEh+0x8>
}
 23fe9d8:	4628      	mov	r0, r5
 23fe9da:	b003      	add	sp, #12
 23fe9dc:	bd30      	pop	{r4, r5, pc}

023fe9de <_ZN11USARTSerialD0Ev>:
 23fe9de:	b510      	push	{r4, lr}
 23fe9e0:	4604      	mov	r4, r0
 23fe9e2:	2114      	movs	r1, #20
 23fe9e4:	f7fc fe89 	bl	23fb6fa <_ZdlPvj>
 23fe9e8:	4620      	mov	r0, r4
 23fe9ea:	bd10      	pop	{r4, pc}

023fe9ec <_ZN11USARTSerialC1E21hal_usart_interface_tRK25hal_usart_buffer_config_t>:
USARTSerial::USARTSerial(hal_usart_interface_t serial, const hal_usart_buffer_config_t& config)
 23fe9ec:	b510      	push	{r4, lr}
 23fe9ee:	f44f 737a 	mov.w	r3, #1000	; 0x3e8
 23fe9f2:	4604      	mov	r4, r0
 23fe9f4:	4608      	mov	r0, r1
 23fe9f6:	4611      	mov	r1, r2
 23fe9f8:	2200      	movs	r2, #0
 23fe9fa:	e9c4 2301 	strd	r2, r3, [r4, #4]
 23fe9fe:	4b04      	ldr	r3, [pc, #16]	; (23fea10 <_ZN11USARTSerialC1E21hal_usart_interface_tRK25hal_usart_buffer_config_t+0x24>)
  _serial = serial;
 23fea00:	7420      	strb	r0, [r4, #16]
USARTSerial::USARTSerial(hal_usart_interface_t serial, const hal_usart_buffer_config_t& config)
 23fea02:	6023      	str	r3, [r4, #0]
  _blocking = true;
 23fea04:	2301      	movs	r3, #1
 23fea06:	7463      	strb	r3, [r4, #17]
  hal_usart_init_ex(serial, &config, nullptr);
 23fea08:	f7fe fe0c 	bl	23fd624 <hal_usart_init_ex>
}
 23fea0c:	4620      	mov	r0, r4
 23fea0e:	bd10      	pop	{r4, pc}
 23fea10:	023ffeac 	.word	0x023ffeac

023fea14 <_ZN11USARTSerial9isEnabledEv>:
USARTSerial::operator bool() {
  return true;
}

bool USARTSerial::isEnabled() {
  return hal_usart_is_enabled(_serial);
 23fea14:	7c00      	ldrb	r0, [r0, #16]
 23fea16:	f7fe bde9 	b.w	23fd5ec <hal_usart_is_enabled>

023fea1a <_ZN9USBSerial14blockOnOverrunEb>:
  HAL_USB_USART_Flush_Data(_serial);
}

void USBSerial::blockOnOverrun(bool block)
{
  _blocking = block;
 23fea1a:	7441      	strb	r1, [r0, #17]
}
 23fea1c:	4770      	bx	lr

023fea1e <__tcf_0>:
}

USBSerial& _fetch_usbserial()
{
  HAL_USB_USART_Config conf = acquireSerialBuffer();
	static USBSerial _usbserial(HAL_USB_USART_SERIAL, conf);
 23fea1e:	4770      	bx	lr

023fea20 <_ZN9USBSerialD1Ev>:
#include "usb_hal.h"
#include "system_task.h"
#include "spark_wiring_startup.h"
#include "concurrent_hal.h"

class USBSerial : public Stream
 23fea20:	4770      	bx	lr

023fea22 <_ZN9USBSerial4readEv>:
{
 23fea22:	b508      	push	{r3, lr}
	return std::max(-1, (int)HAL_USB_USART_Receive_Data(_serial, false));
 23fea24:	2100      	movs	r1, #0
 23fea26:	7c00      	ldrb	r0, [r0, #16]
 23fea28:	f7fe fe42 	bl	23fd6b0 <HAL_USB_USART_Receive_Data>
}
 23fea2c:	ea40 70e0 	orr.w	r0, r0, r0, asr #31
 23fea30:	bd08      	pop	{r3, pc}

023fea32 <_ZN9USBSerial4peekEv>:
{
 23fea32:	b508      	push	{r3, lr}
	return std::max(-1, (int)HAL_USB_USART_Receive_Data(_serial, true));
 23fea34:	2101      	movs	r1, #1
 23fea36:	7c00      	ldrb	r0, [r0, #16]
 23fea38:	f7fe fe3a 	bl	23fd6b0 <HAL_USB_USART_Receive_Data>
}
 23fea3c:	ea40 70e0 	orr.w	r0, r0, r0, asr #31
 23fea40:	bd08      	pop	{r3, pc}

023fea42 <_ZN9USBSerial17availableForWriteEv>:
{
 23fea42:	b508      	push	{r3, lr}
  return std::max(0, (int)HAL_USB_USART_Available_Data_For_Write(_serial));
 23fea44:	7c00      	ldrb	r0, [r0, #16]
 23fea46:	f7fe fe25 	bl	23fd694 <HAL_USB_USART_Available_Data_For_Write>
}
 23fea4a:	ea20 70e0 	bic.w	r0, r0, r0, asr #31
 23fea4e:	bd08      	pop	{r3, pc}

023fea50 <_ZN9USBSerial9availableEv>:
{
 23fea50:	b508      	push	{r3, lr}
	return std::max(0, (int)HAL_USB_USART_Available_Data(_serial));
 23fea52:	7c00      	ldrb	r0, [r0, #16]
 23fea54:	f7fe fe10 	bl	23fd678 <HAL_USB_USART_Available_Data>
}
 23fea58:	ea20 70e0 	bic.w	r0, r0, r0, asr #31
 23fea5c:	bd08      	pop	{r3, pc}

023fea5e <_ZN9USBSerial5writeEh>:
{
 23fea5e:	b513      	push	{r0, r1, r4, lr}
 23fea60:	4604      	mov	r4, r0
  if (HAL_USB_USART_Available_Data_For_Write(_serial) > 0 || _blocking) {
 23fea62:	7c00      	ldrb	r0, [r0, #16]
{
 23fea64:	9101      	str	r1, [sp, #4]
  if (HAL_USB_USART_Available_Data_For_Write(_serial) > 0 || _blocking) {
 23fea66:	f7fe fe15 	bl	23fd694 <HAL_USB_USART_Available_Data_For_Write>
 23fea6a:	2800      	cmp	r0, #0
 23fea6c:	9901      	ldr	r1, [sp, #4]
 23fea6e:	dc01      	bgt.n	23fea74 <_ZN9USBSerial5writeEh+0x16>
 23fea70:	7c60      	ldrb	r0, [r4, #17]
 23fea72:	b120      	cbz	r0, 23fea7e <_ZN9USBSerial5writeEh+0x20>
    return std::max(0, (int)HAL_USB_USART_Send_Data(_serial, byte));
 23fea74:	7c20      	ldrb	r0, [r4, #16]
 23fea76:	f7fe fe29 	bl	23fd6cc <HAL_USB_USART_Send_Data>
 23fea7a:	ea20 70e0 	bic.w	r0, r0, r0, asr #31
}
 23fea7e:	b002      	add	sp, #8
 23fea80:	bd10      	pop	{r4, pc}

023fea82 <_ZN9USBSerial5flushEv>:
  HAL_USB_USART_Flush_Data(_serial);
 23fea82:	7c00      	ldrb	r0, [r0, #16]
 23fea84:	f7fe be30 	b.w	23fd6e8 <HAL_USB_USART_Flush_Data>

023fea88 <_ZN9USBSerialD0Ev>:
 23fea88:	b510      	push	{r4, lr}
 23fea8a:	4604      	mov	r4, r0
 23fea8c:	2114      	movs	r1, #20
 23fea8e:	f7fc fe34 	bl	23fb6fa <_ZdlPvj>
 23fea92:	4620      	mov	r0, r4
 23fea94:	bd10      	pop	{r4, pc}
	...

023fea98 <_ZN9USBSerialC1E20HAL_USB_USART_SerialRK20HAL_USB_USART_Config>:
USBSerial::USBSerial(HAL_USB_USART_Serial serial, const HAL_USB_USART_Config& conf)
 23fea98:	b510      	push	{r4, lr}
 23fea9a:	f44f 737a 	mov.w	r3, #1000	; 0x3e8
 23fea9e:	4604      	mov	r4, r0
 23feaa0:	4608      	mov	r0, r1
 23feaa2:	2100      	movs	r1, #0
 23feaa4:	e9c4 1301 	strd	r1, r3, [r4, #4]
 23feaa8:	4b04      	ldr	r3, [pc, #16]	; (23feabc <_ZN9USBSerialC1E20HAL_USB_USART_SerialRK20HAL_USB_USART_Config+0x24>)
  _serial = serial;
 23feaaa:	7420      	strb	r0, [r4, #16]
USBSerial::USBSerial(HAL_USB_USART_Serial serial, const HAL_USB_USART_Config& conf)
 23feaac:	6023      	str	r3, [r4, #0]
  _blocking = true;
 23feaae:	2301      	movs	r3, #1
  HAL_USB_USART_Init(_serial, &conf);
 23feab0:	4611      	mov	r1, r2
  _blocking = true;
 23feab2:	7463      	strb	r3, [r4, #17]
  HAL_USB_USART_Init(_serial, &conf);
 23feab4:	f7fe fdc4 	bl	23fd640 <HAL_USB_USART_Init>
}
 23feab8:	4620      	mov	r0, r4
 23feaba:	bd10      	pop	{r4, pc}
 23feabc:	023ffee0 	.word	0x023ffee0

023feac0 <_ZN9USBSerial5beginEl>:
    HAL_USB_USART_Begin(_serial, speed, NULL);
 23feac0:	2200      	movs	r2, #0
 23feac2:	7c00      	ldrb	r0, [r0, #16]
 23feac4:	f7fe bdca 	b.w	23fd65c <HAL_USB_USART_Begin>

023feac8 <_Z19acquireSerialBufferv>:
{
 23feac8:	b510      	push	{r4, lr}
 23feaca:	4604      	mov	r4, r0
  HAL_USB_USART_Config conf = {};
 23feacc:	2214      	movs	r2, #20
 23feace:	2100      	movs	r1, #0
 23fead0:	f000 fa9e 	bl	23ff010 <memset>
}
 23fead4:	4620      	mov	r0, r4
 23fead6:	bd10      	pop	{r4, pc}

023fead8 <_Z16_fetch_usbserialv>:
{
 23fead8:	b510      	push	{r4, lr}
 23feada:	b088      	sub	sp, #32
  HAL_USB_USART_Config conf = acquireSerialBuffer();
 23feadc:	a803      	add	r0, sp, #12
 23feade:	f7ff fff3 	bl	23feac8 <_Z19acquireSerialBufferv>
	static USBSerial _usbserial(HAL_USB_USART_SERIAL, conf);
 23feae2:	4c0c      	ldr	r4, [pc, #48]	; (23feb14 <_Z16_fetch_usbserialv+0x3c>)
 23feae4:	e8d4 1f8f 	ldab	r1, [r4]
 23feae8:	f011 0101 	ands.w	r1, r1, #1
 23feaec:	d10f      	bne.n	23feb0e <_Z16_fetch_usbserialv+0x36>
 23feaee:	4620      	mov	r0, r4
 23feaf0:	9101      	str	r1, [sp, #4]
 23feaf2:	f7ff f81b 	bl	23fdb2c <__cxa_guard_acquire>
 23feaf6:	9901      	ldr	r1, [sp, #4]
 23feaf8:	b148      	cbz	r0, 23feb0e <_Z16_fetch_usbserialv+0x36>
 23feafa:	aa03      	add	r2, sp, #12
 23feafc:	4806      	ldr	r0, [pc, #24]	; (23feb18 <_Z16_fetch_usbserialv+0x40>)
 23feafe:	f7ff ffcb 	bl	23fea98 <_ZN9USBSerialC1E20HAL_USB_USART_SerialRK20HAL_USB_USART_Config>
 23feb02:	4620      	mov	r0, r4
 23feb04:	f7ff f820 	bl	23fdb48 <__cxa_guard_release>
 23feb08:	4804      	ldr	r0, [pc, #16]	; (23feb1c <_Z16_fetch_usbserialv+0x44>)
 23feb0a:	f000 fa6e 	bl	23fefea <atexit>
	return _usbserial;
}
 23feb0e:	4802      	ldr	r0, [pc, #8]	; (23feb18 <_Z16_fetch_usbserialv+0x40>)
 23feb10:	b008      	add	sp, #32
 23feb12:	bd10      	pop	{r4, pc}
 23feb14:	1007af70 	.word	0x1007af70
 23feb18:	1007af74 	.word	0x1007af74
 23feb1c:	023fea1f 	.word	0x023fea1f

023feb20 <_ZN5spark9WiFiClass5readyEv>:
    bool connecting(void) {
        return network_connecting(*this, 0, NULL);
    }

    bool ready(void) {
        return network_ready(*this, 0, NULL);
 23feb20:	2200      	movs	r2, #0
 23feb22:	6840      	ldr	r0, [r0, #4]
 23feb24:	4611      	mov	r1, r2
 23feb26:	f7fe bf05 	b.w	23fd934 <network_ready>

023feb2a <_ZN5spark9WiFiClass9listeningEv>:
    uint16_t getListenTimeout(void) {
        return network_get_listen_timeout(*this, 0, NULL);
    }

    bool listening(void) {
        return network_listening(*this, 0, NULL);
 23feb2a:	2200      	movs	r2, #0
 23feb2c:	6840      	ldr	r0, [r0, #4]
 23feb2e:	4611      	mov	r1, r2
 23feb30:	f7fe bf38 	b.w	23fd9a4 <network_listening>

023feb34 <_ZN5spark9WiFiClass16getListenTimeoutEv>:
        return network_get_listen_timeout(*this, 0, NULL);
 23feb34:	2200      	movs	r2, #0
 23feb36:	6840      	ldr	r0, [r0, #4]
 23feb38:	4611      	mov	r1, r2
 23feb3a:	f7fe bf4f 	b.w	23fd9dc <network_get_listen_timeout>

023feb3e <_ZN5spark9WiFiClass16setListenTimeoutEt>:
        network_set_listen_timeout(*this, timeout, NULL);
 23feb3e:	2200      	movs	r2, #0
 23feb40:	6840      	ldr	r0, [r0, #4]
 23feb42:	f7fe bf3d 	b.w	23fd9c0 <network_set_listen_timeout>

023feb46 <_ZN5spark9WiFiClass6listenEb>:
        network_listen(*this, begin ? 0 : 1, NULL);
 23feb46:	2200      	movs	r2, #0
 23feb48:	6840      	ldr	r0, [r0, #4]
 23feb4a:	f081 0101 	eor.w	r1, r1, #1
 23feb4e:	f7fe bf1b 	b.w	23fd988 <network_listen>

023feb52 <_ZN5spark9WiFiClass3offEv>:
        network_off(*this, 0, 0, NULL);
 23feb52:	2300      	movs	r3, #0
 23feb54:	6840      	ldr	r0, [r0, #4]
 23feb56:	461a      	mov	r2, r3
 23feb58:	4619      	mov	r1, r3
 23feb5a:	f7fe bf07 	b.w	23fd96c <network_off>

023feb5e <_ZN5spark9WiFiClass2onEv>:
        network_on(*this, 0, 0, NULL);
 23feb5e:	2300      	movs	r3, #0
 23feb60:	6840      	ldr	r0, [r0, #4]
 23feb62:	461a      	mov	r2, r3
 23feb64:	4619      	mov	r1, r3
 23feb66:	f7fe bef3 	b.w	23fd950 <network_on>

023feb6a <_ZN5spark9WiFiClass10connectingEv>:
        return network_connecting(*this, 0, NULL);
 23feb6a:	2200      	movs	r2, #0
 23feb6c:	6840      	ldr	r0, [r0, #4]
 23feb6e:	4611      	mov	r1, r2
 23feb70:	f7fe bec4 	b.w	23fd8fc <network_connecting>

023feb74 <_ZN5spark9WiFiClass10disconnectEv>:
        network_disconnect(*this, NETWORK_DISCONNECT_REASON_USER, NULL);
 23feb74:	2200      	movs	r2, #0
 23feb76:	2102      	movs	r1, #2
 23feb78:	6840      	ldr	r0, [r0, #4]
 23feb7a:	f7fe becd 	b.w	23fd918 <network_disconnect>

023feb7e <_ZN5spark9WiFiClass7connectEj>:
        network_connect(*this, flags, 0, NULL);
 23feb7e:	2300      	movs	r3, #0
 23feb80:	6840      	ldr	r0, [r0, #4]
 23feb82:	461a      	mov	r2, r3
 23feb84:	f7fe beac 	b.w	23fd8e0 <network_connect>

023feb88 <_GLOBAL__sub_I__ZN10WiFiSignalC2ERK21wlan_connected_info_t>:
 23feb88:	2204      	movs	r2, #4
 23feb8a:	4b02      	ldr	r3, [pc, #8]	; (23feb94 <_GLOBAL__sub_I__ZN10WiFiSignalC2ERK21wlan_connected_info_t+0xc>)
 23feb8c:	605a      	str	r2, [r3, #4]
            NetworkClass(NETWORK_INTERFACE_WIFI_STA) {
 23feb8e:	4a02      	ldr	r2, [pc, #8]	; (23feb98 <_GLOBAL__sub_I__ZN10WiFiSignalC2ERK21wlan_connected_info_t+0x10>)
 23feb90:	601a      	str	r2, [r3, #0]
the same way.
*****************************************************************************/

    WiFiClass WiFi;
    // NetworkClass& Network = WiFi;
}
 23feb92:	4770      	bx	lr
 23feb94:	1007af88 	.word	0x1007af88
 23feb98:	023fff14 	.word	0x023fff14

023feb9c <_ZZ21module_user_init_hookENUlP6_reentjmPvE_4_FUNES0_jmS1_>:

void module_user_init_hook()
{
#if HAL_PLATFORM_NEWLIB
    newlib_impure_ptr_callback([](struct _reent* r, size_t size, uint32_t version, void* ctx) -> void {
        _impure_ptr = r;
 23feb9c:	4b01      	ldr	r3, [pc, #4]	; (23feba4 <_ZZ21module_user_init_hookENUlP6_reentjmPvE_4_FUNES0_jmS1_+0x8>)
 23feb9e:	6018      	str	r0, [r3, #0]
    }, nullptr);
 23feba0:	4770      	bx	lr
 23feba2:	bf00      	nop
 23feba4:	1007adb8 	.word	0x1007adb8

023feba8 <serialEventRun>:
{
 23feba8:	b508      	push	{r3, lr}
    if (serialEvent && Serial.available()>0)
 23febaa:	4b0f      	ldr	r3, [pc, #60]	; (23febe8 <serialEventRun+0x40>)
 23febac:	b143      	cbz	r3, 23febc0 <serialEventRun+0x18>
 23febae:	f7ff ff93 	bl	23fead8 <_Z16_fetch_usbserialv>
 23febb2:	6803      	ldr	r3, [r0, #0]
 23febb4:	691b      	ldr	r3, [r3, #16]
 23febb6:	4798      	blx	r3
 23febb8:	2800      	cmp	r0, #0
 23febba:	dd01      	ble.n	23febc0 <serialEventRun+0x18>
        serialEvent();
 23febbc:	e000      	b.n	23febc0 <serialEventRun+0x18>
 23febbe:	bf00      	nop
    if (serialEvent1 && Serial1.available()>0)
 23febc0:	4b0a      	ldr	r3, [pc, #40]	; (23febec <serialEventRun+0x44>)
 23febc2:	b143      	cbz	r3, 23febd6 <serialEventRun+0x2e>
 23febc4:	f000 f97c 	bl	23feec0 <_Z22__fetch_global_Serial1v>
 23febc8:	6803      	ldr	r3, [r0, #0]
 23febca:	691b      	ldr	r3, [r3, #16]
 23febcc:	4798      	blx	r3
 23febce:	2800      	cmp	r0, #0
 23febd0:	dd01      	ble.n	23febd6 <serialEventRun+0x2e>
        serialEvent1();
 23febd2:	e000      	b.n	23febd6 <serialEventRun+0x2e>
 23febd4:	bf00      	nop
    if (serialEvent2) serialEventRun2();
 23febd6:	4b06      	ldr	r3, [pc, #24]	; (23febf0 <serialEventRun+0x48>)
 23febd8:	b10b      	cbz	r3, 23febde <serialEventRun+0x36>
 23febda:	f000 f9b7 	bl	23fef4c <_Z15serialEventRun2v>
    if (serialEvent3) serialEventRun3();
 23febde:	4b05      	ldr	r3, [pc, #20]	; (23febf4 <serialEventRun+0x4c>)
 23febe0:	b10b      	cbz	r3, 23febe6 <serialEventRun+0x3e>
 23febe2:	f000 f9e9 	bl	23fefb8 <_Z15serialEventRun3v>
}
 23febe6:	bd08      	pop	{r3, pc}
	...

023febf8 <_post_loop>:
{
 23febf8:	b508      	push	{r3, lr}
	serialEventRun();
 23febfa:	f7ff ffd5 	bl	23feba8 <serialEventRun>
		return !thread || !thread->isRunning();
	}

	static inline system_tick_t current_time()
	{
		return HAL_Timer_Get_Milli_Seconds();
 23febfe:	f7fe faef 	bl	23fd1e0 <HAL_Timer_Get_Milli_Seconds>
	/**
	 * Lifesign that the application is still working normally.
	 */
	static void checkin()
	{
		last_checkin = current_time();
 23fec02:	4b01      	ldr	r3, [pc, #4]	; (23fec08 <_post_loop+0x10>)
 23fec04:	6018      	str	r0, [r3, #0]
}
 23fec06:	bd08      	pop	{r3, pc}
 23fec08:	1007af98 	.word	0x1007af98

023fec0c <_Z33system_initialize_user_backup_ramv>:
    memcpy(&link_global_retained_start, &link_global_retained_initial_values, len);
 23fec0c:	4805      	ldr	r0, [pc, #20]	; (23fec24 <_Z33system_initialize_user_backup_ramv+0x18>)
 23fec0e:	4a06      	ldr	r2, [pc, #24]	; (23fec28 <_Z33system_initialize_user_backup_ramv+0x1c>)
{
 23fec10:	b508      	push	{r3, lr}
    memcpy(&link_global_retained_start, &link_global_retained_initial_values, len);
 23fec12:	1a12      	subs	r2, r2, r0
 23fec14:	4905      	ldr	r1, [pc, #20]	; (23fec2c <_Z33system_initialize_user_backup_ramv+0x20>)
 23fec16:	f000 f9ee 	bl	23feff6 <memcpy>
    __backup_sram_signature = signature;
 23fec1a:	4b05      	ldr	r3, [pc, #20]	; (23fec30 <_Z33system_initialize_user_backup_ramv+0x24>)
 23fec1c:	4a05      	ldr	r2, [pc, #20]	; (23fec34 <_Z33system_initialize_user_backup_ramv+0x28>)
 23fec1e:	601a      	str	r2, [r3, #0]
}
 23fec20:	bd08      	pop	{r3, pc}
 23fec22:	bf00      	nop
 23fec24:	1007b400 	.word	0x1007b400
 23fec28:	1007b404 	.word	0x1007b404
 23fec2c:	085ffa70 	.word	0x085ffa70
 23fec30:	1007b400 	.word	0x1007b400
 23fec34:	9a271c1e 	.word	0x9a271c1e

023fec38 <_Z27ctrl_request_custom_handlerP12ctrl_request>:
    system_ctrl_set_result(req, SYSTEM_ERROR_NOT_SUPPORTED, nullptr, nullptr, nullptr);
 23fec38:	2300      	movs	r3, #0
void __attribute((weak)) ctrl_request_custom_handler(ctrl_request* req) {
 23fec3a:	b507      	push	{r0, r1, r2, lr}
    system_ctrl_set_result(req, SYSTEM_ERROR_NOT_SUPPORTED, nullptr, nullptr, nullptr);
 23fec3c:	461a      	mov	r2, r3
 23fec3e:	f06f 0177 	mvn.w	r1, #119	; 0x77
 23fec42:	9300      	str	r3, [sp, #0]
 23fec44:	f7fe fe06 	bl	23fd854 <system_ctrl_set_result>
}
 23fec48:	b003      	add	sp, #12
 23fec4a:	f85d fb04 	ldr.w	pc, [sp], #4
	...

023fec50 <_ZL20ctrl_request_handlerP12ctrl_request>:
static void ctrl_request_handler(ctrl_request* req) {
 23fec50:	b507      	push	{r0, r1, r2, lr}
    switch (req->type) {
 23fec52:	8843      	ldrh	r3, [r0, #2]
 23fec54:	2b0a      	cmp	r3, #10
 23fec56:	d008      	beq.n	23fec6a <_ZL20ctrl_request_handlerP12ctrl_request+0x1a>
 23fec58:	2b50      	cmp	r3, #80	; 0x50
 23fec5a:	d10b      	bne.n	23fec74 <_ZL20ctrl_request_handlerP12ctrl_request+0x24>
        if (log_process_ctrl_request_callback) {
 23fec5c:	4b09      	ldr	r3, [pc, #36]	; (23fec84 <_ZL20ctrl_request_handlerP12ctrl_request+0x34>)
 23fec5e:	681b      	ldr	r3, [r3, #0]
 23fec60:	b14b      	cbz	r3, 23fec76 <_ZL20ctrl_request_handlerP12ctrl_request+0x26>
}
 23fec62:	b003      	add	sp, #12
 23fec64:	f85d eb04 	ldr.w	lr, [sp], #4
            log_process_ctrl_request_callback(req);
 23fec68:	4718      	bx	r3
        ctrl_request_custom_handler(req);
 23fec6a:	f7ff ffe5 	bl	23fec38 <_Z27ctrl_request_custom_handlerP12ctrl_request>
}
 23fec6e:	b003      	add	sp, #12
 23fec70:	f85d fb04 	ldr.w	pc, [sp], #4
        system_ctrl_set_result(req, SYSTEM_ERROR_NOT_SUPPORTED, nullptr, nullptr, nullptr);
 23fec74:	2300      	movs	r3, #0
 23fec76:	461a      	mov	r2, r3
 23fec78:	f06f 0177 	mvn.w	r1, #119	; 0x77
 23fec7c:	9300      	str	r3, [sp, #0]
 23fec7e:	f7fe fde9 	bl	23fd854 <system_ctrl_set_result>
}
 23fec82:	e7f4      	b.n	23fec6e <_ZL20ctrl_request_handlerP12ctrl_request+0x1e>
 23fec84:	1007af94 	.word	0x1007af94

023fec88 <module_user_init_hook>:
    newlib_impure_ptr_callback([](struct _reent* r, size_t size, uint32_t version, void* ctx) -> void {
 23fec88:	2100      	movs	r1, #0
{
 23fec8a:	b510      	push	{r4, lr}
    newlib_impure_ptr_callback([](struct _reent* r, size_t size, uint32_t version, void* ctx) -> void {
 23fec8c:	4811      	ldr	r0, [pc, #68]	; (23fecd4 <module_user_init_hook+0x4c>)
 23fec8e:	f7fe ff3f 	bl	23fdb10 <newlib_impure_ptr_callback>
#endif // HAL_PLATFORM_NEWLIB

#if HAL_PLATFORM_BACKUP_RAM
    backup_ram_was_valid_ = __backup_sram_signature == signature;
 23fec92:	4b11      	ldr	r3, [pc, #68]	; (23fecd8 <module_user_init_hook+0x50>)
 23fec94:	681a      	ldr	r2, [r3, #0]
 23fec96:	4b11      	ldr	r3, [pc, #68]	; (23fecdc <module_user_init_hook+0x54>)
 23fec98:	429a      	cmp	r2, r3
 23fec9a:	bf0c      	ite	eq
 23fec9c:	2201      	moveq	r2, #1
 23fec9e:	2200      	movne	r2, #0
 23feca0:	4b0f      	ldr	r3, [pc, #60]	; (23fece0 <module_user_init_hook+0x58>)
 23feca2:	701a      	strb	r2, [r3, #0]
    if (!backup_ram_was_valid_) {
 23feca4:	d001      	beq.n	23fecaa <module_user_init_hook+0x22>
        system_initialize_user_backup_ram();
 23feca6:	f7ff ffb1 	bl	23fec0c <_Z33system_initialize_user_backup_ramv>
    }
#endif

#if HAL_PLATFORM_RNG
    // Initialize the default stdlib PRNG using hardware RNG as a seed
    const uint32_t seed = HAL_RNG_GetRandomNumber();
 23fecaa:	f7fe fa8b 	bl	23fd1c4 <HAL_RNG_GetRandomNumber>
 23fecae:	4604      	mov	r4, r0
    srand(seed);
 23fecb0:	f000 f9b6 	bl	23ff020 <srand>

    // If the user defines random_seed_from_cloud, call it with a seed value
    // generated by a hardware RNG as well.
    if (random_seed_from_cloud) {
 23fecb4:	4b0b      	ldr	r3, [pc, #44]	; (23fece4 <module_user_init_hook+0x5c>)
 23fecb6:	b113      	cbz	r3, 23fecbe <module_user_init_hook+0x36>
        random_seed_from_cloud(seed);
 23fecb8:	4620      	mov	r0, r4
 23fecba:	e000      	b.n	23fecbe <module_user_init_hook+0x36>
 23fecbc:	bf00      	nop
    }
#endif
    // Register the random_seed_from_cloud handler
    spark_set_random_seed_from_cloud_handler(&random_seed_from_cloud, nullptr);
 23fecbe:	2100      	movs	r1, #0
 23fecc0:	4808      	ldr	r0, [pc, #32]	; (23fece4 <module_user_init_hook+0x5c>)
 23fecc2:	f7fe fdff 	bl	23fd8c4 <spark_set_random_seed_from_cloud_handler>

    // Register application handler for the control requests
    system_ctrl_set_app_request_handler(ctrl_request_handler, nullptr);
}
 23fecc6:	e8bd 4010 	ldmia.w	sp!, {r4, lr}
    system_ctrl_set_app_request_handler(ctrl_request_handler, nullptr);
 23fecca:	2100      	movs	r1, #0
 23feccc:	4806      	ldr	r0, [pc, #24]	; (23fece8 <module_user_init_hook+0x60>)
 23fecce:	f7fe bdb3 	b.w	23fd838 <system_ctrl_set_app_request_handler>
 23fecd2:	bf00      	nop
 23fecd4:	023feb9d 	.word	0x023feb9d
 23fecd8:	1007b400 	.word	0x1007b400
 23fecdc:	9a271c1e 	.word	0x9a271c1e
 23fece0:	1007af90 	.word	0x1007af90
 23fece4:	00000000 	.word	0x00000000
 23fece8:	023fec51 	.word	0x023fec51

023fecec <pinAvailable>:
/*
 * @brief Perform safety check on desired pin to see if it's already
 * being used.  Return 0 if used, otherwise return 1 if available.
 */
bool pinAvailable(uint16_t pin) {
  if (pin >= TOTAL_PINS) {
 23fecec:	281b      	cmp	r0, #27
bool pinAvailable(uint16_t pin) {
 23fecee:	b537      	push	{r0, r1, r2, r4, r5, lr}
 23fecf0:	4604      	mov	r4, r0
  if (pin >= TOTAL_PINS) {
 23fecf2:	d902      	bls.n	23fecfa <pinAvailable+0xe>
    return false;
 23fecf4:	2000      	movs	r0, #0
    return false; // 'pin' is used
  }
#endif

  return true; // 'pin' is available
}
 23fecf6:	b003      	add	sp, #12
 23fecf8:	bd30      	pop	{r4, r5, pc}
  if((pin == SCK || pin == MOSI || pin == MISO) && hal_spi_is_enabled(SPI.interface()) == true)
 23fecfa:	f1a0 030f 	sub.w	r3, r0, #15
 23fecfe:	2b02      	cmp	r3, #2
 23fed00:	d90b      	bls.n	23fed1a <pinAvailable+0x2e>
  if((pin == SCL || pin == SDA) && hal_i2c_is_enabled(Wire.interface(), nullptr) == true)
 23fed02:	2801      	cmp	r0, #1
 23fed04:	d821      	bhi.n	23fed4a <pinAvailable+0x5e>
 23fed06:	f000 f887 	bl	23fee18 <_Z19__fetch_global_Wirev>
 23fed0a:	2100      	movs	r1, #0
 23fed0c:	7c00      	ldrb	r0, [r0, #16]
 23fed0e:	f7fe fb47 	bl	23fd3a0 <hal_i2c_is_enabled>
  if((pin == RX || pin == TX) && hal_usart_is_enabled(Serial1.interface()) == true)
 23fed12:	f080 0001 	eor.w	r0, r0, #1
 23fed16:	b2c0      	uxtb	r0, r0
 23fed18:	e7ed      	b.n	23fecf6 <pinAvailable+0xa>

template <hal_spi_interface_t Interface>
class SpiProxy {
public:
    static SPIClass& instance() {
        static SPIClass instance(Interface);
 23fed1a:	4d11      	ldr	r5, [pc, #68]	; (23fed60 <pinAvailable+0x74>)
 23fed1c:	e8d5 1f8f 	ldab	r1, [r5]
 23fed20:	f011 0101 	ands.w	r1, r1, #1
 23fed24:	d10b      	bne.n	23fed3e <pinAvailable+0x52>
 23fed26:	4628      	mov	r0, r5
 23fed28:	9101      	str	r1, [sp, #4]
 23fed2a:	f7fe feff 	bl	23fdb2c <__cxa_guard_acquire>
 23fed2e:	9901      	ldr	r1, [sp, #4]
 23fed30:	b128      	cbz	r0, 23fed3e <pinAvailable+0x52>
 23fed32:	480c      	ldr	r0, [pc, #48]	; (23fed64 <pinAvailable+0x78>)
 23fed34:	f7ff fd14 	bl	23fe760 <_ZN8SPIClassC1E19hal_spi_interface_t>
 23fed38:	4628      	mov	r0, r5
 23fed3a:	f7fe ff05 	bl	23fdb48 <__cxa_guard_release>
  if((pin == SCK || pin == MOSI || pin == MISO) && hal_spi_is_enabled(SPI.interface()) == true)
 23fed3e:	4b09      	ldr	r3, [pc, #36]	; (23fed64 <pinAvailable+0x78>)
 23fed40:	7818      	ldrb	r0, [r3, #0]
 23fed42:	f7fe fbc7 	bl	23fd4d4 <hal_spi_is_enabled>
 23fed46:	2800      	cmp	r0, #0
 23fed48:	d1d4      	bne.n	23fecf4 <pinAvailable+0x8>
  if((pin == RX || pin == TX) && hal_usart_is_enabled(Serial1.interface()) == true)
 23fed4a:	3c08      	subs	r4, #8
 23fed4c:	2c01      	cmp	r4, #1
 23fed4e:	d805      	bhi.n	23fed5c <pinAvailable+0x70>
 23fed50:	f000 f8b6 	bl	23feec0 <_Z22__fetch_global_Serial1v>
 23fed54:	7c00      	ldrb	r0, [r0, #16]
 23fed56:	f7fe fc49 	bl	23fd5ec <hal_usart_is_enabled>
 23fed5a:	e7da      	b.n	23fed12 <pinAvailable+0x26>
  return true; // 'pin' is available
 23fed5c:	2001      	movs	r0, #1
 23fed5e:	e7ca      	b.n	23fecf6 <pinAvailable+0xa>
 23fed60:	1007aee4 	.word	0x1007aee4
 23fed64:	1007aee8 	.word	0x1007aee8

023fed68 <pinMode>:
  if(pin >= TOTAL_PINS || setMode == PIN_MODE_NONE )
 23fed68:	281b      	cmp	r0, #27
{
 23fed6a:	b538      	push	{r3, r4, r5, lr}
 23fed6c:	4604      	mov	r4, r0
 23fed6e:	460d      	mov	r5, r1
  if(pin >= TOTAL_PINS || setMode == PIN_MODE_NONE )
 23fed70:	d80a      	bhi.n	23fed88 <pinMode+0x20>
 23fed72:	29ff      	cmp	r1, #255	; 0xff
 23fed74:	d008      	beq.n	23fed88 <pinMode+0x20>
  if( !pinAvailable(pin) ) {
 23fed76:	f7ff ffb9 	bl	23fecec <pinAvailable>
 23fed7a:	b128      	cbz	r0, 23fed88 <pinMode+0x20>
  hal_gpio_mode(pin, setMode);
 23fed7c:	4629      	mov	r1, r5
 23fed7e:	4620      	mov	r0, r4
}
 23fed80:	e8bd 4038 	ldmia.w	sp!, {r3, r4, r5, lr}
  hal_gpio_mode(pin, setMode);
 23fed84:	f7fe ba56 	b.w	23fd234 <hal_gpio_mode>
}
 23fed88:	bd38      	pop	{r3, r4, r5, pc}

023fed8a <digitalWrite>:

/*
 * @brief Sets a GPIO pin to HIGH or LOW.
 */
void digitalWrite(hal_pin_t pin, uint8_t value)
{
 23fed8a:	b538      	push	{r3, r4, r5, lr}
 23fed8c:	4604      	mov	r4, r0
 23fed8e:	460d      	mov	r5, r1
    PinMode mode = hal_gpio_get_mode(pin);
 23fed90:	f7fe fa5e 	bl	23fd250 <hal_gpio_get_mode>
    if (mode==PIN_MODE_NONE || is_input_mode(mode))
 23fed94:	28ff      	cmp	r0, #255	; 0xff
 23fed96:	d010      	beq.n	23fedba <digitalWrite+0x30>
            mode == INPUT_PULLDOWN ||
 23fed98:	2806      	cmp	r0, #6
 23fed9a:	d804      	bhi.n	23feda6 <digitalWrite+0x1c>
 23fed9c:	234d      	movs	r3, #77	; 0x4d
 23fed9e:	fa23 f000 	lsr.w	r0, r3, r0
 23feda2:	07c3      	lsls	r3, r0, #31
 23feda4:	d409      	bmi.n	23fedba <digitalWrite+0x30>
        return;
  // Safety check
  if( !pinAvailable(pin) ) {
 23feda6:	4620      	mov	r0, r4
 23feda8:	f7ff ffa0 	bl	23fecec <pinAvailable>
 23fedac:	b128      	cbz	r0, 23fedba <digitalWrite+0x30>
    return;
  }

  hal_gpio_write(pin, value);
 23fedae:	4629      	mov	r1, r5
 23fedb0:	4620      	mov	r0, r4
}
 23fedb2:	e8bd 4038 	ldmia.w	sp!, {r3, r4, r5, lr}
  hal_gpio_write(pin, value);
 23fedb6:	f7fe ba59 	b.w	23fd26c <hal_gpio_write>
}
 23fedba:	bd38      	pop	{r3, r4, r5, pc}

023fedbc <digitalRead>:

/*
 * @brief Reads the value of a GPIO pin. Should return either 1 (HIGH) or 0 (LOW).
 */
int32_t digitalRead(hal_pin_t pin)
{
 23fedbc:	b510      	push	{r4, lr}
 23fedbe:	4604      	mov	r4, r0
    PinMode mode = hal_gpio_get_mode(pin);
 23fedc0:	f7fe fa46 	bl	23fd250 <hal_gpio_get_mode>
    return mode == AF_OUTPUT_PUSHPULL ||
 23fedc4:	1f03      	subs	r3, r0, #4
    if (is_af_output_mode(mode))
 23fedc6:	b2db      	uxtb	r3, r3
 23fedc8:	2b01      	cmp	r3, #1
 23fedca:	d908      	bls.n	23fedde <digitalRead+0x22>
        return LOW;

    // Safety check
    if( !pinAvailable(pin) ) {
 23fedcc:	4620      	mov	r0, r4
 23fedce:	f7ff ff8d 	bl	23fecec <pinAvailable>
 23fedd2:	b120      	cbz	r0, 23fedde <digitalRead+0x22>
      return LOW;
    }

    return hal_gpio_read(pin);
 23fedd4:	4620      	mov	r0, r4
}
 23fedd6:	e8bd 4010 	ldmia.w	sp!, {r4, lr}
    return hal_gpio_read(pin);
 23fedda:	f7fe ba55 	b.w	23fd288 <hal_gpio_read>
}
 23fedde:	2000      	movs	r0, #0
 23fede0:	bd10      	pop	{r4, pc}

023fede2 <__tcf_0>:
}
#endif

TwoWire& __fetch_global_Wire()
{
	static TwoWire wire(HAL_I2C_INTERFACE1, acquireWireBuffer());
 23fede2:	4770      	bx	lr

023fede4 <_Z17acquireWireBufferv>:
{
 23fede4:	b538      	push	{r3, r4, r5, lr}
	hal_i2c_config_t config = {
 23fede6:	4b0a      	ldr	r3, [pc, #40]	; (23fee10 <_Z17acquireWireBufferv+0x2c>)
{
 23fede8:	4604      	mov	r4, r0
	hal_i2c_config_t config = {
 23fedea:	6003      	str	r3, [r0, #0]
 23fedec:	2301      	movs	r3, #1
		.rx_buffer = new (std::nothrow) uint8_t[i2c_buffer_size],
 23fedee:	4909      	ldr	r1, [pc, #36]	; (23fee14 <_Z17acquireWireBufferv+0x30>)
	hal_i2c_config_t config = {
 23fedf0:	6143      	str	r3, [r0, #20]
		.rx_buffer = new (std::nothrow) uint8_t[i2c_buffer_size],
 23fedf2:	2020      	movs	r0, #32
 23fedf4:	f000 f8f4 	bl	23fefe0 <_ZnajRKSt9nothrow_t>
	};
 23fedf8:	2520      	movs	r5, #32
 23fedfa:	6060      	str	r0, [r4, #4]
		.tx_buffer = new (std::nothrow) uint8_t[i2c_buffer_size],
 23fedfc:	4905      	ldr	r1, [pc, #20]	; (23fee14 <_Z17acquireWireBufferv+0x30>)
 23fedfe:	4628      	mov	r0, r5
	};
 23fee00:	60a5      	str	r5, [r4, #8]
		.tx_buffer = new (std::nothrow) uint8_t[i2c_buffer_size],
 23fee02:	f000 f8ed 	bl	23fefe0 <_ZnajRKSt9nothrow_t>
	};
 23fee06:	e9c4 0503 	strd	r0, r5, [r4, #12]
}
 23fee0a:	4620      	mov	r0, r4
 23fee0c:	bd38      	pop	{r3, r4, r5, pc}
 23fee0e:	bf00      	nop
 23fee10:	00010018 	.word	0x00010018
 23fee14:	023fff50 	.word	0x023fff50

023fee18 <_Z19__fetch_global_Wirev>:
{
 23fee18:	b530      	push	{r4, r5, lr}
	static TwoWire wire(HAL_I2C_INTERFACE1, acquireWireBuffer());
 23fee1a:	4d0e      	ldr	r5, [pc, #56]	; (23fee54 <_Z19__fetch_global_Wirev+0x3c>)
{
 23fee1c:	b087      	sub	sp, #28
	static TwoWire wire(HAL_I2C_INTERFACE1, acquireWireBuffer());
 23fee1e:	e8d5 1f8f 	ldab	r1, [r5]
 23fee22:	f011 0401 	ands.w	r4, r1, #1
 23fee26:	d111      	bne.n	23fee4c <_Z19__fetch_global_Wirev+0x34>
 23fee28:	4628      	mov	r0, r5
 23fee2a:	f7fe fe7f 	bl	23fdb2c <__cxa_guard_acquire>
 23fee2e:	b168      	cbz	r0, 23fee4c <_Z19__fetch_global_Wirev+0x34>
 23fee30:	4668      	mov	r0, sp
 23fee32:	f7ff ffd7 	bl	23fede4 <_Z17acquireWireBufferv>
 23fee36:	466a      	mov	r2, sp
 23fee38:	4621      	mov	r1, r4
 23fee3a:	4807      	ldr	r0, [pc, #28]	; (23fee58 <_Z19__fetch_global_Wirev+0x40>)
 23fee3c:	f7ff fa06 	bl	23fe24c <_ZN7TwoWireC1E19hal_i2c_interface_tRK16hal_i2c_config_t>
 23fee40:	4628      	mov	r0, r5
 23fee42:	f7fe fe81 	bl	23fdb48 <__cxa_guard_release>
 23fee46:	4805      	ldr	r0, [pc, #20]	; (23fee5c <_Z19__fetch_global_Wirev+0x44>)
 23fee48:	f000 f8cf 	bl	23fefea <atexit>
	return wire;
}
 23fee4c:	4802      	ldr	r0, [pc, #8]	; (23fee58 <_Z19__fetch_global_Wirev+0x40>)
 23fee4e:	b007      	add	sp, #28
 23fee50:	bd30      	pop	{r4, r5, pc}
 23fee52:	bf00      	nop
 23fee54:	1007af9c 	.word	0x1007af9c
 23fee58:	1007afa0 	.word	0x1007afa0
 23fee5c:	023fede3 	.word	0x023fede3

023fee60 <__tcf_0>:
}
#endif

USARTSerial& __fetch_global_Serial1()
{
    static USARTSerial serial1(HAL_USART_SERIAL1, acquireSerial1Buffer());
 23fee60:	4770      	bx	lr
	...

023fee64 <_ZN12_GLOBAL__N_118defaultUsartConfigEv>:
hal_usart_buffer_config_t defaultUsartConfig() {
 23fee64:	b538      	push	{r3, r4, r5, lr}
    hal_usart_buffer_config_t config = {
 23fee66:	2514      	movs	r5, #20
hal_usart_buffer_config_t defaultUsartConfig() {
 23fee68:	4604      	mov	r4, r0
    hal_usart_buffer_config_t config = {
 23fee6a:	462a      	mov	r2, r5
 23fee6c:	2100      	movs	r1, #0
 23fee6e:	f000 f8cf 	bl	23ff010 <memset>
 23fee72:	8025      	strh	r5, [r4, #0]
 23fee74:	2540      	movs	r5, #64	; 0x40
        .rx_buffer = new (std::nothrow) uint8_t[bufferSize],
 23fee76:	4907      	ldr	r1, [pc, #28]	; (23fee94 <_ZN12_GLOBAL__N_118defaultUsartConfigEv+0x30>)
 23fee78:	4628      	mov	r0, r5
    hal_usart_buffer_config_t config = {
 23fee7a:	8125      	strh	r5, [r4, #8]
 23fee7c:	8225      	strh	r5, [r4, #16]
        .rx_buffer = new (std::nothrow) uint8_t[bufferSize],
 23fee7e:	f000 f8af 	bl	23fefe0 <_ZnajRKSt9nothrow_t>
        .tx_buffer = new (std::nothrow) uint8_t[bufferSize],
 23fee82:	4904      	ldr	r1, [pc, #16]	; (23fee94 <_ZN12_GLOBAL__N_118defaultUsartConfigEv+0x30>)
    };
 23fee84:	6060      	str	r0, [r4, #4]
        .tx_buffer = new (std::nothrow) uint8_t[bufferSize],
 23fee86:	4628      	mov	r0, r5
 23fee88:	f000 f8aa 	bl	23fefe0 <_ZnajRKSt9nothrow_t>
    };
 23fee8c:	60e0      	str	r0, [r4, #12]
}
 23fee8e:	4620      	mov	r0, r4
 23fee90:	bd38      	pop	{r3, r4, r5, pc}
 23fee92:	bf00      	nop
 23fee94:	023fff50 	.word	0x023fff50

023fee98 <__tcf_2>:
 23fee98:	4770      	bx	lr

023fee9a <__tcf_1>:
 23fee9a:	4770      	bx	lr

023fee9c <_Z20acquireSerial1Bufferv>:
{
 23fee9c:	b510      	push	{r4, lr}
 23fee9e:	4604      	mov	r4, r0
    return defaultUsartConfig();
 23feea0:	f7ff ffe0 	bl	23fee64 <_ZN12_GLOBAL__N_118defaultUsartConfigEv>
}
 23feea4:	4620      	mov	r0, r4
 23feea6:	bd10      	pop	{r4, pc}

023feea8 <_Z20acquireSerial2Bufferv>:
 23feea8:	b510      	push	{r4, lr}
 23feeaa:	4604      	mov	r4, r0
 23feeac:	f7ff ffda 	bl	23fee64 <_ZN12_GLOBAL__N_118defaultUsartConfigEv>
 23feeb0:	4620      	mov	r0, r4
 23feeb2:	bd10      	pop	{r4, pc}

023feeb4 <_Z20acquireSerial3Bufferv>:
 23feeb4:	b510      	push	{r4, lr}
 23feeb6:	4604      	mov	r4, r0
 23feeb8:	f7ff ffd4 	bl	23fee64 <_ZN12_GLOBAL__N_118defaultUsartConfigEv>
 23feebc:	4620      	mov	r0, r4
 23feebe:	bd10      	pop	{r4, pc}

023feec0 <_Z22__fetch_global_Serial1v>:
{
 23feec0:	b530      	push	{r4, r5, lr}
    static USARTSerial serial1(HAL_USART_SERIAL1, acquireSerial1Buffer());
 23feec2:	4d0e      	ldr	r5, [pc, #56]	; (23feefc <_Z22__fetch_global_Serial1v+0x3c>)
{
 23feec4:	b087      	sub	sp, #28
    static USARTSerial serial1(HAL_USART_SERIAL1, acquireSerial1Buffer());
 23feec6:	e8d5 1f8f 	ldab	r1, [r5]
 23feeca:	f011 0401 	ands.w	r4, r1, #1
 23feece:	d111      	bne.n	23feef4 <_Z22__fetch_global_Serial1v+0x34>
 23feed0:	4628      	mov	r0, r5
 23feed2:	f7fe fe2b 	bl	23fdb2c <__cxa_guard_acquire>
 23feed6:	b168      	cbz	r0, 23feef4 <_Z22__fetch_global_Serial1v+0x34>
 23feed8:	a801      	add	r0, sp, #4
 23feeda:	f7ff ffdf 	bl	23fee9c <_Z20acquireSerial1Bufferv>
 23feede:	4621      	mov	r1, r4
 23feee0:	aa01      	add	r2, sp, #4
 23feee2:	4807      	ldr	r0, [pc, #28]	; (23fef00 <_Z22__fetch_global_Serial1v+0x40>)
 23feee4:	f7ff fd82 	bl	23fe9ec <_ZN11USARTSerialC1E21hal_usart_interface_tRK25hal_usart_buffer_config_t>
 23feee8:	4628      	mov	r0, r5
 23feeea:	f7fe fe2d 	bl	23fdb48 <__cxa_guard_release>
 23feeee:	4805      	ldr	r0, [pc, #20]	; (23fef04 <_Z22__fetch_global_Serial1v+0x44>)
 23feef0:	f000 f87b 	bl	23fefea <atexit>
    return serial1;
}
 23feef4:	4802      	ldr	r0, [pc, #8]	; (23fef00 <_Z22__fetch_global_Serial1v+0x40>)
 23feef6:	b007      	add	sp, #28
 23feef8:	bd30      	pop	{r4, r5, pc}
 23feefa:	bf00      	nop
 23feefc:	1007afb4 	.word	0x1007afb4
 23fef00:	1007afc0 	.word	0x1007afc0
 23fef04:	023fee61 	.word	0x023fee61

023fef08 <_Z22__fetch_global_Serial2v>:

#if Wiring_Serial2
USARTSerial& __fetch_global_Serial2()
{
 23fef08:	b510      	push	{r4, lr}
	static USARTSerial serial2(HAL_USART_SERIAL2, acquireSerial2Buffer());
 23fef0a:	4c0d      	ldr	r4, [pc, #52]	; (23fef40 <_Z22__fetch_global_Serial2v+0x38>)
{
 23fef0c:	b086      	sub	sp, #24
	static USARTSerial serial2(HAL_USART_SERIAL2, acquireSerial2Buffer());
 23fef0e:	e8d4 3f8f 	ldab	r3, [r4]
 23fef12:	07db      	lsls	r3, r3, #31
 23fef14:	d411      	bmi.n	23fef3a <_Z22__fetch_global_Serial2v+0x32>
 23fef16:	4620      	mov	r0, r4
 23fef18:	f7fe fe08 	bl	23fdb2c <__cxa_guard_acquire>
 23fef1c:	b168      	cbz	r0, 23fef3a <_Z22__fetch_global_Serial2v+0x32>
 23fef1e:	a801      	add	r0, sp, #4
 23fef20:	f7ff ffc2 	bl	23feea8 <_Z20acquireSerial2Bufferv>
 23fef24:	2101      	movs	r1, #1
 23fef26:	aa01      	add	r2, sp, #4
 23fef28:	4806      	ldr	r0, [pc, #24]	; (23fef44 <_Z22__fetch_global_Serial2v+0x3c>)
 23fef2a:	f7ff fd5f 	bl	23fe9ec <_ZN11USARTSerialC1E21hal_usart_interface_tRK25hal_usart_buffer_config_t>
 23fef2e:	4620      	mov	r0, r4
 23fef30:	f7fe fe0a 	bl	23fdb48 <__cxa_guard_release>
 23fef34:	4804      	ldr	r0, [pc, #16]	; (23fef48 <_Z22__fetch_global_Serial2v+0x40>)
 23fef36:	f000 f858 	bl	23fefea <atexit>
	return serial2;
}
 23fef3a:	4802      	ldr	r0, [pc, #8]	; (23fef44 <_Z22__fetch_global_Serial2v+0x3c>)
 23fef3c:	b006      	add	sp, #24
 23fef3e:	bd10      	pop	{r4, pc}
 23fef40:	1007afb8 	.word	0x1007afb8
 23fef44:	1007afd4 	.word	0x1007afd4
 23fef48:	023fee9b 	.word	0x023fee9b

023fef4c <_Z15serialEventRun2v>:

void serialEventRun2()
{
 23fef4c:	b510      	push	{r4, lr}
    __handleSerialEvent(Serial2, serialEvent2);
 23fef4e:	f7ff ffdb 	bl	23fef08 <_Z22__fetch_global_Serial2v>

inline void __handleSerialEvent(USARTSerial& serial, void (*handler)(void)) __attribute__((always_inline));

inline void __handleSerialEvent(USARTSerial& serial, void (*handler)(void))
{
    if (handler && serial.isEnabled() && serial.available()>0)
 23fef52:	4b07      	ldr	r3, [pc, #28]	; (23fef70 <_Z15serialEventRun2v+0x24>)
 23fef54:	4604      	mov	r4, r0
 23fef56:	b153      	cbz	r3, 23fef6e <_Z15serialEventRun2v+0x22>
 23fef58:	f7ff fd5c 	bl	23fea14 <_ZN11USARTSerial9isEnabledEv>
 23fef5c:	b138      	cbz	r0, 23fef6e <_Z15serialEventRun2v+0x22>
 23fef5e:	6823      	ldr	r3, [r4, #0]
 23fef60:	4620      	mov	r0, r4
 23fef62:	691b      	ldr	r3, [r3, #16]
 23fef64:	4798      	blx	r3
 23fef66:	2800      	cmp	r0, #0
 23fef68:	dd01      	ble.n	23fef6e <_Z15serialEventRun2v+0x22>
        handler();
 23fef6a:	e000      	b.n	23fef6e <_Z15serialEventRun2v+0x22>
 23fef6c:	bf00      	nop
}
 23fef6e:	bd10      	pop	{r4, pc}
 23fef70:	00000000 	.word	0x00000000

023fef74 <_Z22__fetch_global_Serial3v>:
#endif

#if Wiring_Serial3
USARTSerial& __fetch_global_Serial3()
{
 23fef74:	b510      	push	{r4, lr}
	static USARTSerial serial3(HAL_USART_SERIAL3, acquireSerial3Buffer());
 23fef76:	4c0d      	ldr	r4, [pc, #52]	; (23fefac <_Z22__fetch_global_Serial3v+0x38>)
{
 23fef78:	b086      	sub	sp, #24
	static USARTSerial serial3(HAL_USART_SERIAL3, acquireSerial3Buffer());
 23fef7a:	e8d4 3f8f 	ldab	r3, [r4]
 23fef7e:	07db      	lsls	r3, r3, #31
 23fef80:	d411      	bmi.n	23fefa6 <_Z22__fetch_global_Serial3v+0x32>
 23fef82:	4620      	mov	r0, r4
 23fef84:	f7fe fdd2 	bl	23fdb2c <__cxa_guard_acquire>
 23fef88:	b168      	cbz	r0, 23fefa6 <_Z22__fetch_global_Serial3v+0x32>
 23fef8a:	a801      	add	r0, sp, #4
 23fef8c:	f7ff ff92 	bl	23feeb4 <_Z20acquireSerial3Bufferv>
 23fef90:	2102      	movs	r1, #2
 23fef92:	aa01      	add	r2, sp, #4
 23fef94:	4806      	ldr	r0, [pc, #24]	; (23fefb0 <_Z22__fetch_global_Serial3v+0x3c>)
 23fef96:	f7ff fd29 	bl	23fe9ec <_ZN11USARTSerialC1E21hal_usart_interface_tRK25hal_usart_buffer_config_t>
 23fef9a:	4620      	mov	r0, r4
 23fef9c:	f7fe fdd4 	bl	23fdb48 <__cxa_guard_release>
 23fefa0:	4804      	ldr	r0, [pc, #16]	; (23fefb4 <_Z22__fetch_global_Serial3v+0x40>)
 23fefa2:	f000 f822 	bl	23fefea <atexit>
	return serial3;
}
 23fefa6:	4802      	ldr	r0, [pc, #8]	; (23fefb0 <_Z22__fetch_global_Serial3v+0x3c>)
 23fefa8:	b006      	add	sp, #24
 23fefaa:	bd10      	pop	{r4, pc}
 23fefac:	1007afbc 	.word	0x1007afbc
 23fefb0:	1007afe8 	.word	0x1007afe8
 23fefb4:	023fee99 	.word	0x023fee99

023fefb8 <_Z15serialEventRun3v>:

void serialEventRun3()
{
 23fefb8:	b510      	push	{r4, lr}
    __handleSerialEvent(Serial3, serialEvent3);
 23fefba:	f7ff ffdb 	bl	23fef74 <_Z22__fetch_global_Serial3v>
    if (handler && serial.isEnabled() && serial.available()>0)
 23fefbe:	4b07      	ldr	r3, [pc, #28]	; (23fefdc <_Z15serialEventRun3v+0x24>)
 23fefc0:	4604      	mov	r4, r0
 23fefc2:	b153      	cbz	r3, 23fefda <_Z15serialEventRun3v+0x22>
 23fefc4:	f7ff fd26 	bl	23fea14 <_ZN11USARTSerial9isEnabledEv>
 23fefc8:	b138      	cbz	r0, 23fefda <_Z15serialEventRun3v+0x22>
 23fefca:	6823      	ldr	r3, [r4, #0]
 23fefcc:	4620      	mov	r0, r4
 23fefce:	691b      	ldr	r3, [r3, #16]
 23fefd0:	4798      	blx	r3
 23fefd2:	2800      	cmp	r0, #0
 23fefd4:	dd01      	ble.n	23fefda <_Z15serialEventRun3v+0x22>
        handler();
 23fefd6:	e000      	b.n	23fefda <_Z15serialEventRun3v+0x22>
 23fefd8:	bf00      	nop
}
 23fefda:	bd10      	pop	{r4, pc}
 23fefdc:	00000000 	.word	0x00000000

023fefe0 <_ZnajRKSt9nothrow_t>:
 23fefe0:	f7fc bb89 	b.w	23fb6f6 <_Znaj>

023fefe4 <_ZSt25__throw_bad_function_callv>:
 23fefe4:	b508      	push	{r3, lr}
 23fefe6:	f7fe fd69 	bl	23fdabc <abort>

023fefea <atexit>:
 23fefea:	2300      	movs	r3, #0
 23fefec:	4601      	mov	r1, r0
 23fefee:	461a      	mov	r2, r3
 23feff0:	4618      	mov	r0, r3
 23feff2:	f7fc bb9d 	b.w	23fb730 <__register_exitproc>

023feff6 <memcpy>:
 23feff6:	440a      	add	r2, r1
 23feff8:	1e43      	subs	r3, r0, #1
 23feffa:	4291      	cmp	r1, r2
 23feffc:	d100      	bne.n	23ff000 <memcpy+0xa>
 23feffe:	4770      	bx	lr
 23ff000:	b510      	push	{r4, lr}
 23ff002:	f811 4b01 	ldrb.w	r4, [r1], #1
 23ff006:	4291      	cmp	r1, r2
 23ff008:	f803 4f01 	strb.w	r4, [r3, #1]!
 23ff00c:	d1f9      	bne.n	23ff002 <memcpy+0xc>
 23ff00e:	bd10      	pop	{r4, pc}

023ff010 <memset>:
 23ff010:	4402      	add	r2, r0
 23ff012:	4603      	mov	r3, r0
 23ff014:	4293      	cmp	r3, r2
 23ff016:	d100      	bne.n	23ff01a <memset+0xa>
 23ff018:	4770      	bx	lr
 23ff01a:	f803 1b01 	strb.w	r1, [r3], #1
 23ff01e:	e7f9      	b.n	23ff014 <memset+0x4>

023ff020 <srand>:
 23ff020:	b538      	push	{r3, r4, r5, lr}
 23ff022:	4b10      	ldr	r3, [pc, #64]	; (23ff064 <srand+0x44>)
 23ff024:	4604      	mov	r4, r0
 23ff026:	681d      	ldr	r5, [r3, #0]
 23ff028:	6bab      	ldr	r3, [r5, #56]	; 0x38
 23ff02a:	b9b3      	cbnz	r3, 23ff05a <srand+0x3a>
 23ff02c:	2018      	movs	r0, #24
 23ff02e:	f7fe fd1b 	bl	23fda68 <malloc>
 23ff032:	4602      	mov	r2, r0
 23ff034:	63a8      	str	r0, [r5, #56]	; 0x38
 23ff036:	b920      	cbnz	r0, 23ff042 <srand+0x22>
 23ff038:	4b0b      	ldr	r3, [pc, #44]	; (23ff068 <srand+0x48>)
 23ff03a:	2142      	movs	r1, #66	; 0x42
 23ff03c:	480b      	ldr	r0, [pc, #44]	; (23ff06c <srand+0x4c>)
 23ff03e:	f7fe fd59 	bl	23fdaf4 <__assert_func>
 23ff042:	490b      	ldr	r1, [pc, #44]	; (23ff070 <srand+0x50>)
 23ff044:	4b0b      	ldr	r3, [pc, #44]	; (23ff074 <srand+0x54>)
 23ff046:	e9c0 1300 	strd	r1, r3, [r0]
 23ff04a:	4b0b      	ldr	r3, [pc, #44]	; (23ff078 <srand+0x58>)
 23ff04c:	2100      	movs	r1, #0
 23ff04e:	6083      	str	r3, [r0, #8]
 23ff050:	230b      	movs	r3, #11
 23ff052:	8183      	strh	r3, [r0, #12]
 23ff054:	2001      	movs	r0, #1
 23ff056:	e9c2 0104 	strd	r0, r1, [r2, #16]
 23ff05a:	6bab      	ldr	r3, [r5, #56]	; 0x38
 23ff05c:	2200      	movs	r2, #0
 23ff05e:	611c      	str	r4, [r3, #16]
 23ff060:	615a      	str	r2, [r3, #20]
 23ff062:	bd38      	pop	{r3, r4, r5, pc}
 23ff064:	1007adb8 	.word	0x1007adb8
 23ff068:	023fff51 	.word	0x023fff51
 23ff06c:	023fff68 	.word	0x023fff68
 23ff070:	abcd330e 	.word	0xabcd330e
 23ff074:	e66d1234 	.word	0xe66d1234
 23ff078:	0005deec 	.word	0x0005deec

023ff07c <strdup>:
 23ff07c:	4b02      	ldr	r3, [pc, #8]	; (23ff088 <strdup+0xc>)
 23ff07e:	4601      	mov	r1, r0
 23ff080:	6818      	ldr	r0, [r3, #0]
 23ff082:	f000 b803 	b.w	23ff08c <_strdup_r>
 23ff086:	bf00      	nop
 23ff088:	1007adb8 	.word	0x1007adb8

023ff08c <_strdup_r>:
 23ff08c:	b537      	push	{r0, r1, r2, r4, r5, lr}
 23ff08e:	4604      	mov	r4, r0
 23ff090:	4608      	mov	r0, r1
 23ff092:	460d      	mov	r5, r1
 23ff094:	f7fc fb08 	bl	23fb6a8 <strlen>
 23ff098:	1c42      	adds	r2, r0, #1
 23ff09a:	4620      	mov	r0, r4
 23ff09c:	4611      	mov	r1, r2
 23ff09e:	9201      	str	r2, [sp, #4]
 23ff0a0:	f7fe fd1a 	bl	23fdad8 <_malloc_r>
 23ff0a4:	4604      	mov	r4, r0
 23ff0a6:	b118      	cbz	r0, 23ff0b0 <_strdup_r+0x24>
 23ff0a8:	9a01      	ldr	r2, [sp, #4]
 23ff0aa:	4629      	mov	r1, r5
 23ff0ac:	f7ff ffa3 	bl	23feff6 <memcpy>
 23ff0b0:	4620      	mov	r0, r4
 23ff0b2:	b003      	add	sp, #12
 23ff0b4:	bd30      	pop	{r4, r5, pc}
	...

023ff0b8 <dynalib_user>:
 23ff0b8:	b6b9 023f b6e1 023f b6e5 023f 0000 0000     ..?...?...?.....
 23ff0c8:	6143 6c6c 6f20 206e 7570 6572 7620 7269     Call on pure vir
 23ff0d8:	7574 6c61 4300 756f 646c 276e 2074 6966     tual.Couldn't fi
 23ff0e8:	646e 7320 6473 3331 3630 6d00 6469 6c64     nd ssd1306.middl
 23ff0f8:	2065 7562 7474 6e6f 7320 6f68 7472 7020     e button short p
 23ff108:	6572 7373 6465 7300 6174 7472 7400 6d6f     ressed.start.tom
 23ff118:	7461 2f6f 7270 7365 6573 0064               ato/pressed.

023ff124 <_ZL4font>:
 23ff124:	0000 0000 3e00 4f5b 3e5b 6b3e 6b4f 1c3e     .....>[O[>>kOk>.
 23ff134:	7c3e 1c3e 3c18 3c7e 1c18 7d57 1c57 5e1c     >|>..<~<..W}W..^
 23ff144:	5e7f 001c 3c18 0018 e7ff e7c3 00ff 2418     .^...<.........$
 23ff154:	0018 e7ff e7db 30ff 3a48 0e06 2926 2979     .......0H:..&)y)
 23ff164:	4026 057f 0705 7f40 2505 5a3f e73c 5a3c     &@....@..%?Z<.<Z
 23ff174:	3e7f 1c1c 0808 1c1c 7f3e 2214 227f 5f14     .>......>.."."._
 23ff184:	005f 5f5f 0906 017f 007f 8966 6a95 6060     _.__......f..j``
 23ff194:	6060 9460 ffa2 94a2 0408 047e 1008 7e20     ```.......~... ~
 23ff1a4:	1020 0808 1c2a 0808 2a1c 0808 101e 1010      ...*....*......
 23ff1b4:	0c10 0c1e 0c1e 3830 383e 0630 3e0e 060e     ......08>80..>..
 23ff1c4:	0000 0000 0000 5f00 0000 0700 0700 1400     ......._........
 23ff1d4:	147f 147f 2a24 2a7f 2312 0813 6264 4936     ....$*.*.#..db6I
 23ff1e4:	2056 0050 0708 0003 1c00 4122 0000 2241     V P......."A..A"
 23ff1f4:	001c 1c2a 1c7f 082a 3e08 0808 8000 3070     ..*...*..>....p0
 23ff204:	0800 0808 0808 0000 6060 2000 0810 0204     ........``. ....
 23ff214:	513e 4549 003e 7f42 0040 4972 4949 2146     >QIE>.B.@.rIIIF!
 23ff224:	4941 334d 1418 7f12 2710 4545 3945 4a3c     AIM3.....'EEE9<J
 23ff234:	4949 4131 1121 0709 4936 4949 4636 4949     II1A!...6III6FII
 23ff244:	1e29 0000 0014 0000 3440 0000 0800 2214     ).......@4....."
 23ff254:	1441 1414 1414 4100 1422 0208 5901 0609     A......A"....Y..
 23ff264:	413e 595d 7c4e 1112 7c12 497f 4949 3e36     >A]YN|...|.III6>
 23ff274:	4141 2241 417f 4141 7f3e 4949 4149 097f     AAA".AAA>.IIIA..
 23ff284:	0909 3e01 4141 7351 087f 0808 007f 7f41     ...>AAQs......A.
 23ff294:	0041 4020 3f41 7f01 1408 4122 407f 4040     A. @A?...."A.@@@
 23ff2a4:	7f40 1c02 7f02 047f 1008 3e7f 4141 3e41     @..........>AAA>
 23ff2b4:	097f 0909 3e06 5141 5e21 097f 2919 2646     .....>AQ!^...)F&
 23ff2c4:	4949 3249 0103 017f 3f03 4040 3f40 201f     III2.....?@@@?. 
 23ff2d4:	2040 3f1f 3840 3f40 1463 1408 0363 7804     @ .?@8@?c...c..x
 23ff2e4:	0304 5961 4d49 0043 417f 4141 0402 1008     ..aYIMC..AAA....
 23ff2f4:	0020 4141 7f41 0204 0201 4004 4040 4040      .AAA......@@@@@
 23ff304:	0300 0807 2000 5454 4078 287f 4444 3838     ..... TTx@.(DD88
 23ff314:	4444 2844 4438 2844 387f 5454 1854 0800     DDD(8DD(.8TTT...
 23ff324:	097e 1802 a4a4 789c 087f 0404 0078 7d44     ~......x....x.D}
 23ff334:	0040 4020 3d40 7f00 2810 0044 4100 407f     @. @@=...(D..A.@
 23ff344:	7c00 7804 7804 087c 0404 3878 4444 3844     .|.x.x|...x8DDD8
 23ff354:	18fc 2424 1818 2424 fc18 087c 0404 4808     ..$$..$$..|....H
 23ff364:	5454 2454 0404 443f 3c24 4040 7c20 201c     TTT$..?D$<@@ |. 
 23ff374:	2040 3c1c 3040 3c40 2844 2810 4c44 9090     @ .<@0@<D(.(DL..
 23ff384:	7c90 6444 4c54 0044 3608 0041 0000 0077     .|DdTLD..6A...w.
 23ff394:	0000 3641 0008 0102 0402 3c02 2326 3c26     ..A6.......<&#&<
 23ff3a4:	a11e 61a1 3a12 4040 7a20 5438 5554 2159     ...a.:@@ z8TTUY!
 23ff3b4:	5555 4179 5422 7854 2142 5455 4078 5420     UUyA"TTxB!UTx@ T
 23ff3c4:	7955 0c40 521e 1272 5539 5555 3959 5454     Uy@..Rr.9UUUY9TT
 23ff3d4:	5954 5539 5454 0058 4500 417c 0200 7d45     TY9UTTX..E|A..E}
 23ff3e4:	0042 4501 407c 127d 1211 f07d 2528 f028     B..E|@}...}.(%(.
 23ff3f4:	547c 4555 2000 5454 547c 0a7c 7f09 3249     |TUE. TT|T|...I2
 23ff404:	4949 3249 443a 4444 323a 484a 3048 413a     III2:DDD:2JHH0:A
 23ff414:	2141 3a7a 4042 7820 9d00 a0a0 3d7d 4242     A!z:B@ x....}=BB
 23ff424:	3d42 403d 4040 3c3d ff24 2424 7e48 4349     B==@@@=<$.$$H~IC
 23ff434:	2b66 fc2f 2b2f 09ff f629 c020 7e88 0309     f+/./+..). ..~..
 23ff444:	5420 7954 0041 4400 417d 4830 4a48 3832      TTyA..D}A0HHJ28
 23ff454:	4040 7a22 7a00 0a0a 7d72 190d 7d31 2926     @@"z.z..r}..1}&)
 23ff464:	2f29 2628 2929 2629 4830 404d 3820 0808     )/(&)))&0HM@ 8..
 23ff474:	0808 0808 0808 2f38 c810 baac 102f 3428     ......8/..../.(4
 23ff484:	00fa 7b00 0000 1408 142a 2222 2a14 0814     ...{....*."".*..
 23ff494:	0055 0055 aa55 aa55 aa55 55ff 55ff 00ff     U.U.U.U.U..U.U..
 23ff4a4:	0000 00ff 1010 ff10 1400 1414 00ff 1010     ................
 23ff4b4:	00ff 10ff f010 f010 1414 fc14 1400 f714     ................
 23ff4c4:	ff00 0000 00ff 14ff f414 fc04 1414 1017     ................
 23ff4d4:	101f 1f10 1f10 1414 1f14 1000 1010 00f0     ................
 23ff4e4:	0000 1f00 1010 1010 101f 1010 f010 0010     ................
 23ff4f4:	0000 10ff 1010 1010 1010 1010 10ff 0000     ................
 23ff504:	ff00 0014 ff00 ff00 0000 101f 0017 fc00     ................
 23ff514:	f404 1414 1017 1417 f414 f404 0000 00ff     ................
 23ff524:	14f7 1414 1414 1414 00f7 14f7 1414 1417     ................
 23ff534:	1010 101f 141f 1414 14f4 1010 10f0 00f0     ................
 23ff544:	1f00 1f10 0000 1f00 0014 0000 14fc 0000     ................
 23ff554:	10f0 10f0 ff10 ff10 1414 ff14 1014 1010     ................
 23ff564:	001f 0000 f000 ff10 ffff ffff f0f0 f0f0     ................
 23ff574:	fff0 ffff 0000 0000 ff00 0fff 0f0f 0f0f     ................
 23ff584:	4438 3844 fc44 4a4a 344a 027e 0602 0206     8DD8D.JJJ4~.....
 23ff594:	027e 027e 5563 4149 3863 4444 043c 7e40     ~.~.cUIAc8DD<.@~
 23ff5a4:	1e20 0620 7e02 0202 a599 a5e7 1c99 492a      . ..~........*I
 23ff5b4:	1c2a 724c 7201 304c 4d4a 304d 4830 4878     *.Lr.rL0JMM00HxH
 23ff5c4:	bc30 5a62 3d46 493e 4949 7e00 0101 7e01     0.bZF=>III.~...~
 23ff5d4:	2a2a 2a2a 442a 5f44 4444 5140 444a 4040     *****DD_DD@QJD@@
 23ff5e4:	4a44 4051 0000 01ff e003 ff80 0000 0808     DJQ@............
 23ff5f4:	6b6b 3608 3612 3624 0f06 0f09 0006 1800     kk.6.6$6........
 23ff604:	0018 0000 1010 3000 ff40 0101 1f00 0101     .......0@.......
 23ff614:	001e 1d19 1217 3c00 3c3c 003c 0000 0000     .......<<<<.....

023ff624 <_ZTV12Adafruit_GFX>:
	...
 23ff634:	c221 023f e5d9 023f b701 023f bc2b 023f     !.?...?...?.+.?.
 23ff644:	bc2d 023f bc5f 023f bc3b 023f bc4d 023f     -.?._.?.;.?.M.?.
 23ff654:	bb6d 023f bc2b 023f be55 023f be53 023f     m.?.+.?.U.?.S.?.
 23ff664:	bc77 023f bcb5 023f bcef 023f bd35 023f     w.?...?...?.5.?.
 23ff674:	bd51 023f bdd3 023f 6564 6166 6c75 2074     Q.?...?.default 
 23ff684:	4d00 4253 4c00 4253 3c00 5053 5349 7465     .MSB.LSB.<SPISet
 23ff694:	6974 676e 2073 6564 6166 6c75 3e74 3c00     tings default>.<
 23ff6a4:	5053 5349 7465 6974 676e 2073 7325 7525     SPISettings %s%u
 23ff6b4:	2520 2073 4f4d 4544 7525 003e                %s MODE%u>.

023ff6c0 <_ZTVN8particle11SPISettingsE>:
	...
 23ff6c8:	c365 023f c339 023f c33b 023f               e.?.9.?.;.?.

023ff6d4 <_ZL12splash1_data>:
 23ff6d4:	0000 0000 0100 0080 0000 0000 0000 0000     ................
 23ff6e4:	8003 0000 0000 0000 0000 0700 00c0 0000     ................
 23ff6f4:	0000 0000 0000 c007 0000 0000 0000 0000     ................
 23ff704:	0f00 00c0 0000 0000 0000 0000 e01f 0000     ................
 23ff714:	0000 0000 0000 1f00 00e0 0000 0000 0000     ................
 23ff724:	0000 e03f 0000 0000 0000 0000 3f00 00f0     ..?..........?..
	...
 23ff73c:	f07f 0000 0000 0000 1f00 7ff8 00f0 0000     ................
 23ff74c:	0000 0000 fe3f f07f 0000 0000 0000 3f00     ....?..........?
 23ff75c:	7fff 00f0 0000 0000 0000 ff1f e0fb 0000     ................
 23ff76c:	0000 0000 0f00 f9ff c0ff 0000 0000 0000     ................
 23ff77c:	ff0f fff9 00f8 0000 0000 0700 f1ff ffff     ................
 23ff78c:	0000 0000 0000 fc03 ff73 80ff 0000 0000     ........s.......
 23ff79c:	0100 3ffe ffff 0080 0000 0000 ff00 0f1e     ...?............
 23ff7ac:	00ff 0000 0000 0000 fe7f fc1f 0000 0000     ................
 23ff7bc:	0000 3f00 ffff 00f8 0000 0000 0000 df0f     ...?............
 23ff7cc:	e0ff 0000 0000 0000 1f00 ff19 00c0 0000     ................
 23ff7dc:	0000 0000 3c3f 00ff 0000 0000 0000 7e00     ....?<.........~
 23ff7ec:	f87c 0000 0000 0000 0000 fe7f 007c 0000     |...........|...
 23ff7fc:	0000 0000 ff00 fcff 0000 0000 0000 0000     ................
 23ff80c:	ffff 00fe 0000 0000 0000 ff00 feff 0000     ................
 23ff81c:	0000 0000 0100 efff 00fe 0000 0000 0000     ................
 23ff82c:	ff01 fecf 0000 0000 0000 0300 07ff 00fe     ................
 23ff83c:	0000 0000 0000 fc03 fe07 0000 0000 0000     ................
 23ff84c:	0300 03f0 00fe 0000 0000 0000 8001 fe00     ................
	...
 23ff864:	0000 007e 0000 0000 0000 0000 3e00 0000     ..~..........>..
	...
 23ff87c:	000c 0000 0000 0700 0080 00fc 0300 00c0     ................
 23ff88c:	0000 8007 fc01 0000 c003 0000 0700 0180     ................
 23ff89c:	00fc 0300 00c0 0000 8007 e001 0000 1e00     ................
 23ff8ac:	0000 0700 0180 00e0 0000 001e e37f 9ff7     ................
 23ff8bc:	fdf9 78e7 df7b ffc0 fff7 fdbf fffd 7b78     ...x{.........x{
 23ff8cc:	c0df f7ff bfff fdfd 78ff df7b f0c0 87f7     .........x{.....
 23ff8dc:	3dbc ffe1 7b78 00de f7f0 bc87 e13d 78f0     .=..x{......=..x
 23ff8ec:	de7b 0000 87f7 3d80 e0e1 7b78 00de f77f     {......=..x{....
 23ff8fc:	9f87 e1fd 78e0 de7b ff00 87f7 fdbf e0e1     .....x{.........
 23ff90c:	7b78 00de f7f0 bc87 e13d 78e0 de7b f000     x{......=..x{...
 23ff91c:	87f7 3dbc e0e1 7b78 00de f7f0 bc87 e13d     ...=..x{......=.
 23ff92c:	78e0 de7b ff00 fff7 fdbf e0e1 fb7f c0df     .x{.............
 23ff93c:	f7ff bfff e1fd 7fe0 dffb 7cc0 f3f3 3d9f     ...........|...=
 23ff94c:	e0e1 7b3e c0cf 0000 0000 0000 0000 0000     ..>{............
 23ff95c:	ff00 ffff ffff ffff ffff c0ff ffff ffff     ................
 23ff96c:	68fd 11db 311a ffc0 ffff fdff 5a2b 6afb     .h...1......+Z.j
 23ff97c:	c0ef ffff ffff 4bfd 3b5b 331a ffc0 ffff     .......K[;.3....
 23ff98c:	fdff 5b6b 6adb c0fd                         ..k[.j..

023ff994 <_ZL12splash2_data>:
 23ff994:	0000 0060 0000 0000 0000 0000 0000 0000     ..`.............
 23ff9a4:	e000 0000 0000 0000 0000 0000 0000 0100     ................
 23ff9b4:	00e0 0000 0000 0000 0000 0000 0000 f001     ................
	...
 23ff9d0:	0300 00f0 0000 0000 0000 0000 0000 0000     ................
 23ff9e0:	f007 0000 0000 0000 0000 0000 0000 0700     ................
 23ff9f0:	00f8 0000 0000 0000 0000 0000 0000 f80f     ................
 23ffa00:	0000 0300 00c0 007e 0100 00e0 0f7f 00f8     ......~.........
 23ffa10:	0000 c003 fe00 0000 e001 ff00 f8ef 0000     ................
 23ffa20:	0300 00c0 00fe 0100 00e0 ffff 00f8 0000     ................
 23ffa30:	c003 f000 0000 0f00 7f00 7ffe 00c0 0300     ................
 23ffa40:	00c0 00f0 0000 000f fe3f f87f f13f cffb     ........?...?...
 23ffa50:	fefc bcf3 ef3d 1fe0 7ffe 7fff fffb fedf     ....=...........
 23ffa60:	fffe 3dbc e0ef c61f ffff fb7f dfff fefe     ...=............
 23ffa70:	bcff ef3d 0fe0 c7e3 78fe c37b 1ede fff0     ..=......x{.....
 23ffa80:	3dbc 00ef ff07 fc87 7b78 dec3 f01e 3cf8     .=......x{.....<
 23ffa90:	ef3d 0100 ffff 00f0 c37b 1ec0 f0f0 3d3c     =.......{.....<=
 23ffaa0:	00ef f301 e07f fb3f cfc3 f0fe 3cf0 ef3d     ......?......<=.
 23ffab0:	0300 3fe3 7f80 c3fb fedf f0f0 3d3c 00ef     ...?........<=..
 23ffac0:	e707 003c 7b78 dec3 f01e 3cf0 ef3d 0700     ..<.x{.....<=...
 23ffad0:	beff 7800 c37b 1ede f0f0 3d3c 00ef ff07     ...x{.....<=....
 23ffae0:	00fe 7b78 dec3 f01e 3cf0 ef3d 0f00 feff     ..x{.....<=.....
 23ffaf0:	7f00 fffb fedf f0f0 fd3f e0ef ff0f 00ff     ........?.......
 23ffb00:	fb7f dfff f0fe 3ff0 effd 0fe0 fff9 3e00     .......?.......>
 23ffb10:	f979 9ecf f0f0 3d1f e0e7 f11f 00ff 0000     y......=........
	...
 23ffb28:	1f00 ff80 7f00 ffff ffff ffff ffff e0ff     ................
 23ffb38:	001c 007f ff7f ffff b4fe 886d 188d 00e0     ..........m.....
 23ffb48:	1f00 7f00 ffff feff ad95 b57d e077 0000     ..........}.w...
 23ffb58:	000f ff7f ffff a5fe 9dad 198d 00e0 0600     ................
 23ffb68:	7f00 ffff feff adb5 b5ed e07e               ..........~.

023ffb74 <_ZTV16Adafruit_SSD1306>:
	...
 23ffb7c:	c3b9 023f c3d1 023f c221 023f e5d9 023f     ..?...?.!.?...?.
 23ffb8c:	c3e5 023f bc2b 023f bc2d 023f bc5f 023f     ..?.+.?.-.?._.?.
 23ffb9c:	bc3b 023f bc4d 023f bb6d 023f bc2b 023f     ;.?.M.?.m.?.+.?.
 23ffbac:	be55 023f c583 023f cbe7 023f cb99 023f     U.?...?...?...?.
 23ffbbc:	bcef 023f bd35 023f bd51 023f bdd3 023f     ..?.5.?.Q.?...?.

023ffbcc <_ZZN16Adafruit_SSD130621drawFastVLineInternalEssstE7premask>:
 23ffbcc:	8000 e0c0 f8f0 fefc                         ........

023ffbd4 <_ZZN16Adafruit_SSD130621drawFastVLineInternalEssstE8postmask>:
 23ffbd4:	0100 0703 1f0f 7f3f                         ......?.

023ffbdc <_ZZN16Adafruit_SSD13065beginEhhbbE5init1>:
 23ffbdc:	d5ae a880                                   ....

023ffbe0 <_ZZN16Adafruit_SSD13065beginEhhbbE5init2>:
 23ffbe0:	00d3 8d40                                   ..@.

023ffbe4 <_ZZN16Adafruit_SSD13065beginEhhbbE5init3>:
 23ffbe4:	0020 c8a1                                    ...

023ffbe8 <_ZZN16Adafruit_SSD13065beginEhhbbE5init5>:
 23ffbe8:	40db a6a4 af2e                              .@....

023ffbee <_ZZN16Adafruit_SSD13067displayEvE6dlist1>:
 23ffbee:	0022 21ff 4200 494d 3631 4730 6e65 6c43     "..!.BMI160GenCl
 23ffbfe:	7361 3a73 693a 6332 695f 696e 2874 2e29     ass::i2c_init().
 23ffc0e:	2e2e 4200 494d 3631 4730 6e65 6c43 7361     ...BMI160GenClas
 23ffc1e:	3a73 693a 6332 695f 696e 2874 3a29 4920     s::i2c_init(): I
 23ffc2e:	4332 6620 6961 656c 2e64 4200 494d 3631     2C failed..BMI16
 23ffc3e:	4730 6e65 6c43 7361 3a73 693a 6332 695f     0GenClass::i2c_i
 23ffc4e:	696e 2874 3a29 4320 4948 2050 4449 3d20     nit(): CHIP ID =
 23ffc5e:	3020 0078 4d42 3149 3036 6547 436e 616c      0x.BMI160GenCla
 23ffc6e:	7373 3a3a 3269 5f63 6e69 7469 2928 2e2e     ss::i2c_init()..
 23ffc7e:	642e 6e6f 0065 3269 5f63 6678 7265 6f28     .done.i2c_xfer(o
 23ffc8e:	6666 3d73 7830 2c00 7420 3d78 2c00 7220     ffs=0x., tx=., r
 23ffc9e:	3d78 2900 003a 6957 6572 652e 646e 7254     x=.):.Wire.endTr
 23ffcae:	6e61 6d73 7369 6973 6e6f 2928 6620 6961     ansmission() fai
 23ffcbe:	656c 2e64 4200 494d 3631 4730 6e65 6c43     led..BMI160GenCl
 23ffcce:	7361 3a73 733a 6970 695f 696e 2874 2e29     ass::spi_init().
 23ffcde:	2e2e 4200 494d 3631 4730 6e65 6c43 7361     ...BMI160GenClas
 23ffcee:	3a73 733a 6970 695f 696e 2874 3a29 5720     s::spi_init(): W
 23ffcfe:	5241 494e 474e 203a 6f4e 6320 6968 2070     ARNING: No chip 
 23ffd0e:	6573 656c 7463 7020 6e69 7320 6570 6963     select pin speci
 23ffd1e:	6966 6465 002e 4d42 3149 3036 6547 436e     fied..BMI160GenC
 23ffd2e:	616c 7373 3a3a 7073 5f69 6e69 7469 2928     lass::spi_init()
 23ffd3e:	2e2e 642e 6e6f 0065 4d42 3149 3036 6547     ...done.BMI160Ge
 23ffd4e:	436e 616c 7373 3a3a 7073 5f69 6678 7265     nClass::spi_xfer
 23ffd5e:	0028 002c 0000                              (.,...

023ffd64 <_ZTV14BMI160GenClass>:
	...
 23ffd6c:	d18b 023f d011 023f d129 023f               ..?...?.).?.

023ffd78 <_ZTV13CurieIMUClass>:
	...
 23ffd80:	d18b 023f d185 023f d187 023f               ..?...?...?.

023ffd8c <_ZTVSt15_Sp_counted_ptrIPN8particle6detail10FutureImplIbNS1_13FutureContextEEELN9__gnu_cxx12_Lock_policyE0EE>:
	...
 23ffd94:	dc05 023f dc0b 023f dc49 023f dc19 023f     ..?...?.I.?...?.
 23ffda4:	dc07 023f                                   ..?.

023ffda8 <_ZTVN5spark13EthernetClassE>:
	...
 23ffdb0:	e1b7 023f e1ad 023f e1a3 023f e199 023f     ..?...?...?...?.
 23ffdc0:	e18d 023f e181 023f e45d 023f e465 023f     ..?...?.].?.e.?.
 23ffdd0:	e175 023f e16d 023f e163 023f e159 023f     u.?.m.?.c.?.Y.?.
 23ffde0:	e5b1 023f e495 023f e49d 023f               ..?...?...?.

023ffdec <_ZTV7TwoWire>:
	...
 23ffdf4:	e1d5 023f e21f 023f e1f7 023f e1d7 023f     ..?...?...?...?.
 23ffe04:	e1ff 023f e207 023f e20f 023f e217 023f     ..?...?...?...?.
 23ffe14:	e8e3 023f                                   ..?.

023ffe18 <_ZTV9IPAddress>:
	...
 23ffe20:	e32d 023f e31d 023f e31f 023f 7061 0070     -.?...?...?.app.

023ffe30 <CSWTCH.165>:
 23ffe30:	af24 1007 af88 1007 af44 1007               $.......D...

023ffe3c <_ZTVN5spark12NetworkClassE>:
	...
 23ffe44:	e41d 023f e427 023f e431 023f e43b 023f     ..?.'.?.1.?.;.?.
 23ffe54:	e445 023f e451 023f e45d 023f e465 023f     E.?.Q.?.].?.e.?.
 23ffe64:	e46d 023f e479 023f e481 023f e48b 023f     m.?.y.?...?...?.
 23ffe74:	e5b1 023f e495 023f e49d 023f               ..?...?...?.

023ffe80 <_ZN12_GLOBAL__N_1L14clock_divisorsE>:
 23ffe80:	0800 1810 2820 3830 5925 252d 2d6d 6425     .... (08%Y-%m-%d
 23ffe90:	2554 3a48 4d25 253a 2553 007a 7361 7463     T%H:%M:%S%z.asct
 23ffea0:	6d69 0065                                   ime.

023ffea4 <_ZTV11USARTSerial>:
	...
 23ffeac:	e973 023f e9df 023f e9b7 023f e5d9 023f     s.?...?...?...?.
 23ffebc:	e987 023f e9a3 023f e995 023f e9b1 023f     ..?...?...?...?.
 23ffecc:	e8e3 023f e975 023f e979 023f               ..?.u.?.y.?.

023ffed8 <_ZTV9USBSerial>:
	...
 23ffee0:	ea21 023f ea89 023f ea5f 023f e5d9 023f     !.?...?._.?...?.
 23ffef0:	ea51 023f ea23 023f ea33 023f ea83 023f     Q.?.#.?.3.?...?.
 23fff00:	e8e3 023f ea43 023f ea1b 023f               ..?.C.?...?.

023fff0c <_ZTVN5spark9WiFiClassE>:
	...
 23fff14:	eb7f 023f eb75 023f eb6b 023f eb21 023f     ..?.u.?.k.?.!.?.
 23fff24:	eb5f 023f eb53 023f e45d 023f e465 023f     _.?.S.?.].?.e.?.
 23fff34:	eb47 023f eb3f 023f eb35 023f eb2b 023f     G.?.?.?.5.?.+.?.
 23fff44:	e5b1 023f e495 023f e49d 023f               ..?...?...?.

023fff50 <_ZSt7nothrow>:
 23fff50:	5200 4545 544e 6d20 6c61 6f6c 2063 7573     .REENT malloc su
 23fff60:	6363 6565 6564 0064 742f 706d 6a2f 6e65     cceeded./tmp/jen
 23fff70:	696b 736e 472d 4343 312d 2d30 6970 6570     kins-GCC-10-pipe
 23fff80:	696c 656e 342d 5f38 3032 3032 3131 3432     line-48_20201124
 23fff90:	315f 3036 3136 3038 3336 2f39 7273 2f63     _1606180639/src/
 23fffa0:	656e 6c77 6269 6e2f 7765 696c 2f62 696c     newlib/newlib/li
 23fffb0:	6362 732f 6474 696c 2f62 6172 646e 632e     bc/stdlib/rand.c
	...

023fffc1 <link_const_data_end>:
 23fffc1:	00          	.byte	0x00
	...

023fffc4 <link_constructors_location>:
 23fffc4:	023fb925 	.word	0x023fb925
 23fffc8:	023fba9d 	.word	0x023fba9d
 23fffcc:	023fd169 	.word	0x023fd169
 23fffd0:	023fd199 	.word	0x023fd199
 23fffd4:	023fdbf5 	.word	0x023fdbf5
 23fffd8:	023fe149 	.word	0x023fe149
 23fffdc:	023fe1c1 	.word	0x023fe1c1
 23fffe0:	023fe301 	.word	0x023fe301
 23fffe4:	023fe40d 	.word	0x023fe40d
 23fffe8:	023fe5c5 	.word	0x023fe5c5
 23fffec:	023fe749 	.word	0x023fe749
 23ffff0:	023fe90d 	.word	0x023fe90d
 23ffff4:	023fe931 	.word	0x023fe931
 23ffff8:	023feb89 	.word	0x023feb89
